	.file	"LibraryParse.cpp"
# GNU C++ (Gentoo 4.4.6-r1 p1.0, pie-0.4.5) version 4.4.6 (x86_64-pc-linux-gnu)
#	compiled by GNU C version 4.4.6, GMP version 5.0.2, MPFR version 3.0.1-p4.
# GGC heuristics: --param ggc-min-expand=100 --param ggc-min-heapsize=131072
# переданы ключи: 
# -I/usr/lib64/wx/include/gtk2-unicode-release-2.8 -I/usr/include/wx-2.8
# -I/usr/include/boost -I../tinyxml2 -I/usr/include/gtk-2.0
# -I/usr/lib64/gtk-2.0/include -I/usr/include/pango-1.0
# -I/usr/include/gdk-pixbuf-2.0 -I/usr/include/glib-2.0
# -I/usr/lib64/glib-2.0/include -I/usr/include/cairo
# -I/usr/include/pixman-1 -I/usr/include/freetype2 -I/usr/include/libpng15
# -I/usr/include/libdrm -D_GNU_SOURCE -D_REENTRANT -D_FILE_OFFSET_BITS=64
# -D_LARGE_FILES -D__WXGTK__ LibraryParse.cpp -D_FORTIFY_SOURCE=2
# -mtune=generic -fverbose-asm
# активные ключи:  -falign-loops -fargument-alias
# -fasynchronous-unwind-tables -fauto-inc-dec -fbranch-count-reg -fcommon
# -fdwarf2-cfi-asm -fearly-inlining -feliminate-unused-debug-types
# -fexceptions -ffunction-cse -fgcse-lm -fident
# -finline-functions-called-once -fira-share-save-slots
# -fira-share-spill-slots -fivopts -fkeep-static-consts
# -fleading-underscore -fmath-errno -fmerge-debug-strings
# -fmove-loop-invariants -fpeephole -freg-struct-return -fsched-interblock
# -fsched-spec -fsched-stalled-insns-dep -fsigned-zeros
# -fsplit-ivs-in-unroller -ftrapping-math -ftree-cselim -ftree-loop-im
# -ftree-loop-ivcanon -ftree-loop-optimize -ftree-parallelize-loops=
# -ftree-reassoc -ftree-scev-cprop -ftree-switch-conversion
# -ftree-vect-loop-version -funit-at-a-time -funwind-tables
# -fvect-cost-model -fverbose-asm -fzero-initialized-in-bss
# -m128bit-long-double -m64 -m80387 -maccumulate-outgoing-args
# -malign-stringops -mfancy-math-387 -mfp-ret-in-387 -mfused-madd -mglibc
# -mieee-fp -mmmx -mno-sse4 -mpush-args -mred-zone -msse -msse2
# -mtls-direct-seg-refs

# Compiler executable checksum: 363aafb4cd300d5b1f3bf0986a19fd91

	.section	.text._ZNK8tinyxml27XMLNode5ValueEv,"axG",@progbits,_ZNK8tinyxml27XMLNode5ValueEv,comdat
	.align 2
	.weak	_ZNK8tinyxml27XMLNode5ValueEv
	.type	_ZNK8tinyxml27XMLNode5ValueEv, @function
_ZNK8tinyxml27XMLNode5ValueEv:
.LFB66:
	.cfi_startproc
	.cfi_personality 0x3,__gxx_personality_v0
	pushq	%rbp	#
	.cfi_def_cfa_offset 16
	movq	%rsp, %rbp	#,
	.cfi_offset 6, -16
	.cfi_def_cfa_register 6
	subq	$16, %rsp	#,
	movq	%rdi, -8(%rbp)	# this, this
	movq	-8(%rbp), %rax	# this, tmp62
	addq	$24, %rax	#, D.3759
	movq	%rax, %rdi	# D.3759,
	call	_ZN8tinyxml27StrPair6GetStrEv	#
	leave
	ret
	.cfi_endproc
.LFE66:
	.size	_ZNK8tinyxml27XMLNode5ValueEv, .-_ZNK8tinyxml27XMLNode5ValueEv
	.section	.text._ZN8tinyxml27XMLNode17FirstChildElementEPKc,"axG",@progbits,_ZN8tinyxml27XMLNode17FirstChildElementEPKc,comdat
	.align 2
	.weak	_ZN8tinyxml27XMLNode17FirstChildElementEPKc
	.type	_ZN8tinyxml27XMLNode17FirstChildElementEPKc, @function
_ZN8tinyxml27XMLNode17FirstChildElementEPKc:
.LFB72:
	.cfi_startproc
	.cfi_personality 0x3,__gxx_personality_v0
	pushq	%rbp	#
	.cfi_def_cfa_offset 16
	movq	%rsp, %rbp	#,
	.cfi_offset 6, -16
	.cfi_def_cfa_register 6
	subq	$16, %rsp	#,
	movq	%rdi, -8(%rbp)	# this, this
	movq	%rsi, -16(%rbp)	# _value, _value
	movq	-16(%rbp), %rdx	# _value, tmp61
	movq	-8(%rbp), %rax	# this, tmp62
	movq	%rdx, %rsi	# tmp61,
	movq	%rax, %rdi	# tmp62,
	call	_ZNK8tinyxml27XMLNode17FirstChildElementEPKc	#
	leave
	ret
	.cfi_endproc
.LFE72:
	.size	_ZN8tinyxml27XMLNode17FirstChildElementEPKc, .-_ZN8tinyxml27XMLNode17FirstChildElementEPKc
	.section	.text._ZN8tinyxml27XMLNode18NextSiblingElementEPKc,"axG",@progbits,_ZN8tinyxml27XMLNode18NextSiblingElementEPKc,comdat
	.align 2
	.weak	_ZN8tinyxml27XMLNode18NextSiblingElementEPKc
	.type	_ZN8tinyxml27XMLNode18NextSiblingElementEPKc, @function
_ZN8tinyxml27XMLNode18NextSiblingElementEPKc:
.LFB81:
	.cfi_startproc
	.cfi_personality 0x3,__gxx_personality_v0
	pushq	%rbp	#
	.cfi_def_cfa_offset 16
	movq	%rsp, %rbp	#,
	.cfi_offset 6, -16
	.cfi_def_cfa_register 6
	subq	$16, %rsp	#,
	movq	%rdi, -8(%rbp)	# this, this
	movq	%rsi, -16(%rbp)	# _value, _value
	movq	-16(%rbp), %rdx	# _value, tmp61
	movq	-8(%rbp), %rax	# this, tmp62
	movq	%rdx, %rsi	# tmp61,
	movq	%rax, %rdi	# tmp62,
	call	_ZNK8tinyxml27XMLNode18NextSiblingElementEPKc	#
	leave
	ret
	.cfi_endproc
.LFE81:
	.size	_ZN8tinyxml27XMLNode18NextSiblingElementEPKc, .-_ZN8tinyxml27XMLNode18NextSiblingElementEPKc
	.section	.text._ZnwmPv,"axG",@progbits,_ZnwmPv,comdat
	.weak	_ZnwmPv
	.type	_ZnwmPv, @function
_ZnwmPv:
.LFB361:
	.cfi_startproc
	.cfi_personality 0x3,__gxx_personality_v0
	pushq	%rbp	#
	.cfi_def_cfa_offset 16
	movq	%rsp, %rbp	#,
	.cfi_offset 6, -16
	.cfi_def_cfa_register 6
	movq	%rdi, -8(%rbp)	# D.8140, D.8140
	movq	%rsi, -16(%rbp)	# __p, __p
	movq	-16(%rbp), %rax	# __p, D.8144
	leave
	ret
	.cfi_endproc
.LFE361:
	.size	_ZnwmPv, .-_ZnwmPv
	.section	.text._ZdlPvS_,"axG",@progbits,_ZdlPvS_,comdat
	.weak	_ZdlPvS_
	.type	_ZdlPvS_, @function
_ZdlPvS_:
.LFB363:
	.cfi_startproc
	.cfi_personality 0x3,__gxx_personality_v0
	pushq	%rbp	#
	.cfi_def_cfa_offset 16
	movq	%rsp, %rbp	#,
	.cfi_offset 6, -16
	.cfi_def_cfa_register 6
	movq	%rdi, -8(%rbp)	# D.8150, D.8150
	movq	%rsi, -16(%rbp)	# D.8151, D.8151
	leave
	ret
	.cfi_endproc
.LFE363:
	.size	_ZdlPvS_, .-_ZdlPvS_
	.section	.text._ZNSt18_Rb_tree_node_base10_S_minimumEPS_,"axG",@progbits,_ZNSt18_Rb_tree_node_base10_S_minimumEPS_,comdat
	.weak	_ZNSt18_Rb_tree_node_base10_S_minimumEPS_
	.type	_ZNSt18_Rb_tree_node_base10_S_minimumEPS_, @function
_ZNSt18_Rb_tree_node_base10_S_minimumEPS_:
.LFB1471:
	.cfi_startproc
	.cfi_personality 0x3,__gxx_personality_v0
	pushq	%rbp	#
	.cfi_def_cfa_offset 16
	movq	%rsp, %rbp	#,
	.cfi_offset 6, -16
	.cfi_def_cfa_register 6
	movq	%rdi, -8(%rbp)	# __x, __x
	jmp	.L12	#
.L13:
	movq	-8(%rbp), %rax	# __x, tmp62
	movq	16(%rax), %rax	# <variable>._M_left, tmp63
	movq	%rax, -8(%rbp)	# tmp63, __x
.L12:
	movq	-8(%rbp), %rax	# __x, tmp64
	movq	16(%rax), %rax	# <variable>._M_left, D.29387
	testq	%rax, %rax	# D.29387
	setne	%al	#, D.29388
	testb	%al, %al	# D.29388
	jne	.L13	#,
	movq	-8(%rbp), %rax	# __x, D.29389
	leave
	ret
	.cfi_endproc
.LFE1471:
	.size	_ZNSt18_Rb_tree_node_base10_S_minimumEPS_, .-_ZNSt18_Rb_tree_node_base10_S_minimumEPS_
	.section	.text._ZNSt18_Rb_tree_node_base10_S_maximumEPS_,"axG",@progbits,_ZNSt18_Rb_tree_node_base10_S_maximumEPS_,comdat
	.weak	_ZNSt18_Rb_tree_node_base10_S_maximumEPS_
	.type	_ZNSt18_Rb_tree_node_base10_S_maximumEPS_, @function
_ZNSt18_Rb_tree_node_base10_S_maximumEPS_:
.LFB1473:
	.cfi_startproc
	.cfi_personality 0x3,__gxx_personality_v0
	pushq	%rbp	#
	.cfi_def_cfa_offset 16
	movq	%rsp, %rbp	#,
	.cfi_offset 6, -16
	.cfi_def_cfa_register 6
	movq	%rdi, -8(%rbp)	# __x, __x
	jmp	.L16	#
.L17:
	movq	-8(%rbp), %rax	# __x, tmp62
	movq	24(%rax), %rax	# <variable>._M_right, tmp63
	movq	%rax, -8(%rbp)	# tmp63, __x
.L16:
	movq	-8(%rbp), %rax	# __x, tmp64
	movq	24(%rax), %rax	# <variable>._M_right, D.29401
	testq	%rax, %rax	# D.29401
	setne	%al	#, D.29402
	testb	%al, %al	# D.29402
	jne	.L17	#,
	movq	-8(%rbp), %rax	# __x, D.29403
	leave
	ret
	.cfi_endproc
.LFE1473:
	.size	_ZNSt18_Rb_tree_node_base10_S_maximumEPS_, .-_ZNSt18_Rb_tree_node_base10_S_maximumEPS_
.globl _Unwind_Resume
	.section	.text._ZN9lgHotspotC1ESsbffbSs,"axG",@progbits,_ZN9lgHotspotC1ESsbffbSs,comdat
	.align 2
	.weak	_ZN9lgHotspotC1ESsbffbSs
	.type	_ZN9lgHotspotC1ESsbffbSs, @function
_ZN9lgHotspotC1ESsbffbSs:
.LFB1808:
	.cfi_startproc
	.cfi_personality 0x3,__gxx_personality_v0
	.cfi_lsda 0x3,.LLSDA1808
	pushq	%rbp	#
	.cfi_def_cfa_offset 16
	movq	%rsp, %rbp	#,
	.cfi_offset 6, -16
	.cfi_def_cfa_register 6
	pushq	%r12	#
	pushq	%rbx	#
	subq	$48, %rsp	#,
	movq	%rdi, -24(%rbp)	# this, this
	movq	%rsi, -32(%rbp)	# nName, nName
	movss	%xmm0, -40(%rbp)	# nX, nX
	movss	%xmm1, -44(%rbp)	# nY, nY
	movl	%ecx, %eax	# nIsInverted, tmp65
	movq	%r8, -56(%rbp)	# nEInput, nEInput
	movb	%dl, -36(%rbp)	# tmp64, nIsInput
	movb	%al, -48(%rbp)	# tmp65, nIsInverted
	movq	-24(%rbp), %rax	# this, D.34007
	movq	-32(%rbp), %rdx	# nName, tmp66
	movq	%rdx, %rsi	# tmp66,
	movq	%rax, %rdi	# D.34007,
.LEHB0:
	.cfi_offset 3, -32
	.cfi_offset 12, -24
	call	_ZNSsC1ERKSs	#
.LEHE0:
	movq	-24(%rbp), %rax	# this, tmp67
	movzbl	-36(%rbp), %edx	# nIsInput, tmp68
	movb	%dl, 8(%rax)	# tmp68, <variable>.isInput
	movq	-24(%rbp), %rax	# this, tmp69
	movl	-40(%rbp), %edx	# nX, tmp70
	movl	%edx, 12(%rax)	# tmp70, <variable>.x
	movq	-24(%rbp), %rax	# this, tmp71
	movl	-44(%rbp), %edx	# nY, tmp72
	movl	%edx, 16(%rax)	# tmp72, <variable>.y
	movq	-24(%rbp), %rax	# this, tmp73
	movzbl	-48(%rbp), %edx	# nIsInverted, tmp74
	movb	%dl, 20(%rax)	# tmp74, <variable>.isInverted
	movq	-24(%rbp), %rax	# this, tmp75
	leaq	24(%rax), %rdx	#, D.34008
	movq	-56(%rbp), %rax	# nEInput, tmp76
	movq	%rax, %rsi	# tmp76,
	movq	%rdx, %rdi	# D.34008,
.LEHB1:
	call	_ZNSsC1ERKSs	#
.LEHE1:
	jmp	.L24	#
.L23:
.L21:
	movl	%edx, %ebx	# tmp77, save_filt.3138
	movq	%rax, %r12	# tmp78, save_eptr.3137
	movq	-24(%rbp), %rax	# this, D.34010
	movq	%rax, %rdi	# D.34010,
	call	_ZNSsD1Ev	#
	movq	%r12, %rax	# save_eptr.3137, tmp78
	movslq	%ebx,%rdx	# save_filt.3138, tmp77
	movq	%rax, %rdi	# tmp78,
.LEHB2:
	call	_Unwind_Resume	#
.LEHE2:
.L24:
	addq	$48, %rsp	#,
	popq	%rbx	#
	popq	%r12	#
	leave
	ret
	.cfi_endproc
.LFE1808:
	.size	_ZN9lgHotspotC1ESsbffbSs, .-_ZN9lgHotspotC1ESsbffbSs
.globl __gxx_personality_v0
	.section	.gcc_except_table,"a",@progbits
.LLSDA1808:
	.byte	0xff
	.byte	0xff
	.byte	0x1
	.uleb128 .LLSDACSE1808-.LLSDACSB1808
.LLSDACSB1808:
	.uleb128 .LEHB0-.LFB1808
	.uleb128 .LEHE0-.LEHB0
	.uleb128 0x0
	.uleb128 0x0
	.uleb128 .LEHB1-.LFB1808
	.uleb128 .LEHE1-.LEHB1
	.uleb128 .L23-.LFB1808
	.uleb128 0x0
	.uleb128 .LEHB2-.LFB1808
	.uleb128 .LEHE2-.LEHB2
	.uleb128 0x0
	.uleb128 0x0
.LLSDACSE1808:
	.section	.text._ZN9lgHotspotC1ESsbffbSs,"axG",@progbits,_ZN9lgHotspotC1ESsbffbSs,comdat
	.section	.text._ZN6lgLineC1Effff,"axG",@progbits,_ZN6lgLineC1Effff,comdat
	.align 2
	.weak	_ZN6lgLineC1Effff
	.type	_ZN6lgLineC1Effff, @function
_ZN6lgLineC1Effff:
.LFB1811:
	.cfi_startproc
	.cfi_personality 0x3,__gxx_personality_v0
	pushq	%rbp	#
	.cfi_def_cfa_offset 16
	movq	%rsp, %rbp	#,
	.cfi_offset 6, -16
	.cfi_def_cfa_register 6
	movq	%rdi, -8(%rbp)	# this, this
	movss	%xmm0, -12(%rbp)	# nX1, nX1
	movss	%xmm1, -16(%rbp)	# nY1, nY1
	movss	%xmm2, -20(%rbp)	# nX2, nX2
	movss	%xmm3, -24(%rbp)	# nY2, nY2
	movq	-8(%rbp), %rax	# this, tmp58
	movl	-12(%rbp), %edx	# nX1, tmp59
	movl	%edx, (%rax)	# tmp59, <variable>.x1
	movq	-8(%rbp), %rax	# this, tmp60
	movl	-20(%rbp), %edx	# nX2, tmp61
	movl	%edx, 4(%rax)	# tmp61, <variable>.x2
	movq	-8(%rbp), %rax	# this, tmp62
	movl	-16(%rbp), %edx	# nY1, tmp63
	movl	%edx, 8(%rax)	# tmp63, <variable>.y1
	movq	-8(%rbp), %rax	# this, tmp64
	movl	-24(%rbp), %edx	# nY2, tmp65
	movl	%edx, 12(%rax)	# tmp65, <variable>.y2
	leave
	ret
	.cfi_endproc
.LFE1811:
	.size	_ZN6lgLineC1Effff, .-_ZN6lgLineC1Effff
	.section	.text._ZNK12wxStringData7IsEmptyEv,"axG",@progbits,_ZNK12wxStringData7IsEmptyEv,comdat
	.align 2
	.weak	_ZNK12wxStringData7IsEmptyEv
	.type	_ZNK12wxStringData7IsEmptyEv, @function
_ZNK12wxStringData7IsEmptyEv:
.LFB1987:
	.cfi_startproc
	.cfi_personality 0x3,__gxx_personality_v0
	pushq	%rbp	#
	.cfi_def_cfa_offset 16
	movq	%rsp, %rbp	#,
	.cfi_offset 6, -16
	.cfi_def_cfa_register 6
	movq	%rdi, -8(%rbp)	# this, this
	movq	-8(%rbp), %rax	# this, tmp61
	movl	(%rax), %eax	# <variable>.nRefs, D.40746
	cmpl	$-1, %eax	#, D.40746
	sete	%al	#, D.40745
	leave
	ret
	.cfi_endproc
.LFE1987:
	.size	_ZNK12wxStringData7IsEmptyEv, .-_ZNK12wxStringData7IsEmptyEv
	.section	.text._ZN12wxStringData6UnlockEv,"axG",@progbits,_ZN12wxStringData6UnlockEv,comdat
	.align 2
	.weak	_ZN12wxStringData6UnlockEv
	.type	_ZN12wxStringData6UnlockEv, @function
_ZN12wxStringData6UnlockEv:
.LFB1990:
	.cfi_startproc
	.cfi_personality 0x3,__gxx_personality_v0
	pushq	%rbp	#
	.cfi_def_cfa_offset 16
	movq	%rsp, %rbp	#,
	.cfi_offset 6, -16
	.cfi_def_cfa_register 6
	subq	$16, %rsp	#,
	movq	%rdi, -8(%rbp)	# this, this
	movq	-8(%rbp), %rax	# this, tmp65
	movq	%rax, %rdi	# tmp65,
	call	_ZNK12wxStringData7IsEmptyEv	#
	xorl	$1, %eax	#, D.40764
	testb	%al, %al	# D.40764
	je	.L30	#,
	movq	-8(%rbp), %rax	# this, tmp66
	movl	(%rax), %eax	# <variable>.nRefs, D.40766
	leal	-1(%rax), %edx	#, D.40767
	movq	-8(%rbp), %rax	# this, tmp67
	movl	%edx, (%rax)	# D.40767, <variable>.nRefs
	movq	-8(%rbp), %rax	# this, tmp68
	movl	(%rax), %eax	# <variable>.nRefs, D.40768
	testl	%eax, %eax	# D.40768
	jne	.L30	#,
	movl	$1, %eax	#, iftmp.156
	jmp	.L31	#
.L30:
	movl	$0, %eax	#, iftmp.156
.L31:
	testb	%al, %al	# retval.155
	je	.L33	#,
	movq	-8(%rbp), %rax	# this, tmp69
	movq	%rax, %rdi	# tmp69,
	call	free	#
.L33:
	leave
	ret
	.cfi_endproc
.LFE1990:
	.size	_ZN12wxStringData6UnlockEv, .-_ZN12wxStringData6UnlockEv
	.section	.text._ZNK12wxStringBase13GetStringDataEv,"axG",@progbits,_ZNK12wxStringBase13GetStringDataEv,comdat
	.align 2
	.weak	_ZNK12wxStringBase13GetStringDataEv
	.type	_ZNK12wxStringBase13GetStringDataEv, @function
_ZNK12wxStringBase13GetStringDataEv:
.LFB1993:
	.cfi_startproc
	.cfi_personality 0x3,__gxx_personality_v0
	pushq	%rbp	#
	.cfi_def_cfa_offset 16
	movq	%rsp, %rbp	#,
	.cfi_offset 6, -16
	.cfi_def_cfa_register 6
	movq	%rdi, -8(%rbp)	# this, this
	movq	-8(%rbp), %rax	# this, tmp62
	movq	(%rax), %rax	# <variable>.m_pchData, D.41370
	subq	$24, %rax	#, D.41369
	leave
	ret
	.cfi_endproc
.LFE1993:
	.size	_ZNK12wxStringBase13GetStringDataEv, .-_ZNK12wxStringBase13GetStringDataEv
	.section	.text._ZN12wxStringBase4InitEv,"axG",@progbits,_ZN12wxStringBase4InitEv,comdat
	.align 2
	.weak	_ZN12wxStringBase4InitEv
	.type	_ZN12wxStringBase4InitEv, @function
_ZN12wxStringBase4InitEv:
.LFB1994:
	.cfi_startproc
	.cfi_personality 0x3,__gxx_personality_v0
	pushq	%rbp	#
	.cfi_def_cfa_offset 16
	movq	%rsp, %rbp	#,
	.cfi_offset 6, -16
	.cfi_def_cfa_register 6
	movq	%rdi, -8(%rbp)	# this, this
	movq	wxEmptyString(%rip), %rdx	# wxEmptyString, wxEmptyString.158
	movq	-8(%rbp), %rax	# this, tmp59
	movq	%rdx, (%rax)	# wxEmptyString.158, <variable>.m_pchData
	leave
	ret
	.cfi_endproc
.LFE1994:
	.size	_ZN12wxStringBase4InitEv, .-_ZN12wxStringBase4InitEv
	.section	.text._ZN12wxStringBaseC2Ev,"axG",@progbits,_ZN12wxStringBaseC2Ev,comdat
	.align 2
	.weak	_ZN12wxStringBaseC2Ev
	.type	_ZN12wxStringBaseC2Ev, @function
_ZN12wxStringBaseC2Ev:
.LFB2026:
	.cfi_startproc
	.cfi_personality 0x3,__gxx_personality_v0
	pushq	%rbp	#
	.cfi_def_cfa_offset 16
	movq	%rsp, %rbp	#,
	.cfi_offset 6, -16
	.cfi_def_cfa_register 6
	subq	$16, %rsp	#,
	movq	%rdi, -8(%rbp)	# this, this
	movq	-8(%rbp), %rax	# this, tmp58
	movq	%rax, %rdi	# tmp58,
	call	_ZN12wxStringBase4InitEv	#
	leave
	ret
	.cfi_endproc
.LFE2026:
	.size	_ZN12wxStringBaseC2Ev, .-_ZN12wxStringBaseC2Ev
	.section	.text._ZN12wxStringBaseD2Ev,"axG",@progbits,_ZN12wxStringBaseD2Ev,comdat
	.align 2
	.weak	_ZN12wxStringBaseD2Ev
	.type	_ZN12wxStringBaseD2Ev, @function
_ZN12wxStringBaseD2Ev:
.LFB2044:
	.cfi_startproc
	.cfi_personality 0x3,__gxx_personality_v0
	pushq	%rbp	#
	.cfi_def_cfa_offset 16
	movq	%rsp, %rbp	#,
	.cfi_offset 6, -16
	.cfi_def_cfa_register 6
	subq	$16, %rsp	#,
	movq	%rdi, -8(%rbp)	# this, this
	movq	-8(%rbp), %rax	# this, tmp59
	movq	%rax, %rdi	# tmp59,
	call	_ZNK12wxStringBase13GetStringDataEv	#
	movq	%rax, %rdi	# D.41539,
	call	_ZN12wxStringData6UnlockEv	#
	leave
	ret
	.cfi_endproc
.LFE2044:
	.size	_ZN12wxStringBaseD2Ev, .-_ZN12wxStringBaseD2Ev
	.section	.text._ZNK12wxStringBase5c_strEv,"axG",@progbits,_ZNK12wxStringBase5c_strEv,comdat
	.align 2
	.weak	_ZNK12wxStringBase5c_strEv
	.type	_ZNK12wxStringBase5c_strEv, @function
_ZNK12wxStringBase5c_strEv:
.LFB2079:
	.cfi_startproc
	.cfi_personality 0x3,__gxx_personality_v0
	pushq	%rbp	#
	.cfi_def_cfa_offset 16
	movq	%rsp, %rbp	#,
	.cfi_offset 6, -16
	.cfi_def_cfa_register 6
	movq	%rdi, -8(%rbp)	# this, this
	movq	-8(%rbp), %rax	# this, tmp60
	movq	(%rax), %rax	# <variable>.m_pchData, D.41706
	leave
	ret
	.cfi_endproc
.LFE2079:
	.size	_ZNK12wxStringBase5c_strEv, .-_ZNK12wxStringBase5c_strEv
	.section	.text._ZN8wxStringC1Ev,"axG",@progbits,_ZN8wxStringC1Ev,comdat
	.align 2
	.weak	_ZN8wxStringC1Ev
	.type	_ZN8wxStringC1Ev, @function
_ZN8wxStringC1Ev:
.LFB2098:
	.cfi_startproc
	.cfi_personality 0x3,__gxx_personality_v0
	pushq	%rbp	#
	.cfi_def_cfa_offset 16
	movq	%rsp, %rbp	#,
	.cfi_offset 6, -16
	.cfi_def_cfa_register 6
	subq	$16, %rsp	#,
	movq	%rdi, -8(%rbp)	# this, this
	movq	-8(%rbp), %rax	# this, D.42514
	movq	%rax, %rdi	# D.42514,
	call	_ZN12wxStringBaseC2Ev	#
	leave
	ret
	.cfi_endproc
.LFE2098:
	.size	_ZN8wxStringC1Ev, .-_ZN8wxStringC1Ev
	.section	.text._ZN8wxStringD1Ev,"axG",@progbits,_ZN8wxStringD1Ev,comdat
	.align 2
	.weak	_ZN8wxStringD1Ev
	.type	_ZN8wxStringD1Ev, @function
_ZN8wxStringD1Ev:
.LFB2133:
	.cfi_startproc
	.cfi_personality 0x3,__gxx_personality_v0
	pushq	%rbp	#
	.cfi_def_cfa_offset 16
	movq	%rsp, %rbp	#,
	.cfi_offset 6, -16
	.cfi_def_cfa_register 6
	subq	$16, %rsp	#,
	movq	%rdi, -8(%rbp)	# this, this
	movq	-8(%rbp), %rax	# this, this.208
	movq	%rax, %rdi	# this.208,
	call	_ZN12wxStringBaseD2Ev	#
	leave
	ret
	.cfi_endproc
.LFE2133:
	.size	_ZN8wxStringD1Ev, .-_ZN8wxStringD1Ev
	.section	.text._ZNK8wxStringcvPKwEv,"axG",@progbits,_ZNK8wxStringcvPKwEv,comdat
	.align 2
	.weak	_ZNK8wxStringcvPKwEv
	.type	_ZNK8wxStringcvPKwEv, @function
_ZNK8wxStringcvPKwEv:
.LFB2142:
	.cfi_startproc
	.cfi_personality 0x3,__gxx_personality_v0
	pushq	%rbp	#
	.cfi_def_cfa_offset 16
	movq	%rsp, %rbp	#,
	.cfi_offset 6, -16
	.cfi_def_cfa_register 6
	subq	$16, %rsp	#,
	movq	%rdi, -8(%rbp)	# this, this
	movq	-8(%rbp), %rax	# this, D.42714
	movq	%rax, %rdi	# D.42714,
	call	_ZNK12wxStringBase5c_strEv	#
	leave
	ret
	.cfi_endproc
.LFE2142:
	.size	_ZNK8wxStringcvPKwEv, .-_ZNK8wxStringcvPKwEv
	.section	.text._ZN8wxString8FromUTF8EPKc,"axG",@progbits,_ZN8wxString8FromUTF8EPKc,comdat
	.weak	_ZN8wxString8FromUTF8EPKc
	.type	_ZN8wxString8FromUTF8EPKc, @function
_ZN8wxString8FromUTF8EPKc:
.LFB2159:
	.cfi_startproc
	.cfi_personality 0x3,__gxx_personality_v0
	pushq	%rbp	#
	.cfi_def_cfa_offset 16
	movq	%rsp, %rbp	#,
	.cfi_offset 6, -16
	.cfi_def_cfa_register 6
	pushq	%rbx	#
	subq	$24, %rsp	#,
	movq	%rdi, %rbx	# D.181364, <result>
	.cfi_offset 3, -24
	movq	%rsi, -24(%rbp)	# utf8, utf8
	movq	%rbx, %rax	# <result>, D.42820
	movq	_ZN12wxStringBase4nposE(%rip), %rcx	# npos, npos.215
	movq	wxConvUTF8(%rip), %rdx	# wxConvUTF8, wxConvUTF8.216
	movq	-24(%rbp), %rsi	# utf8, tmp63
	movq	%rax, %rdi	# D.42820,
	call	_ZN8wxStringC1EPKcRK8wxMBConvm	#
	movq	%rbx, %rax	# <result>,
	movq	%rbx, %rax	# <result>,
	addq	$24, %rsp	#,
	popq	%rbx	#
	leave
	ret
	.cfi_endproc
.LFE2159:
	.size	_ZN8wxString8FromUTF8EPKc, .-_ZN8wxString8FromUTF8EPKc
	.section	.text._ZN8wxThread6OnExitEv,"axG",@progbits,_ZN8wxThread6OnExitEv,comdat
	.align 2
	.weak	_ZN8wxThread6OnExitEv
	.type	_ZN8wxThread6OnExitEv, @function
_ZN8wxThread6OnExitEv:
.LFB3774:
	.cfi_startproc
	.cfi_personality 0x3,__gxx_personality_v0
	pushq	%rbp	#
	.cfi_def_cfa_offset 16
	movq	%rsp, %rbp	#,
	.cfi_offset 6, -16
	.cfi_def_cfa_register 6
	movq	%rdi, -8(%rbp)	# this, this
	leave
	ret
	.cfi_endproc
.LFE3774:
	.size	_ZN8wxThread6OnExitEv, .-_ZN8wxThread6OnExitEv
	.section	.text._ZN20wxThreadHelperThread5EntryEv,"axG",@progbits,_ZN20wxThreadHelperThread5EntryEv,comdat
	.align 2
	.weak	_ZN20wxThreadHelperThread5EntryEv
	.type	_ZN20wxThreadHelperThread5EntryEv, @function
_ZN20wxThreadHelperThread5EntryEv:
.LFB3788:
	.cfi_startproc
	.cfi_personality 0x3,__gxx_personality_v0
	pushq	%rbp	#
	.cfi_def_cfa_offset 16
	movq	%rsp, %rbp	#,
	.cfi_offset 6, -16
	.cfi_def_cfa_register 6
	subq	$16, %rsp	#,
	movq	%rdi, -8(%rbp)	# this, this
	movq	-8(%rbp), %rax	# this, tmp68
	movq	32(%rax), %rax	# <variable>.m_owner, D.58292
	movq	(%rax), %rax	# <variable>._vptr.wxThreadHelper, D.58293
	addq	$16, %rax	#, D.58294
	movq	(%rax), %rdx	#* D.58294, D.58295
	movq	-8(%rbp), %rax	# this, tmp69
	movq	32(%rax), %rax	# <variable>.m_owner, D.58296
	movq	%rax, %rdi	# D.58296,
	call	*%rdx	# D.58295
	leave
	ret
	.cfi_endproc
.LFE3788:
	.size	_ZN20wxThreadHelperThread5EntryEv, .-_ZN20wxThreadHelperThread5EntryEv
	.section	.text._ZN12wxPoint2DIntC1Eii,"axG",@progbits,_ZN12wxPoint2DIntC1Eii,comdat
	.align 2
	.weak	_ZN12wxPoint2DIntC1Eii
	.type	_ZN12wxPoint2DIntC1Eii, @function
_ZN12wxPoint2DIntC1Eii:
.LFB6850:
	.cfi_startproc
	.cfi_personality 0x3,__gxx_personality_v0
	pushq	%rbp	#
	.cfi_def_cfa_offset 16
	movq	%rsp, %rbp	#,
	.cfi_offset 6, -16
	.cfi_def_cfa_register 6
	movq	%rdi, -8(%rbp)	# this, this
	movl	%esi, -12(%rbp)	# x, x
	movl	%edx, -16(%rbp)	# y, y
	movq	-8(%rbp), %rax	# this, tmp58
	movl	-12(%rbp), %edx	# x, tmp59
	movl	%edx, (%rax)	# tmp59, <variable>.m_x
	movq	-8(%rbp), %rax	# this, tmp60
	movl	-16(%rbp), %edx	# y, tmp61
	movl	%edx, 4(%rax)	# tmp61, <variable>.m_y
	leave
	ret
	.cfi_endproc
.LFE6850:
	.size	_ZN12wxPoint2DIntC1Eii, .-_ZN12wxPoint2DIntC1Eii
	.section	.text._ZN12wxPoint2DIntC1ERKS_,"axG",@progbits,_ZN12wxPoint2DIntC1ERKS_,comdat
	.align 2
	.weak	_ZN12wxPoint2DIntC1ERKS_
	.type	_ZN12wxPoint2DIntC1ERKS_, @function
_ZN12wxPoint2DIntC1ERKS_:
.LFB6853:
	.cfi_startproc
	.cfi_personality 0x3,__gxx_personality_v0
	pushq	%rbp	#
	.cfi_def_cfa_offset 16
	movq	%rsp, %rbp	#,
	.cfi_offset 6, -16
	.cfi_def_cfa_register 6
	movq	%rdi, -8(%rbp)	# this, this
	movq	%rsi, -16(%rbp)	# pt, pt
	movq	-16(%rbp), %rax	# pt, tmp60
	movl	(%rax), %edx	# <variable>.m_x, D.92581
	movq	-8(%rbp), %rax	# this, tmp61
	movl	%edx, (%rax)	# D.92581, <variable>.m_x
	movq	-16(%rbp), %rax	# pt, tmp62
	movl	4(%rax), %edx	# <variable>.m_y, D.92582
	movq	-8(%rbp), %rax	# this, tmp63
	movl	%edx, 4(%rax)	# D.92582, <variable>.m_y
	leave
	ret
	.cfi_endproc
.LFE6853:
	.size	_ZN12wxPoint2DIntC1ERKS_, .-_ZN12wxPoint2DIntC1ERKS_
	.section	.text._ZNK11wxRect2DInt10GetLeftTopEv,"axG",@progbits,_ZNK11wxRect2DInt10GetLeftTopEv,comdat
	.align 2
	.weak	_ZNK11wxRect2DInt10GetLeftTopEv
	.type	_ZNK11wxRect2DInt10GetLeftTopEv, @function
_ZNK11wxRect2DInt10GetLeftTopEv:
.LFB7003:
	.cfi_startproc
	.cfi_personality 0x3,__gxx_personality_v0
	pushq	%rbp	#
	.cfi_def_cfa_offset 16
	movq	%rsp, %rbp	#,
	.cfi_offset 6, -16
	.cfi_def_cfa_register 6
	pushq	%rbx	#
	subq	$24, %rsp	#,
	movq	%rdi, %rbx	# D.181365, <result>
	.cfi_offset 3, -24
	movq	%rsi, -24(%rbp)	# this, this
	movq	%rbx, %rax	# <result>, D.94367
	movq	-24(%rbp), %rdx	# this, tmp62
	movl	4(%rdx), %edx	# <variable>.m_y, D.94368
	movq	-24(%rbp), %rcx	# this, tmp63
	movl	(%rcx), %ecx	# <variable>.m_x, D.94369
	movl	%ecx, %esi	# D.94369,
	movq	%rax, %rdi	# D.94367,
	call	_ZN12wxPoint2DIntC1Eii	#
	movq	%rbx, %rax	# <result>,
	movq	%rbx, %rax	# <result>,
	addq	$24, %rsp	#,
	popq	%rbx	#
	leave
	ret
	.cfi_endproc
.LFE7003:
	.size	_ZNK11wxRect2DInt10GetLeftTopEv, .-_ZNK11wxRect2DInt10GetLeftTopEv
	.section	.text._ZNK11wxRect2DInt14GetRightBottomEv,"axG",@progbits,_ZNK11wxRect2DInt14GetRightBottomEv,comdat
	.align 2
	.weak	_ZNK11wxRect2DInt14GetRightBottomEv
	.type	_ZNK11wxRect2DInt14GetRightBottomEv, @function
_ZNK11wxRect2DInt14GetRightBottomEv:
.LFB7012:
	.cfi_startproc
	.cfi_personality 0x3,__gxx_personality_v0
	pushq	%rbp	#
	.cfi_def_cfa_offset 16
	movq	%rsp, %rbp	#,
	.cfi_offset 6, -16
	.cfi_def_cfa_register 6
	pushq	%rbx	#
	subq	$24, %rsp	#,
	movq	%rdi, %rbx	# D.181366, <result>
	.cfi_offset 3, -24
	movq	%rsi, -24(%rbp)	# this, this
	movq	%rbx, %rax	# <result>, D.94443
	movq	-24(%rbp), %rdx	# this, tmp66
	movl	4(%rdx), %ecx	# <variable>.m_y, D.94444
	movq	-24(%rbp), %rdx	# this, tmp67
	movl	12(%rdx), %edx	# <variable>.m_height, D.94445
	leal	(%rcx,%rdx), %esi	#, D.94446
	movq	-24(%rbp), %rdx	# this, tmp68
	movl	(%rdx), %ecx	# <variable>.m_x, D.94447
	movq	-24(%rbp), %rdx	# this, tmp69
	movl	8(%rdx), %edx	# <variable>.m_width, D.94448
	addl	%edx, %ecx	# D.94448, D.94449
	movl	%esi, %edx	# D.94446,
	movl	%ecx, %esi	# D.94449,
	movq	%rax, %rdi	# D.94443,
	call	_ZN12wxPoint2DIntC1Eii	#
	movq	%rbx, %rax	# <result>,
	movq	%rbx, %rax	# <result>,
	addq	$24, %rsp	#,
	popq	%rbx	#
	leave
	ret
	.cfi_endproc
.LFE7012:
	.size	_ZNK11wxRect2DInt14GetRightBottomEv, .-_ZNK11wxRect2DInt14GetRightBottomEv
	.section	.text._ZN11wxRect2DIntC1ERKS_,"axG",@progbits,_ZN11wxRect2DIntC1ERKS_,comdat
	.align 2
	.weak	_ZN11wxRect2DIntC1ERKS_
	.type	_ZN11wxRect2DIntC1ERKS_, @function
_ZN11wxRect2DIntC1ERKS_:
.LFB7036:
	.cfi_startproc
	.cfi_personality 0x3,__gxx_personality_v0
	pushq	%rbp	#
	.cfi_def_cfa_offset 16
	movq	%rsp, %rbp	#,
	.cfi_offset 6, -16
	.cfi_def_cfa_register 6
	movq	%rdi, -8(%rbp)	# this, this
	movq	%rsi, -16(%rbp)	# r, r
	movq	-16(%rbp), %rax	# r, tmp62
	movl	(%rax), %edx	# <variable>.m_x, D.94677
	movq	-8(%rbp), %rax	# this, tmp63
	movl	%edx, (%rax)	# D.94677, <variable>.m_x
	movq	-16(%rbp), %rax	# r, tmp64
	movl	4(%rax), %edx	# <variable>.m_y, D.94678
	movq	-8(%rbp), %rax	# this, tmp65
	movl	%edx, 4(%rax)	# D.94678, <variable>.m_y
	movq	-16(%rbp), %rax	# r, tmp66
	movl	8(%rax), %edx	# <variable>.m_width, D.94679
	movq	-8(%rbp), %rax	# this, tmp67
	movl	%edx, 8(%rax)	# D.94679, <variable>.m_width
	movq	-16(%rbp), %rax	# r, tmp68
	movl	12(%rax), %edx	# <variable>.m_height, D.94680
	movq	-8(%rbp), %rax	# this, tmp69
	movl	%edx, 12(%rax)	# D.94680, <variable>.m_height
	leave
	ret
	.cfi_endproc
.LFE7036:
	.size	_ZN11wxRect2DIntC1ERKS_, .-_ZN11wxRect2DIntC1ERKS_
	.section	.text._ZN11wxRect2DIntC1ERK12wxPoint2DIntS2_,"axG",@progbits,_ZN11wxRect2DIntC1ERK12wxPoint2DIntS2_,comdat
	.align 2
	.weak	_ZN11wxRect2DIntC1ERK12wxPoint2DIntS2_
	.type	_ZN11wxRect2DIntC1ERK12wxPoint2DIntS2_, @function
_ZN11wxRect2DIntC1ERK12wxPoint2DIntS2_:
.LFB7039:
	.cfi_startproc
	.cfi_personality 0x3,__gxx_personality_v0
	pushq	%rbp	#
	.cfi_def_cfa_offset 16
	movq	%rsp, %rbp	#,
	.cfi_offset 6, -16
	.cfi_def_cfa_register 6
	movq	%rdi, -8(%rbp)	# this, this
	movq	%rsi, -16(%rbp)	# a, a
	movq	%rdx, -24(%rbp)	# b, b
	movq	-16(%rbp), %rax	# a, tmp72
	movl	(%rax), %edx	# <variable>.m_x, D.94728
	movq	-24(%rbp), %rax	# b, tmp73
	movl	(%rax), %eax	# <variable>.m_x, D.94729
	cmpl	%eax, %edx	# D.94729, D.94728
	jge	.L69	#,
	movq	-16(%rbp), %rax	# a, tmp74
	movl	(%rax), %eax	# <variable>.m_x, iftmp.1123
	jmp	.L70	#
.L69:
	movq	-24(%rbp), %rax	# b, tmp75
	movl	(%rax), %eax	# <variable>.m_x, iftmp.1123
.L70:
	movq	-8(%rbp), %rdx	# this, tmp76
	movl	%eax, (%rdx)	# iftmp.1123, <variable>.m_x
	movq	-16(%rbp), %rax	# a, tmp77
	movl	4(%rax), %edx	# <variable>.m_y, D.94734
	movq	-24(%rbp), %rax	# b, tmp78
	movl	4(%rax), %eax	# <variable>.m_y, D.94735
	cmpl	%eax, %edx	# D.94735, D.94734
	jge	.L71	#,
	movq	-16(%rbp), %rax	# a, tmp79
	movl	4(%rax), %eax	# <variable>.m_y, iftmp.1124
	jmp	.L72	#
.L71:
	movq	-24(%rbp), %rax	# b, tmp80
	movl	4(%rax), %eax	# <variable>.m_y, iftmp.1124
.L72:
	movq	-8(%rbp), %rdx	# this, tmp81
	movl	%eax, 4(%rdx)	# iftmp.1124, <variable>.m_y
	movq	-16(%rbp), %rax	# a, tmp82
	movl	(%rax), %edx	# <variable>.m_x, D.94740
	movq	-24(%rbp), %rax	# b, tmp83
	movl	(%rax), %eax	# <variable>.m_x, D.94741
	movl	%edx, %ecx	# D.94740,
	subl	%eax, %ecx	# D.94741,
	movl	%ecx, %eax	#, D.94742
	movl	%eax, %edx	# D.94742, tmp84
	sarl	$31, %edx	#, tmp84
	xorl	%edx, %eax	# tmp84, D.94743
	subl	%edx, %eax	# tmp84, D.94743
	movq	-8(%rbp), %rdx	# this, tmp85
	movl	%eax, 8(%rdx)	# D.94743, <variable>.m_width
	movq	-16(%rbp), %rax	# a, tmp86
	movl	4(%rax), %edx	# <variable>.m_y, D.94744
	movq	-24(%rbp), %rax	# b, tmp87
	movl	4(%rax), %eax	# <variable>.m_y, D.94745
	movl	%edx, %ecx	# D.94744,
	subl	%eax, %ecx	# D.94745,
	movl	%ecx, %eax	#, D.94746
	movl	%eax, %edx	# D.94746, tmp88
	sarl	$31, %edx	#, tmp88
	xorl	%edx, %eax	# tmp88, D.94747
	subl	%edx, %eax	# tmp88, D.94747
	movq	-8(%rbp), %rdx	# this, tmp89
	movl	%eax, 12(%rdx)	# D.94747, <variable>.m_height
	leave
	ret
	.cfi_endproc
.LFE7039:
	.size	_ZN11wxRect2DIntC1ERK12wxPoint2DIntS2_, .-_ZN11wxRect2DIntC1ERK12wxPoint2DIntS2_
	.section	.text._ZN13wxTransform2DD1Ev,"axG",@progbits,_ZN13wxTransform2DD1Ev,comdat
	.align 2
	.weak	_ZN13wxTransform2DD1Ev
	.type	_ZN13wxTransform2DD1Ev, @function
_ZN13wxTransform2DD1Ev:
.LFB7047:
	.cfi_startproc
	.cfi_personality 0x3,__gxx_personality_v0
	pushq	%rbp	#
	.cfi_def_cfa_offset 16
	movq	%rsp, %rbp	#,
	.cfi_offset 6, -16
	.cfi_def_cfa_register 6
	subq	$16, %rsp	#,
	movq	%rdi, -8(%rbp)	# this, this
	movq	-8(%rbp), %rax	# this, tmp60
	movq	$_ZTV13wxTransform2D+16, (%rax)	#, <variable>._vptr.wxTransform2D
	movl	$0, %eax	#, D.94853
	testb	%al, %al	# D.94854
	je	.L77	#,
	movq	-8(%rbp), %rax	# this, tmp61
	movq	%rax, %rdi	# tmp61,
	call	_ZdlPv	#
.L77:
	leave
	ret
	.cfi_endproc
.LFE7047:
	.size	_ZN13wxTransform2DD1Ev, .-_ZN13wxTransform2DD1Ev
	.section	.text._ZN13wxTransform2DD0Ev,"axG",@progbits,_ZN13wxTransform2DD0Ev,comdat
	.align 2
	.weak	_ZN13wxTransform2DD0Ev
	.type	_ZN13wxTransform2DD0Ev, @function
_ZN13wxTransform2DD0Ev:
.LFB7048:
	.cfi_startproc
	.cfi_personality 0x3,__gxx_personality_v0
	pushq	%rbp	#
	.cfi_def_cfa_offset 16
	movq	%rsp, %rbp	#,
	.cfi_offset 6, -16
	.cfi_def_cfa_register 6
	subq	$16, %rsp	#,
	movq	%rdi, -8(%rbp)	# this, this
	movq	-8(%rbp), %rax	# this, tmp60
	movq	$_ZTV13wxTransform2D+16, (%rax)	#, <variable>._vptr.wxTransform2D
	movl	$1, %eax	#, D.94861
	testb	%al, %al	# D.94862
	je	.L81	#,
	movq	-8(%rbp), %rax	# this, tmp61
	movq	%rax, %rdi	# tmp61,
	call	_ZdlPv	#
.L81:
	leave
	ret
	.cfi_endproc
.LFE7048:
	.size	_ZN13wxTransform2DD0Ev, .-_ZN13wxTransform2DD0Ev
	.section	.text._ZNK13wxTransform2D9TransformEP11wxRect2DInt,"axG",@progbits,_ZNK13wxTransform2D9TransformEP11wxRect2DInt,comdat
	.align 2
	.weak	_ZNK13wxTransform2D9TransformEP11wxRect2DInt
	.type	_ZNK13wxTransform2D9TransformEP11wxRect2DInt, @function
_ZNK13wxTransform2D9TransformEP11wxRect2DInt:
.LFB7049:
	.cfi_startproc
	.cfi_personality 0x3,__gxx_personality_v0
	pushq	%rbp	#
	.cfi_def_cfa_offset 16
	movq	%rsp, %rbp	#,
	.cfi_offset 6, -16
	.cfi_def_cfa_register 6
	subq	$64, %rsp	#,
	movq	%rdi, -56(%rbp)	# this, this
	movq	%rsi, -64(%rbp)	# r, r
	leaq	-32(%rbp), %rax	#, tmp64
	movq	-64(%rbp), %rdx	# r, tmp65
	movq	%rdx, %rsi	# tmp65,
	movq	%rax, %rdi	# tmp64,
	call	_ZNK11wxRect2DInt10GetLeftTopEv	#
	leaq	-48(%rbp), %rax	#, tmp66
	movq	-64(%rbp), %rdx	# r, tmp67
	movq	%rdx, %rsi	# tmp67,
	movq	%rax, %rdi	# tmp66,
	call	_ZNK11wxRect2DInt14GetRightBottomEv	#
	movq	-56(%rbp), %rax	# this, tmp68
	movq	(%rax), %rax	# <variable>._vptr.wxTransform2D, D.94875
	addq	$16, %rax	#, D.94876
	movq	(%rax), %rcx	#* D.94876, D.94877
	leaq	-32(%rbp), %rdx	#, tmp69
	movq	-56(%rbp), %rax	# this, tmp70
	movq	%rdx, %rsi	# tmp69,
	movq	%rax, %rdi	# tmp70,
	call	*%rcx	# D.94877
	movq	-56(%rbp), %rax	# this, tmp71
	movq	(%rax), %rax	# <variable>._vptr.wxTransform2D, D.94878
	addq	$16, %rax	#, D.94879
	movq	(%rax), %rcx	#* D.94879, D.94880
	leaq	-48(%rbp), %rdx	#, tmp72
	movq	-56(%rbp), %rax	# this, tmp73
	movq	%rdx, %rsi	# tmp72,
	movq	%rax, %rdi	# tmp73,
	call	*%rcx	# D.94880
	leaq	-48(%rbp), %rdx	#, tmp74
	leaq	-32(%rbp), %rcx	#, tmp75
	leaq	-16(%rbp), %rax	#, tmp76
	movq	%rcx, %rsi	# tmp75,
	movq	%rax, %rdi	# tmp76,
	call	_ZN11wxRect2DIntC1ERK12wxPoint2DIntS2_	#
	leaq	-16(%rbp), %rdx	#, tmp77
	movq	-64(%rbp), %rax	# r, tmp78
	movq	%rdx, %rsi	# tmp77,
	movq	%rax, %rdi	# tmp78,
	call	_ZN11wxRect2DIntaSERKS_	#
	leave
	ret
	.cfi_endproc
.LFE7049:
	.size	_ZNK13wxTransform2D9TransformEP11wxRect2DInt, .-_ZNK13wxTransform2D9TransformEP11wxRect2DInt
	.section	.text._ZNK13wxTransform2D9TransformERK12wxPoint2DInt,"axG",@progbits,_ZNK13wxTransform2D9TransformERK12wxPoint2DInt,comdat
	.align 2
	.weak	_ZNK13wxTransform2D9TransformERK12wxPoint2DInt
	.type	_ZNK13wxTransform2D9TransformERK12wxPoint2DInt, @function
_ZNK13wxTransform2D9TransformERK12wxPoint2DInt:
.LFB7050:
	.cfi_startproc
	.cfi_personality 0x3,__gxx_personality_v0
	pushq	%rbp	#
	.cfi_def_cfa_offset 16
	movq	%rsp, %rbp	#,
	.cfi_offset 6, -16
	.cfi_def_cfa_register 6
	pushq	%rbx	#
	subq	$40, %rsp	#,
	movq	%rdi, %rbx	# D.181369, <result>
	.cfi_offset 3, -24
	movq	%rsi, -40(%rbp)	# this, this
	movq	%rdx, -48(%rbp)	# pt, pt
	movq	%rbx, %rax	# <result>, res.1126
	movq	-48(%rbp), %rdx	# pt, tmp64
	movq	%rdx, %rsi	# tmp64,
	movq	%rax, %rdi	# res.1126,
	call	_ZN12wxPoint2DIntC1ERKS_	#
	movq	-40(%rbp), %rax	# this, tmp65
	movq	(%rax), %rax	# <variable>._vptr.wxTransform2D, D.94890
	addq	$16, %rax	#, D.94891
	movq	(%rax), %rcx	#* D.94891, D.94892
	movq	%rbx, %rdx	# <result>, res.1127
	movq	-40(%rbp), %rax	# this, tmp66
	movq	%rdx, %rsi	# res.1127,
	movq	%rax, %rdi	# tmp66,
	call	*%rcx	# D.94892
	movq	%rbx, %rax	# <result>,
	movq	%rbx, %rax	# <result>,
	addq	$40, %rsp	#,
	popq	%rbx	#
	leave
	ret
	.cfi_endproc
.LFE7050:
	.size	_ZNK13wxTransform2D9TransformERK12wxPoint2DInt, .-_ZNK13wxTransform2D9TransformERK12wxPoint2DInt
	.section	.text._ZNK13wxTransform2D9TransformERK11wxRect2DInt,"axG",@progbits,_ZNK13wxTransform2D9TransformERK11wxRect2DInt,comdat
	.align 2
	.weak	_ZNK13wxTransform2D9TransformERK11wxRect2DInt
	.type	_ZNK13wxTransform2D9TransformERK11wxRect2DInt, @function
_ZNK13wxTransform2D9TransformERK11wxRect2DInt:
.LFB7051:
	.cfi_startproc
	.cfi_personality 0x3,__gxx_personality_v0
	pushq	%rbp	#
	.cfi_def_cfa_offset 16
	movq	%rsp, %rbp	#,
	.cfi_offset 6, -16
	.cfi_def_cfa_register 6
	pushq	%rbx	#
	subq	$40, %rsp	#,
	movq	%rdi, %rbx	# D.181370, <result>
	.cfi_offset 3, -24
	movq	%rsi, -40(%rbp)	# this, this
	movq	%rdx, -48(%rbp)	# r, r
	movq	%rbx, %rax	# <result>, res.1128
	movq	-48(%rbp), %rdx	# r, tmp64
	movq	%rdx, %rsi	# tmp64,
	movq	%rax, %rdi	# res.1128,
	call	_ZN11wxRect2DIntC1ERKS_	#
	movq	-40(%rbp), %rax	# this, tmp65
	movq	(%rax), %rax	# <variable>._vptr.wxTransform2D, D.94903
	addq	$24, %rax	#, D.94904
	movq	(%rax), %rcx	#* D.94904, D.94905
	movq	%rbx, %rdx	# <result>, res.1129
	movq	-40(%rbp), %rax	# this, tmp66
	movq	%rdx, %rsi	# res.1129,
	movq	%rax, %rdi	# tmp66,
	call	*%rcx	# D.94905
	movq	%rbx, %rax	# <result>,
	movq	%rbx, %rax	# <result>,
	addq	$40, %rsp	#,
	popq	%rbx	#
	leave
	ret
	.cfi_endproc
.LFE7051:
	.size	_ZNK13wxTransform2D9TransformERK11wxRect2DInt, .-_ZNK13wxTransform2D9TransformERK11wxRect2DInt
	.section	.text._ZNK13wxTransform2D16InverseTransformEP11wxRect2DInt,"axG",@progbits,_ZNK13wxTransform2D16InverseTransformEP11wxRect2DInt,comdat
	.align 2
	.weak	_ZNK13wxTransform2D16InverseTransformEP11wxRect2DInt
	.type	_ZNK13wxTransform2D16InverseTransformEP11wxRect2DInt, @function
_ZNK13wxTransform2D16InverseTransformEP11wxRect2DInt:
.LFB7052:
	.cfi_startproc
	.cfi_personality 0x3,__gxx_personality_v0
	pushq	%rbp	#
	.cfi_def_cfa_offset 16
	movq	%rsp, %rbp	#,
	.cfi_offset 6, -16
	.cfi_def_cfa_register 6
	subq	$64, %rsp	#,
	movq	%rdi, -56(%rbp)	# this, this
	movq	%rsi, -64(%rbp)	# r, r
	leaq	-32(%rbp), %rax	#, tmp64
	movq	-64(%rbp), %rdx	# r, tmp65
	movq	%rdx, %rsi	# tmp65,
	movq	%rax, %rdi	# tmp64,
	call	_ZNK11wxRect2DInt10GetLeftTopEv	#
	leaq	-48(%rbp), %rax	#, tmp66
	movq	-64(%rbp), %rdx	# r, tmp67
	movq	%rdx, %rsi	# tmp67,
	movq	%rax, %rdi	# tmp66,
	call	_ZNK11wxRect2DInt14GetRightBottomEv	#
	movq	-56(%rbp), %rax	# this, tmp68
	movq	(%rax), %rax	# <variable>._vptr.wxTransform2D, D.94916
	addq	$48, %rax	#, D.94917
	movq	(%rax), %rcx	#* D.94917, D.94918
	leaq	-32(%rbp), %rdx	#, tmp69
	movq	-56(%rbp), %rax	# this, tmp70
	movq	%rdx, %rsi	# tmp69,
	movq	%rax, %rdi	# tmp70,
	call	*%rcx	# D.94918
	movq	-56(%rbp), %rax	# this, tmp71
	movq	(%rax), %rax	# <variable>._vptr.wxTransform2D, D.94919
	addq	$48, %rax	#, D.94920
	movq	(%rax), %rcx	#* D.94920, D.94921
	leaq	-48(%rbp), %rdx	#, tmp72
	movq	-56(%rbp), %rax	# this, tmp73
	movq	%rdx, %rsi	# tmp72,
	movq	%rax, %rdi	# tmp73,
	call	*%rcx	# D.94921
	leaq	-48(%rbp), %rdx	#, tmp74
	leaq	-32(%rbp), %rcx	#, tmp75
	leaq	-16(%rbp), %rax	#, tmp76
	movq	%rcx, %rsi	# tmp75,
	movq	%rax, %rdi	# tmp76,
	call	_ZN11wxRect2DIntC1ERK12wxPoint2DIntS2_	#
	leaq	-16(%rbp), %rdx	#, tmp77
	movq	-64(%rbp), %rax	# r, tmp78
	movq	%rdx, %rsi	# tmp77,
	movq	%rax, %rdi	# tmp78,
	call	_ZN11wxRect2DIntaSERKS_	#
	leave
	ret
	.cfi_endproc
.LFE7052:
	.size	_ZNK13wxTransform2D16InverseTransformEP11wxRect2DInt, .-_ZNK13wxTransform2D16InverseTransformEP11wxRect2DInt
	.section	.text._ZNK13wxTransform2D16InverseTransformERK12wxPoint2DInt,"axG",@progbits,_ZNK13wxTransform2D16InverseTransformERK12wxPoint2DInt,comdat
	.align 2
	.weak	_ZNK13wxTransform2D16InverseTransformERK12wxPoint2DInt
	.type	_ZNK13wxTransform2D16InverseTransformERK12wxPoint2DInt, @function
_ZNK13wxTransform2D16InverseTransformERK12wxPoint2DInt:
.LFB7053:
	.cfi_startproc
	.cfi_personality 0x3,__gxx_personality_v0
	pushq	%rbp	#
	.cfi_def_cfa_offset 16
	movq	%rsp, %rbp	#,
	.cfi_offset 6, -16
	.cfi_def_cfa_register 6
	pushq	%rbx	#
	subq	$40, %rsp	#,
	movq	%rdi, %rbx	# D.181373, <result>
	.cfi_offset 3, -24
	movq	%rsi, -40(%rbp)	# this, this
	movq	%rdx, -48(%rbp)	# pt, pt
	movq	%rbx, %rax	# <result>, res.1130
	movq	-48(%rbp), %rdx	# pt, tmp64
	movq	%rdx, %rsi	# tmp64,
	movq	%rax, %rdi	# res.1130,
	call	_ZN12wxPoint2DIntC1ERKS_	#
	movq	-40(%rbp), %rax	# this, tmp65
	movq	(%rax), %rax	# <variable>._vptr.wxTransform2D, D.94931
	addq	$48, %rax	#, D.94932
	movq	(%rax), %rcx	#* D.94932, D.94933
	movq	%rbx, %rdx	# <result>, res.1131
	movq	-40(%rbp), %rax	# this, tmp66
	movq	%rdx, %rsi	# res.1131,
	movq	%rax, %rdi	# tmp66,
	call	*%rcx	# D.94933
	movq	%rbx, %rax	# <result>,
	movq	%rbx, %rax	# <result>,
	addq	$40, %rsp	#,
	popq	%rbx	#
	leave
	ret
	.cfi_endproc
.LFE7053:
	.size	_ZNK13wxTransform2D16InverseTransformERK12wxPoint2DInt, .-_ZNK13wxTransform2D16InverseTransformERK12wxPoint2DInt
	.section	.text._ZNK13wxTransform2D16InverseTransformERK11wxRect2DInt,"axG",@progbits,_ZNK13wxTransform2D16InverseTransformERK11wxRect2DInt,comdat
	.align 2
	.weak	_ZNK13wxTransform2D16InverseTransformERK11wxRect2DInt
	.type	_ZNK13wxTransform2D16InverseTransformERK11wxRect2DInt, @function
_ZNK13wxTransform2D16InverseTransformERK11wxRect2DInt:
.LFB7054:
	.cfi_startproc
	.cfi_personality 0x3,__gxx_personality_v0
	pushq	%rbp	#
	.cfi_def_cfa_offset 16
	movq	%rsp, %rbp	#,
	.cfi_offset 6, -16
	.cfi_def_cfa_register 6
	pushq	%rbx	#
	subq	$40, %rsp	#,
	movq	%rdi, %rbx	# D.181374, <result>
	.cfi_offset 3, -24
	movq	%rsi, -40(%rbp)	# this, this
	movq	%rdx, -48(%rbp)	# r, r
	movq	%rbx, %rax	# <result>, res.1132
	movq	-48(%rbp), %rdx	# r, tmp64
	movq	%rdx, %rsi	# tmp64,
	movq	%rax, %rdi	# res.1132,
	call	_ZN11wxRect2DIntC1ERKS_	#
	movq	-40(%rbp), %rax	# this, tmp65
	movq	(%rax), %rax	# <variable>._vptr.wxTransform2D, D.94944
	addq	$56, %rax	#, D.94945
	movq	(%rax), %rcx	#* D.94945, D.94946
	movq	%rbx, %rdx	# <result>, res.1133
	movq	-40(%rbp), %rax	# this, tmp66
	movq	%rdx, %rsi	# res.1133,
	movq	%rax, %rdi	# tmp66,
	call	*%rcx	# D.94946
	movq	%rbx, %rax	# <result>,
	movq	%rbx, %rax	# <result>,
	addq	$40, %rsp	#,
	popq	%rbx	#
	leave
	ret
	.cfi_endproc
.LFE7054:
	.size	_ZNK13wxTransform2D16InverseTransformERK11wxRect2DInt, .-_ZNK13wxTransform2D16InverseTransformERK11wxRect2DInt
	.local	_ZStL8__ioinit
	.comm	_ZStL8__ioinit,1,1
	.text
	.type	_ZL6std2wxRKSs, @function
_ZL6std2wxRKSs:
.LFB11147:
	.cfi_startproc
	.cfi_personality 0x3,__gxx_personality_v0
	pushq	%rbp	#
	.cfi_def_cfa_offset 16
	movq	%rsp, %rbp	#,
	.cfi_offset 6, -16
	.cfi_def_cfa_register 6
	pushq	%r12	#
	pushq	%rbx	#
	subq	$16, %rsp	#,
	movq	%rdi, %rbx	# D.181375, <result>
	.cfi_offset 3, -32
	.cfi_offset 12, -24
	movq	%rsi, -24(%rbp)	# str, str
	movq	%rbx, %r12	# <result>, D.159750
	movq	-24(%rbp), %rax	# str, tmp61
	movq	%rax, %rdi	# tmp61,
	call	_ZNKSs5c_strEv	#
	movq	%rax, %rsi	# D.159751,
	movq	%r12, %rdi	# D.159750,
	call	_ZN8wxString8FromUTF8EPKc	#
	movq	%rbx, %rax	# <result>,
	movq	%rbx, %rax	# <result>,
	addq	$16, %rsp	#,
	popq	%rbx	#
	popq	%r12	#
	leave
	ret
	.cfi_endproc
.LFE11147:
	.size	_ZL6std2wxRKSs, .-_ZL6std2wxRKSs
	.type	_ZL6std2wxPKc, @function
_ZL6std2wxPKc:
.LFB11148:
	.cfi_startproc
	.cfi_personality 0x3,__gxx_personality_v0
	pushq	%rbp	#
	.cfi_def_cfa_offset 16
	movq	%rsp, %rbp	#,
	.cfi_offset 6, -16
	.cfi_def_cfa_register 6
	pushq	%rbx	#
	subq	$24, %rsp	#,
	movq	%rdi, %rbx	# D.181377, <result>
	.cfi_offset 3, -24
	movq	%rsi, -24(%rbp)	# str, str
	movq	%rbx, %rax	# <result>, D.159757
	movq	-24(%rbp), %rdx	# str, tmp60
	movq	%rdx, %rsi	# tmp60,
	movq	%rax, %rdi	# D.159757,
	call	_ZN8wxString8FromUTF8EPKc	#
	movq	%rbx, %rax	# <result>,
	movq	%rbx, %rax	# <result>,
	addq	$24, %rsp	#,
	popq	%rbx	#
	leave
	ret
	.cfi_endproc
.LFE11148:
	.size	_ZL6std2wxPKc, .-_ZL6std2wxPKc
	.section	.text._ZNSt3mapISsS_ISs11LibraryGateSt4lessISsESaISt4pairIKSsS0_EEES2_SaIS3_IS4_S7_EEED1Ev,"axG",@progbits,_ZNSt3mapISsS_ISs11LibraryGateSt4lessISsESaISt4pairIKSsS0_EEES2_SaIS3_IS4_S7_EEED1Ev,comdat
	.align 2
	.weak	_ZNSt3mapISsS_ISs11LibraryGateSt4lessISsESaISt4pairIKSsS0_EEES2_SaIS3_IS4_S7_EEED1Ev
	.type	_ZNSt3mapISsS_ISs11LibraryGateSt4lessISsESaISt4pairIKSsS0_EEES2_SaIS3_IS4_S7_EEED1Ev, @function
_ZNSt3mapISsS_ISs11LibraryGateSt4lessISsESaISt4pairIKSsS0_EEES2_SaIS3_IS4_S7_EEED1Ev:
.LFB11153:
	.cfi_startproc
	.cfi_personality 0x3,__gxx_personality_v0
	pushq	%rbp	#
	.cfi_def_cfa_offset 16
	movq	%rsp, %rbp	#,
	.cfi_offset 6, -16
	.cfi_def_cfa_register 6
	subq	$16, %rsp	#,
	movq	%rdi, -8(%rbp)	# this, this
	movq	-8(%rbp), %rax	# this, D.159800
	movq	%rax, %rdi	# D.159800,
	call	_ZNSt8_Rb_treeISsSt4pairIKSsSt3mapISs11LibraryGateSt4lessISsESaIS0_IS1_S3_EEEESt10_Select1stIS9_ES5_SaIS9_EED1Ev	#
	leave
	ret
	.cfi_endproc
.LFE11153:
	.size	_ZNSt3mapISsS_ISs11LibraryGateSt4lessISsESaISt4pairIKSsS0_EEES2_SaIS3_IS4_S7_EEED1Ev, .-_ZNSt3mapISsS_ISs11LibraryGateSt4lessISsESaISt4pairIKSsS0_EEES2_SaIS3_IS4_S7_EEED1Ev
	.section	.rodata
.LC0:
	.string	"The library file "
.LC1:
	.string	" does not exist."
.LC2:
	.string	"Error - Missing File"
	.text
	.align 2
.globl _ZN12LibraryParseC2ESs
	.type	_ZN12LibraryParseC2ESs, @function
_ZN12LibraryParseC2ESs:
.LFB11154:
	.cfi_startproc
	.cfi_personality 0x3,__gxx_personality_v0
	.cfi_lsda 0x3,.LLSDA11154
	pushq	%rbp	#
	.cfi_def_cfa_offset 16
	movq	%rsp, %rbp	#,
	.cfi_offset 6, -16
	.cfi_def_cfa_register 6
	pushq	%r12	#
	pushq	%rbx	#
	subq	$960, %rsp	#,
	movq	%rdi, -968(%rbp)	# this, this
	movq	%rsi, -976(%rbp)	# fileName, fileName
	movq	-968(%rbp), %rax	# this, D.159932
	movq	%rax, %rdi	# D.159932,
.LEHB3:
	.cfi_offset 3, -32
	.cfi_offset 12, -24
	call	_ZNSsC1Ev	#
.LEHE3:
	movq	-968(%rbp), %rax	# this, tmp91
	addq	$8, %rax	#, D.159933
	movq	%rax, %rdi	# D.159933,
.LEHB4:
	call	_ZNSsC1Ev	#
.LEHE4:
	movq	-968(%rbp), %rax	# this, tmp92
	addq	$16, %rax	#, D.159934
	movq	%rax, %rdi	# D.159934,
.LEHB5:
	call	_ZNSt3mapISsS_ISs11LibraryGateSt4lessISsESaISt4pairIKSsS0_EEES2_SaIS3_IS4_S7_EEEC1Ev	#
.LEHE5:
	movq	-976(%rbp), %rax	# fileName, tmp93
	movq	%rax, %rdi	# tmp93,
.LEHB6:
	call	_ZNKSs5c_strEv	#
	movq	%rax, %rcx	#, D.159935
	leaq	-960(%rbp), %rax	#, tmp94
	movl	$8, %edx	#,
	movq	%rcx, %rsi	# D.159935,
	movq	%rax, %rdi	# tmp94,
	call	_ZNSt13basic_fstreamIcSt11char_traitsIcEEC1EPKcSt13_Ios_Openmode	#
.LEHE6:
	leaq	-960(%rbp), %rax	#, tmp95
	addq	$264, %rax	#, tmp96
	movq	%rax, %rdi	# tmp96,
.LEHB7:
	call	_ZNKSt9basic_iosIcSt11char_traitsIcEEntEv	#
.LEHE7:
	testb	%al, %al	# retval.1923
	je	.L102	#,
	leaq	-80(%rbp), %rax	#, tmp97
	movq	%rax, %rdi	# tmp97,
	call	_ZN8wxStringC1Ev	#
	leaq	-432(%rbp), %rax	#, tmp98
	movl	$16, %esi	#,
	movq	%rax, %rdi	# tmp98,
.LEHB8:
	call	_ZNSt19basic_ostringstreamIcSt11char_traitsIcESaIcEEC1ESt13_Ios_Openmode	#
.LEHE8:
	leaq	-432(%rbp), %rax	#, tmp99
	movl	$.LC0, %esi	#,
	movq	%rax, %rdi	# tmp99,
.LEHB9:
	call	_ZStlsISt11char_traitsIcEERSt13basic_ostreamIcT_ES5_PKc	#
	movq	-976(%rbp), %rdx	# fileName, tmp100
	movq	%rdx, %rsi	# tmp100,
	movq	%rax, %rdi	# D.159943,
	call	_ZStlsIcSt11char_traitsIcESaIcEERSt13basic_ostreamIT_T0_ES7_RKSbIS4_S5_T1_E	#
	movl	$.LC1, %esi	#,
	movq	%rax, %rdi	# D.159944,
	call	_ZStlsISt11char_traitsIcEERSt13basic_ostreamIcT_ES5_PKc	#
	leaq	-48(%rbp), %rax	#, tmp101
	leaq	-432(%rbp), %rdx	#, tmp102
	movq	%rdx, %rsi	# tmp102,
	movq	%rax, %rdi	# tmp101,
	call	_ZNKSt19basic_ostringstreamIcSt11char_traitsIcESaIcEE3strEv	#
.LEHE9:
	leaq	-64(%rbp), %rax	#, tmp103
	leaq	-48(%rbp), %rdx	#, tmp104
	movq	%rdx, %rsi	# tmp104,
	movq	%rax, %rdi	# tmp103,
.LEHB10:
	call	_ZL6std2wxRKSs	#
.LEHE10:
	leaq	-64(%rbp), %rax	#, tmp105
	movq	%rax, %rdi	# tmp105,
	call	_ZNK8wxStringcvPKwEv	#
	movq	%rax, %rdx	#, D.159947
	leaq	-80(%rbp), %rax	#, tmp106
	movq	%rdx, %rsi	# D.159947,
	movq	%rax, %rdi	# tmp106,
	movl	$0, %eax	#,
.LEHB11:
	call	_ZN8wxString6PrintfEPKwz	#
.LEHE11:
	jmp	.L129	#
.L121:
.L104:
	movl	%edx, %ebx	# tmp107, save_filt.3235
	movq	%rax, %r12	# tmp108, save_eptr.3234
	leaq	-64(%rbp), %rax	#, tmp109
	movq	%rax, %rdi	# tmp109,
	call	_ZN8wxStringD1Ev	#
	movq	%r12, %rax	# save_eptr.3234, tmp108
	movslq	%ebx,%rdx	# save_filt.3235, tmp107
	jmp	.L106	#
.L129:
	leaq	-64(%rbp), %rax	#, tmp110
	movq	%rax, %rdi	# tmp110,
	call	_ZN8wxStringD1Ev	#
	leaq	-48(%rbp), %rax	#, tmp112
	movq	%rax, %rdi	# tmp112,
.LEHB12:
	call	_ZNSsD1Ev	#
.LEHE12:
	jmp	.L130	#
.L122:
.L106:
	movl	%edx, %ebx	# tmp107, save_filt.3237
	movq	%rax, %r12	# tmp108, save_eptr.3236
	leaq	-48(%rbp), %rax	#, tmp111
	movq	%rax, %rdi	# tmp111,
	call	_ZNSsD1Ev	#
	movq	%r12, %rax	# save_eptr.3236, tmp108
	movslq	%ebx,%rdx	# save_filt.3237, tmp107
	jmp	.L110	#
.L130:
	leaq	-32(%rbp), %rax	#, tmp113
	movl	$.LC2, %esi	#,
	movq	%rax, %rdi	# tmp113,
.LEHB13:
	call	_ZL6std2wxPKc	#
.LEHE13:
	leaq	-32(%rbp), %rbx	#, tmp114
	leaq	-80(%rbp), %rax	#, tmp115
	movl	$-1, %r9d	#,
	movl	$-1, %r8d	#,
	movl	$0, %ecx	#,
	movl	$516, %edx	#,
	movq	%rbx, %rsi	# tmp114,
	movq	%rax, %rdi	# tmp115,
.LEHB14:
	call	_Z12wxMessageBoxRK8wxStringS1_lP8wxWindowii	#
.LEHE14:
	jmp	.L131	#
.L120:
.L108:
	movl	%edx, %ebx	# tmp107, save_filt.3239
	movq	%rax, %r12	# tmp108, save_eptr.3238
	leaq	-32(%rbp), %rax	#, tmp116
	movq	%rax, %rdi	# tmp116,
	call	_ZN8wxStringD1Ev	#
	movq	%r12, %rax	# save_eptr.3238, tmp108
	movslq	%ebx,%rdx	# save_filt.3239, tmp107
	jmp	.L110	#
.L131:
	leaq	-32(%rbp), %rax	#, tmp117
	movq	%rax, %rdi	# tmp117,
	call	_ZN8wxStringD1Ev	#
	leaq	-432(%rbp), %rax	#, tmp119
	movq	%rax, %rdi	# tmp119,
.LEHB15:
	call	_ZNSt19basic_ostringstreamIcSt11char_traitsIcESaIcEED1Ev	#
.LEHE15:
	jmp	.L132	#
.L123:
.L110:
	movl	%edx, %ebx	# tmp107, save_filt.3241
	movq	%rax, %r12	# tmp108, save_eptr.3240
	leaq	-432(%rbp), %rax	#, tmp118
	movq	%rax, %rdi	# tmp118,
	call	_ZNSt19basic_ostringstreamIcSt11char_traitsIcESaIcEED1Ev	#
	movq	%r12, %rax	# save_eptr.3240, tmp108
	movslq	%ebx,%rdx	# save_filt.3241, tmp107
	jmp	.L112	#
.L124:
.L112:
	movl	%edx, %ebx	# tmp107, save_filt.3243
	movq	%rax, %r12	# tmp108, save_eptr.3242
	leaq	-80(%rbp), %rax	#, tmp120
	movq	%rax, %rdi	# tmp120,
	call	_ZN8wxStringD1Ev	#
	movq	%r12, %rax	# save_eptr.3242, tmp108
	movslq	%ebx,%rdx	# save_filt.3243, tmp107
	jmp	.L114	#
.L132:
	leaq	-80(%rbp), %rax	#, tmp121
	movq	%rax, %rdi	# tmp121,
	call	_ZN8wxStringD1Ev	#
	jmp	.L113	#
.L102:
	movq	-968(%rbp), %rax	# this, D.159949
	movq	-976(%rbp), %rdx	# fileName, tmp122
	movq	%rdx, %rsi	# tmp122,
	movq	%rax, %rdi	# D.159949,
.LEHB16:
	call	_ZNSsaSERKSs	#
	movq	-968(%rbp), %rax	# this, tmp123
	movq	%rax, %rdi	# tmp123,
	call	_ZN12LibraryParse9parseFileEv	#
.LEHE16:
	jmp	.L113	#
.L125:
.L114:
	movl	%edx, %ebx	# tmp107, save_filt.3245
	movq	%rax, %r12	# tmp108, save_eptr.3244
	leaq	-960(%rbp), %rax	#, tmp124
	movq	%rax, %rdi	# tmp124,
	call	_ZNSt13basic_fstreamIcSt11char_traitsIcEED1Ev	#
	movq	%r12, %rax	# save_eptr.3244, tmp108
	movslq	%ebx,%rdx	# save_filt.3245, tmp107
	jmp	.L116	#
.L113:
	leaq	-960(%rbp), %rax	#, tmp125
	movq	%rax, %rdi	# tmp125,
.LEHB17:
	call	_ZNSt13basic_fstreamIcSt11char_traitsIcEED1Ev	#
.LEHE17:
	jmp	.L133	#
.L126:
.L116:
	movl	%edx, %ebx	# tmp107, save_filt.3248
	movq	%rax, %r12	# tmp108, save_eptr.3247
	movq	-968(%rbp), %rax	# this, tmp126
	addq	$16, %rax	#, D.159950
	movq	%rax, %rdi	# D.159950,
	call	_ZNSt3mapISsS_ISs11LibraryGateSt4lessISsESaISt4pairIKSsS0_EEES2_SaIS3_IS4_S7_EEED1Ev	#
	movq	%r12, %rax	# save_eptr.3247, tmp108
	movslq	%ebx,%rdx	# save_filt.3248, tmp107
	jmp	.L117	#
.L127:
.L117:
	movl	%edx, %ebx	# tmp107, save_filt.3250
	movq	%rax, %r12	# tmp108, save_eptr.3249
	movq	-968(%rbp), %rax	# this, tmp127
	addq	$8, %rax	#, D.159951
	movq	%rax, %rdi	# D.159951,
	call	_ZNSsD1Ev	#
	movq	%r12, %rax	# save_eptr.3249, tmp108
	movslq	%ebx,%rdx	# save_filt.3250, tmp107
	jmp	.L118	#
.L128:
.L118:
	movl	%edx, %ebx	# tmp107, save_filt.3252
	movq	%rax, %r12	# tmp108, save_eptr.3251
	movq	-968(%rbp), %rax	# this, D.159952
	movq	%rax, %rdi	# D.159952,
	call	_ZNSsD1Ev	#
	movq	%r12, %rax	# save_eptr.3251, tmp108
	movslq	%ebx,%rdx	# save_filt.3252, tmp107
	movq	%rax, %rdi	# tmp108,
.LEHB18:
	call	_Unwind_Resume	#
.LEHE18:
.L133:
	addq	$960, %rsp	#,
	popq	%rbx	#
	popq	%r12	#
	leave
	ret
	.cfi_endproc
.LFE11154:
	.size	_ZN12LibraryParseC2ESs, .-_ZN12LibraryParseC2ESs
	.section	.gcc_except_table
.LLSDA11154:
	.byte	0xff
	.byte	0xff
	.byte	0x1
	.uleb128 .LLSDACSE11154-.LLSDACSB11154
.LLSDACSB11154:
	.uleb128 .LEHB3-.LFB11154
	.uleb128 .LEHE3-.LEHB3
	.uleb128 0x0
	.uleb128 0x0
	.uleb128 .LEHB4-.LFB11154
	.uleb128 .LEHE4-.LEHB4
	.uleb128 .L128-.LFB11154
	.uleb128 0x0
	.uleb128 .LEHB5-.LFB11154
	.uleb128 .LEHE5-.LEHB5
	.uleb128 .L127-.LFB11154
	.uleb128 0x0
	.uleb128 .LEHB6-.LFB11154
	.uleb128 .LEHE6-.LEHB6
	.uleb128 .L126-.LFB11154
	.uleb128 0x0
	.uleb128 .LEHB7-.LFB11154
	.uleb128 .LEHE7-.LEHB7
	.uleb128 .L125-.LFB11154
	.uleb128 0x0
	.uleb128 .LEHB8-.LFB11154
	.uleb128 .LEHE8-.LEHB8
	.uleb128 .L124-.LFB11154
	.uleb128 0x0
	.uleb128 .LEHB9-.LFB11154
	.uleb128 .LEHE9-.LEHB9
	.uleb128 .L123-.LFB11154
	.uleb128 0x0
	.uleb128 .LEHB10-.LFB11154
	.uleb128 .LEHE10-.LEHB10
	.uleb128 .L122-.LFB11154
	.uleb128 0x0
	.uleb128 .LEHB11-.LFB11154
	.uleb128 .LEHE11-.LEHB11
	.uleb128 .L121-.LFB11154
	.uleb128 0x0
	.uleb128 .LEHB12-.LFB11154
	.uleb128 .LEHE12-.LEHB12
	.uleb128 .L123-.LFB11154
	.uleb128 0x0
	.uleb128 .LEHB13-.LFB11154
	.uleb128 .LEHE13-.LEHB13
	.uleb128 .L123-.LFB11154
	.uleb128 0x0
	.uleb128 .LEHB14-.LFB11154
	.uleb128 .LEHE14-.LEHB14
	.uleb128 .L120-.LFB11154
	.uleb128 0x0
	.uleb128 .LEHB15-.LFB11154
	.uleb128 .LEHE15-.LEHB15
	.uleb128 .L124-.LFB11154
	.uleb128 0x0
	.uleb128 .LEHB16-.LFB11154
	.uleb128 .LEHE16-.LEHB16
	.uleb128 .L125-.LFB11154
	.uleb128 0x0
	.uleb128 .LEHB17-.LFB11154
	.uleb128 .LEHE17-.LEHB17
	.uleb128 .L126-.LFB11154
	.uleb128 0x0
	.uleb128 .LEHB18-.LFB11154
	.uleb128 .LEHE18-.LEHB18
	.uleb128 0x0
	.uleb128 0x0
.LLSDACSE11154:
	.text
	.align 2
.globl _ZN12LibraryParseC1ESs
	.type	_ZN12LibraryParseC1ESs, @function
_ZN12LibraryParseC1ESs:
.LFB11155:
	.cfi_startproc
	.cfi_personality 0x3,__gxx_personality_v0
	.cfi_lsda 0x3,.LLSDA11155
	pushq	%rbp	#
	.cfi_def_cfa_offset 16
	movq	%rsp, %rbp	#,
	.cfi_offset 6, -16
	.cfi_def_cfa_register 6
	pushq	%r12	#
	pushq	%rbx	#
	subq	$960, %rsp	#,
	movq	%rdi, -968(%rbp)	# this, this
	movq	%rsi, -976(%rbp)	# fileName, fileName
	movq	-968(%rbp), %rax	# this, D.159954
	movq	%rax, %rdi	# D.159954,
.LEHB19:
	.cfi_offset 3, -32
	.cfi_offset 12, -24
	call	_ZNSsC1Ev	#
.LEHE19:
	movq	-968(%rbp), %rax	# this, tmp91
	addq	$8, %rax	#, D.159955
	movq	%rax, %rdi	# D.159955,
.LEHB20:
	call	_ZNSsC1Ev	#
.LEHE20:
	movq	-968(%rbp), %rax	# this, tmp92
	addq	$16, %rax	#, D.159956
	movq	%rax, %rdi	# D.159956,
.LEHB21:
	call	_ZNSt3mapISsS_ISs11LibraryGateSt4lessISsESaISt4pairIKSsS0_EEES2_SaIS3_IS4_S7_EEEC1Ev	#
.LEHE21:
	movq	-976(%rbp), %rax	# fileName, tmp93
	movq	%rax, %rdi	# tmp93,
.LEHB22:
	call	_ZNKSs5c_strEv	#
	movq	%rax, %rcx	#, D.159957
	leaq	-960(%rbp), %rax	#, tmp94
	movl	$8, %edx	#,
	movq	%rcx, %rsi	# D.159957,
	movq	%rax, %rdi	# tmp94,
	call	_ZNSt13basic_fstreamIcSt11char_traitsIcEEC1EPKcSt13_Ios_Openmode	#
.LEHE22:
	leaq	-960(%rbp), %rax	#, tmp95
	addq	$264, %rax	#, tmp96
	movq	%rax, %rdi	# tmp96,
.LEHB23:
	call	_ZNKSt9basic_iosIcSt11char_traitsIcEEntEv	#
.LEHE23:
	testb	%al, %al	# retval.1923
	je	.L135	#,
	leaq	-80(%rbp), %rax	#, tmp97
	movq	%rax, %rdi	# tmp97,
	call	_ZN8wxStringC1Ev	#
	leaq	-432(%rbp), %rax	#, tmp98
	movl	$16, %esi	#,
	movq	%rax, %rdi	# tmp98,
.LEHB24:
	call	_ZNSt19basic_ostringstreamIcSt11char_traitsIcESaIcEEC1ESt13_Ios_Openmode	#
.LEHE24:
	leaq	-432(%rbp), %rax	#, tmp99
	movl	$.LC0, %esi	#,
	movq	%rax, %rdi	# tmp99,
.LEHB25:
	call	_ZStlsISt11char_traitsIcEERSt13basic_ostreamIcT_ES5_PKc	#
	movq	-976(%rbp), %rdx	# fileName, tmp100
	movq	%rdx, %rsi	# tmp100,
	movq	%rax, %rdi	# D.159965,
	call	_ZStlsIcSt11char_traitsIcESaIcEERSt13basic_ostreamIT_T0_ES7_RKSbIS4_S5_T1_E	#
	movl	$.LC1, %esi	#,
	movq	%rax, %rdi	# D.159966,
	call	_ZStlsISt11char_traitsIcEERSt13basic_ostreamIcT_ES5_PKc	#
	leaq	-48(%rbp), %rax	#, tmp101
	leaq	-432(%rbp), %rdx	#, tmp102
	movq	%rdx, %rsi	# tmp102,
	movq	%rax, %rdi	# tmp101,
	call	_ZNKSt19basic_ostringstreamIcSt11char_traitsIcESaIcEE3strEv	#
.LEHE25:
	leaq	-64(%rbp), %rax	#, tmp103
	leaq	-48(%rbp), %rdx	#, tmp104
	movq	%rdx, %rsi	# tmp104,
	movq	%rax, %rdi	# tmp103,
.LEHB26:
	call	_ZL6std2wxRKSs	#
.LEHE26:
	leaq	-64(%rbp), %rax	#, tmp105
	movq	%rax, %rdi	# tmp105,
	call	_ZNK8wxStringcvPKwEv	#
	movq	%rax, %rdx	#, D.159969
	leaq	-80(%rbp), %rax	#, tmp106
	movq	%rdx, %rsi	# D.159969,
	movq	%rax, %rdi	# tmp106,
	movl	$0, %eax	#,
.LEHB27:
	call	_ZN8wxString6PrintfEPKwz	#
.LEHE27:
	jmp	.L162	#
.L154:
.L137:
	movl	%edx, %ebx	# tmp107, save_filt.3162
	movq	%rax, %r12	# tmp108, save_eptr.3161
	leaq	-64(%rbp), %rax	#, tmp109
	movq	%rax, %rdi	# tmp109,
	call	_ZN8wxStringD1Ev	#
	movq	%r12, %rax	# save_eptr.3161, tmp108
	movslq	%ebx,%rdx	# save_filt.3162, tmp107
	jmp	.L139	#
.L162:
	leaq	-64(%rbp), %rax	#, tmp110
	movq	%rax, %rdi	# tmp110,
	call	_ZN8wxStringD1Ev	#
	leaq	-48(%rbp), %rax	#, tmp112
	movq	%rax, %rdi	# tmp112,
.LEHB28:
	call	_ZNSsD1Ev	#
.LEHE28:
	jmp	.L163	#
.L155:
.L139:
	movl	%edx, %ebx	# tmp107, save_filt.3164
	movq	%rax, %r12	# tmp108, save_eptr.3163
	leaq	-48(%rbp), %rax	#, tmp111
	movq	%rax, %rdi	# tmp111,
	call	_ZNSsD1Ev	#
	movq	%r12, %rax	# save_eptr.3163, tmp108
	movslq	%ebx,%rdx	# save_filt.3164, tmp107
	jmp	.L143	#
.L163:
	leaq	-32(%rbp), %rax	#, tmp113
	movl	$.LC2, %esi	#,
	movq	%rax, %rdi	# tmp113,
.LEHB29:
	call	_ZL6std2wxPKc	#
.LEHE29:
	leaq	-32(%rbp), %rbx	#, tmp114
	leaq	-80(%rbp), %rax	#, tmp115
	movl	$-1, %r9d	#,
	movl	$-1, %r8d	#,
	movl	$0, %ecx	#,
	movl	$516, %edx	#,
	movq	%rbx, %rsi	# tmp114,
	movq	%rax, %rdi	# tmp115,
.LEHB30:
	call	_Z12wxMessageBoxRK8wxStringS1_lP8wxWindowii	#
.LEHE30:
	jmp	.L164	#
.L153:
.L141:
	movl	%edx, %ebx	# tmp107, save_filt.3166
	movq	%rax, %r12	# tmp108, save_eptr.3165
	leaq	-32(%rbp), %rax	#, tmp116
	movq	%rax, %rdi	# tmp116,
	call	_ZN8wxStringD1Ev	#
	movq	%r12, %rax	# save_eptr.3165, tmp108
	movslq	%ebx,%rdx	# save_filt.3166, tmp107
	jmp	.L143	#
.L164:
	leaq	-32(%rbp), %rax	#, tmp117
	movq	%rax, %rdi	# tmp117,
	call	_ZN8wxStringD1Ev	#
	leaq	-432(%rbp), %rax	#, tmp119
	movq	%rax, %rdi	# tmp119,
.LEHB31:
	call	_ZNSt19basic_ostringstreamIcSt11char_traitsIcESaIcEED1Ev	#
.LEHE31:
	jmp	.L165	#
.L156:
.L143:
	movl	%edx, %ebx	# tmp107, save_filt.3168
	movq	%rax, %r12	# tmp108, save_eptr.3167
	leaq	-432(%rbp), %rax	#, tmp118
	movq	%rax, %rdi	# tmp118,
	call	_ZNSt19basic_ostringstreamIcSt11char_traitsIcESaIcEED1Ev	#
	movq	%r12, %rax	# save_eptr.3167, tmp108
	movslq	%ebx,%rdx	# save_filt.3168, tmp107
	jmp	.L145	#
.L157:
.L145:
	movl	%edx, %ebx	# tmp107, save_filt.3170
	movq	%rax, %r12	# tmp108, save_eptr.3169
	leaq	-80(%rbp), %rax	#, tmp120
	movq	%rax, %rdi	# tmp120,
	call	_ZN8wxStringD1Ev	#
	movq	%r12, %rax	# save_eptr.3169, tmp108
	movslq	%ebx,%rdx	# save_filt.3170, tmp107
	jmp	.L147	#
.L165:
	leaq	-80(%rbp), %rax	#, tmp121
	movq	%rax, %rdi	# tmp121,
	call	_ZN8wxStringD1Ev	#
	jmp	.L146	#
.L135:
	movq	-968(%rbp), %rax	# this, D.159971
	movq	-976(%rbp), %rdx	# fileName, tmp122
	movq	%rdx, %rsi	# tmp122,
	movq	%rax, %rdi	# D.159971,
.LEHB32:
	call	_ZNSsaSERKSs	#
	movq	-968(%rbp), %rax	# this, tmp123
	movq	%rax, %rdi	# tmp123,
	call	_ZN12LibraryParse9parseFileEv	#
.LEHE32:
	jmp	.L146	#
.L158:
.L147:
	movl	%edx, %ebx	# tmp107, save_filt.3172
	movq	%rax, %r12	# tmp108, save_eptr.3171
	leaq	-960(%rbp), %rax	#, tmp124
	movq	%rax, %rdi	# tmp124,
	call	_ZNSt13basic_fstreamIcSt11char_traitsIcEED1Ev	#
	movq	%r12, %rax	# save_eptr.3171, tmp108
	movslq	%ebx,%rdx	# save_filt.3172, tmp107
	jmp	.L149	#
.L146:
	leaq	-960(%rbp), %rax	#, tmp125
	movq	%rax, %rdi	# tmp125,
.LEHB33:
	call	_ZNSt13basic_fstreamIcSt11char_traitsIcEED1Ev	#
.LEHE33:
	jmp	.L166	#
.L159:
.L149:
	movl	%edx, %ebx	# tmp107, save_filt.3175
	movq	%rax, %r12	# tmp108, save_eptr.3174
	movq	-968(%rbp), %rax	# this, tmp126
	addq	$16, %rax	#, D.159972
	movq	%rax, %rdi	# D.159972,
	call	_ZNSt3mapISsS_ISs11LibraryGateSt4lessISsESaISt4pairIKSsS0_EEES2_SaIS3_IS4_S7_EEED1Ev	#
	movq	%r12, %rax	# save_eptr.3174, tmp108
	movslq	%ebx,%rdx	# save_filt.3175, tmp107
	jmp	.L150	#
.L160:
.L150:
	movl	%edx, %ebx	# tmp107, save_filt.3177
	movq	%rax, %r12	# tmp108, save_eptr.3176
	movq	-968(%rbp), %rax	# this, tmp127
	addq	$8, %rax	#, D.159973
	movq	%rax, %rdi	# D.159973,
	call	_ZNSsD1Ev	#
	movq	%r12, %rax	# save_eptr.3176, tmp108
	movslq	%ebx,%rdx	# save_filt.3177, tmp107
	jmp	.L151	#
.L161:
.L151:
	movl	%edx, %ebx	# tmp107, save_filt.3179
	movq	%rax, %r12	# tmp108, save_eptr.3178
	movq	-968(%rbp), %rax	# this, D.159974
	movq	%rax, %rdi	# D.159974,
	call	_ZNSsD1Ev	#
	movq	%r12, %rax	# save_eptr.3178, tmp108
	movslq	%ebx,%rdx	# save_filt.3179, tmp107
	movq	%rax, %rdi	# tmp108,
.LEHB34:
	call	_Unwind_Resume	#
.LEHE34:
.L166:
	addq	$960, %rsp	#,
	popq	%rbx	#
	popq	%r12	#
	leave
	ret
	.cfi_endproc
.LFE11155:
	.size	_ZN12LibraryParseC1ESs, .-_ZN12LibraryParseC1ESs
	.section	.gcc_except_table
.LLSDA11155:
	.byte	0xff
	.byte	0xff
	.byte	0x1
	.uleb128 .LLSDACSE11155-.LLSDACSB11155
.LLSDACSB11155:
	.uleb128 .LEHB19-.LFB11155
	.uleb128 .LEHE19-.LEHB19
	.uleb128 0x0
	.uleb128 0x0
	.uleb128 .LEHB20-.LFB11155
	.uleb128 .LEHE20-.LEHB20
	.uleb128 .L161-.LFB11155
	.uleb128 0x0
	.uleb128 .LEHB21-.LFB11155
	.uleb128 .LEHE21-.LEHB21
	.uleb128 .L160-.LFB11155
	.uleb128 0x0
	.uleb128 .LEHB22-.LFB11155
	.uleb128 .LEHE22-.LEHB22
	.uleb128 .L159-.LFB11155
	.uleb128 0x0
	.uleb128 .LEHB23-.LFB11155
	.uleb128 .LEHE23-.LEHB23
	.uleb128 .L158-.LFB11155
	.uleb128 0x0
	.uleb128 .LEHB24-.LFB11155
	.uleb128 .LEHE24-.LEHB24
	.uleb128 .L157-.LFB11155
	.uleb128 0x0
	.uleb128 .LEHB25-.LFB11155
	.uleb128 .LEHE25-.LEHB25
	.uleb128 .L156-.LFB11155
	.uleb128 0x0
	.uleb128 .LEHB26-.LFB11155
	.uleb128 .LEHE26-.LEHB26
	.uleb128 .L155-.LFB11155
	.uleb128 0x0
	.uleb128 .LEHB27-.LFB11155
	.uleb128 .LEHE27-.LEHB27
	.uleb128 .L154-.LFB11155
	.uleb128 0x0
	.uleb128 .LEHB28-.LFB11155
	.uleb128 .LEHE28-.LEHB28
	.uleb128 .L156-.LFB11155
	.uleb128 0x0
	.uleb128 .LEHB29-.LFB11155
	.uleb128 .LEHE29-.LEHB29
	.uleb128 .L156-.LFB11155
	.uleb128 0x0
	.uleb128 .LEHB30-.LFB11155
	.uleb128 .LEHE30-.LEHB30
	.uleb128 .L153-.LFB11155
	.uleb128 0x0
	.uleb128 .LEHB31-.LFB11155
	.uleb128 .LEHE31-.LEHB31
	.uleb128 .L157-.LFB11155
	.uleb128 0x0
	.uleb128 .LEHB32-.LFB11155
	.uleb128 .LEHE32-.LEHB32
	.uleb128 .L158-.LFB11155
	.uleb128 0x0
	.uleb128 .LEHB33-.LFB11155
	.uleb128 .LEHE33-.LEHB33
	.uleb128 .L159-.LFB11155
	.uleb128 0x0
	.uleb128 .LEHB34-.LFB11155
	.uleb128 .LEHE34-.LEHB34
	.uleb128 0x0
	.uleb128 0x0
.LLSDACSE11155:
	.text
	.align 2
.globl _ZN12LibraryParseC2Ev
	.type	_ZN12LibraryParseC2Ev, @function
_ZN12LibraryParseC2Ev:
.LFB11157:
	.cfi_startproc
	.cfi_personality 0x3,__gxx_personality_v0
	.cfi_lsda 0x3,.LLSDA11157
	pushq	%rbp	#
	.cfi_def_cfa_offset 16
	movq	%rsp, %rbp	#,
	.cfi_offset 6, -16
	.cfi_def_cfa_register 6
	pushq	%r12	#
	pushq	%rbx	#
	subq	$16, %rsp	#,
	movq	%rdi, -24(%rbp)	# this, this
	movq	-24(%rbp), %rax	# this, D.159985
	movq	%rax, %rdi	# D.159985,
.LEHB35:
	.cfi_offset 3, -32
	.cfi_offset 12, -24
	call	_ZNSsC1Ev	#
.LEHE35:
	movq	-24(%rbp), %rax	# this, tmp68
	addq	$8, %rax	#, D.159986
	movq	%rax, %rdi	# D.159986,
.LEHB36:
	call	_ZNSsC1Ev	#
.LEHE36:
	movq	-24(%rbp), %rax	# this, tmp69
	addq	$16, %rax	#, D.159987
	movq	%rax, %rdi	# D.159987,
.LEHB37:
	call	_ZNSt3mapISsS_ISs11LibraryGateSt4lessISsESaISt4pairIKSsS0_EEES2_SaIS3_IS4_S7_EEEC1Ev	#
.LEHE37:
	jmp	.L173	#
.L171:
.L168:
	movl	%edx, %ebx	# tmp70, save_filt.3158
	movq	%rax, %r12	# tmp71, save_eptr.3157
	movq	-24(%rbp), %rax	# this, tmp72
	addq	$8, %rax	#, D.159989
	movq	%rax, %rdi	# D.159989,
	call	_ZNSsD1Ev	#
	movq	%r12, %rax	# save_eptr.3157, tmp71
	movslq	%ebx,%rdx	# save_filt.3158, tmp70
	jmp	.L169	#
.L172:
.L169:
	movl	%edx, %ebx	# tmp70, save_filt.3160
	movq	%rax, %r12	# tmp71, save_eptr.3159
	movq	-24(%rbp), %rax	# this, D.159990
	movq	%rax, %rdi	# D.159990,
	call	_ZNSsD1Ev	#
	movq	%r12, %rax	# save_eptr.3159, tmp71
	movslq	%ebx,%rdx	# save_filt.3160, tmp70
	movq	%rax, %rdi	# tmp71,
.LEHB38:
	call	_Unwind_Resume	#
.LEHE38:
.L173:
	addq	$16, %rsp	#,
	popq	%rbx	#
	popq	%r12	#
	leave
	ret
	.cfi_endproc
.LFE11157:
	.size	_ZN12LibraryParseC2Ev, .-_ZN12LibraryParseC2Ev
	.section	.gcc_except_table
.LLSDA11157:
	.byte	0xff
	.byte	0xff
	.byte	0x1
	.uleb128 .LLSDACSE11157-.LLSDACSB11157
.LLSDACSB11157:
	.uleb128 .LEHB35-.LFB11157
	.uleb128 .LEHE35-.LEHB35
	.uleb128 0x0
	.uleb128 0x0
	.uleb128 .LEHB36-.LFB11157
	.uleb128 .LEHE36-.LEHB36
	.uleb128 .L172-.LFB11157
	.uleb128 0x0
	.uleb128 .LEHB37-.LFB11157
	.uleb128 .LEHE37-.LEHB37
	.uleb128 .L171-.LFB11157
	.uleb128 0x0
	.uleb128 .LEHB38-.LFB11157
	.uleb128 .LEHE38-.LEHB38
	.uleb128 0x0
	.uleb128 0x0
.LLSDACSE11157:
	.text
	.align 2
.globl _ZN12LibraryParseC1Ev
	.type	_ZN12LibraryParseC1Ev, @function
_ZN12LibraryParseC1Ev:
.LFB11158:
	.cfi_startproc
	.cfi_personality 0x3,__gxx_personality_v0
	.cfi_lsda 0x3,.LLSDA11158
	pushq	%rbp	#
	.cfi_def_cfa_offset 16
	movq	%rsp, %rbp	#,
	.cfi_offset 6, -16
	.cfi_def_cfa_register 6
	pushq	%r12	#
	pushq	%rbx	#
	subq	$16, %rsp	#,
	movq	%rdi, -24(%rbp)	# this, this
	movq	-24(%rbp), %rax	# this, D.159992
	movq	%rax, %rdi	# D.159992,
.LEHB39:
	.cfi_offset 3, -32
	.cfi_offset 12, -24
	call	_ZNSsC1Ev	#
.LEHE39:
	movq	-24(%rbp), %rax	# this, tmp68
	addq	$8, %rax	#, D.159993
	movq	%rax, %rdi	# D.159993,
.LEHB40:
	call	_ZNSsC1Ev	#
.LEHE40:
	movq	-24(%rbp), %rax	# this, tmp69
	addq	$16, %rax	#, D.159994
	movq	%rax, %rdi	# D.159994,
.LEHB41:
	call	_ZNSt3mapISsS_ISs11LibraryGateSt4lessISsESaISt4pairIKSsS0_EEES2_SaIS3_IS4_S7_EEEC1Ev	#
.LEHE41:
	jmp	.L180	#
.L178:
.L175:
	movl	%edx, %ebx	# tmp70, save_filt.3152
	movq	%rax, %r12	# tmp71, save_eptr.3151
	movq	-24(%rbp), %rax	# this, tmp72
	addq	$8, %rax	#, D.159996
	movq	%rax, %rdi	# D.159996,
	call	_ZNSsD1Ev	#
	movq	%r12, %rax	# save_eptr.3151, tmp71
	movslq	%ebx,%rdx	# save_filt.3152, tmp70
	jmp	.L176	#
.L179:
.L176:
	movl	%edx, %ebx	# tmp70, save_filt.3154
	movq	%rax, %r12	# tmp71, save_eptr.3153
	movq	-24(%rbp), %rax	# this, D.159997
	movq	%rax, %rdi	# D.159997,
	call	_ZNSsD1Ev	#
	movq	%r12, %rax	# save_eptr.3153, tmp71
	movslq	%ebx,%rdx	# save_filt.3154, tmp70
	movq	%rax, %rdi	# tmp71,
.LEHB42:
	call	_Unwind_Resume	#
.LEHE42:
.L180:
	addq	$16, %rsp	#,
	popq	%rbx	#
	popq	%r12	#
	leave
	ret
	.cfi_endproc
.LFE11158:
	.size	_ZN12LibraryParseC1Ev, .-_ZN12LibraryParseC1Ev
	.section	.gcc_except_table
.LLSDA11158:
	.byte	0xff
	.byte	0xff
	.byte	0x1
	.uleb128 .LLSDACSE11158-.LLSDACSB11158
.LLSDACSB11158:
	.uleb128 .LEHB39-.LFB11158
	.uleb128 .LEHE39-.LEHB39
	.uleb128 0x0
	.uleb128 0x0
	.uleb128 .LEHB40-.LFB11158
	.uleb128 .LEHE40-.LEHB40
	.uleb128 .L179-.LFB11158
	.uleb128 0x0
	.uleb128 .LEHB41-.LFB11158
	.uleb128 .LEHE41-.LEHB41
	.uleb128 .L178-.LFB11158
	.uleb128 0x0
	.uleb128 .LEHB42-.LFB11158
	.uleb128 .LEHE42-.LEHB42
	.uleb128 0x0
	.uleb128 0x0
.LLSDACSE11158:
	.text
	.align 2
.globl _ZN12LibraryParseD2Ev
	.type	_ZN12LibraryParseD2Ev, @function
_ZN12LibraryParseD2Ev:
.LFB11160:
	.cfi_startproc
	.cfi_personality 0x3,__gxx_personality_v0
	.cfi_lsda 0x3,.LLSDA11160
	pushq	%rbp	#
	.cfi_def_cfa_offset 16
	movq	%rsp, %rbp	#,
	.cfi_offset 6, -16
	.cfi_def_cfa_register 6
	pushq	%r12	#
	pushq	%rbx	#
	subq	$16, %rsp	#,
	movq	%rdi, -24(%rbp)	# this, this
	movq	-24(%rbp), %rax	# this, tmp67
	addq	$16, %rax	#, D.160008
	movq	%rax, %rdi	# D.160008,
.LEHB43:
	.cfi_offset 3, -32
	.cfi_offset 12, -24
	call	_ZNSt3mapISsS_ISs11LibraryGateSt4lessISsESaISt4pairIKSsS0_EEES2_SaIS3_IS4_S7_EEED1Ev	#
.LEHE43:
	jmp	.L190	#
.L188:
.L183:
	movl	%edx, %ebx	# tmp68, save_filt.3148
	movq	%rax, %r12	# tmp69, save_eptr.3147
	movq	-24(%rbp), %rax	# this, tmp70
	addq	$8, %rax	#, D.160009
	movq	%rax, %rdi	# D.160009,
	call	_ZNSsD1Ev	#
	movq	%r12, %rax	# save_eptr.3147, tmp69
	movslq	%ebx,%rdx	# save_filt.3148, tmp68
	jmp	.L185	#
.L190:
	movq	-24(%rbp), %rax	# this, tmp71
	addq	$8, %rax	#, temp.3255
	movq	%rax, %rdi	# temp.3255,
.LEHB44:
	call	_ZNSsD1Ev	#
.LEHE44:
	jmp	.L191	#
.L189:
.L185:
	movl	%edx, %ebx	# tmp68, save_filt.3150
	movq	%rax, %r12	# tmp69, save_eptr.3149
	movq	-24(%rbp), %rax	# this, temp.3256
	movq	%rax, %rdi	# temp.3256,
	call	_ZNSsD1Ev	#
	movq	%r12, %rax	# save_eptr.3149, tmp69
	movslq	%ebx,%rdx	# save_filt.3150, tmp68
	movq	%rax, %rdi	# tmp69,
.LEHB45:
	call	_Unwind_Resume	#
.L191:
	movq	-24(%rbp), %rax	# this, D.160010
	movq	%rax, %rdi	# D.160010,
	call	_ZNSsD1Ev	#
.LEHE45:
	addq	$16, %rsp	#,
	popq	%rbx	#
	popq	%r12	#
	leave
	ret
	.cfi_endproc
.LFE11160:
	.size	_ZN12LibraryParseD2Ev, .-_ZN12LibraryParseD2Ev
	.section	.gcc_except_table
.LLSDA11160:
	.byte	0xff
	.byte	0xff
	.byte	0x1
	.uleb128 .LLSDACSE11160-.LLSDACSB11160
.LLSDACSB11160:
	.uleb128 .LEHB43-.LFB11160
	.uleb128 .LEHE43-.LEHB43
	.uleb128 .L188-.LFB11160
	.uleb128 0x0
	.uleb128 .LEHB44-.LFB11160
	.uleb128 .LEHE44-.LEHB44
	.uleb128 .L189-.LFB11160
	.uleb128 0x0
	.uleb128 .LEHB45-.LFB11160
	.uleb128 .LEHE45-.LEHB45
	.uleb128 0x0
	.uleb128 0x0
.LLSDACSE11160:
	.text
	.align 2
.globl _ZN12LibraryParseD1Ev
	.type	_ZN12LibraryParseD1Ev, @function
_ZN12LibraryParseD1Ev:
.LFB11161:
	.cfi_startproc
	.cfi_personality 0x3,__gxx_personality_v0
	.cfi_lsda 0x3,.LLSDA11161
	pushq	%rbp	#
	.cfi_def_cfa_offset 16
	movq	%rsp, %rbp	#,
	.cfi_offset 6, -16
	.cfi_def_cfa_register 6
	pushq	%r12	#
	pushq	%rbx	#
	subq	$16, %rsp	#,
	movq	%rdi, -24(%rbp)	# this, this
	movq	-24(%rbp), %rax	# this, tmp67
	addq	$16, %rax	#, D.160014
	movq	%rax, %rdi	# D.160014,
.LEHB46:
	.cfi_offset 3, -32
	.cfi_offset 12, -24
	call	_ZNSt3mapISsS_ISs11LibraryGateSt4lessISsESaISt4pairIKSsS0_EEES2_SaIS3_IS4_S7_EEED1Ev	#
.LEHE46:
	jmp	.L201	#
.L199:
.L194:
	movl	%edx, %ebx	# tmp68, save_filt.3140
	movq	%rax, %r12	# tmp69, save_eptr.3139
	movq	-24(%rbp), %rax	# this, tmp70
	addq	$8, %rax	#, D.160015
	movq	%rax, %rdi	# D.160015,
	call	_ZNSsD1Ev	#
	movq	%r12, %rax	# save_eptr.3139, tmp69
	movslq	%ebx,%rdx	# save_filt.3140, tmp68
	jmp	.L196	#
.L201:
	movq	-24(%rbp), %rax	# this, tmp71
	addq	$8, %rax	#, temp.3257
	movq	%rax, %rdi	# temp.3257,
.LEHB47:
	call	_ZNSsD1Ev	#
.LEHE47:
	jmp	.L202	#
.L200:
.L196:
	movl	%edx, %ebx	# tmp68, save_filt.3142
	movq	%rax, %r12	# tmp69, save_eptr.3141
	movq	-24(%rbp), %rax	# this, temp.3258
	movq	%rax, %rdi	# temp.3258,
	call	_ZNSsD1Ev	#
	movq	%r12, %rax	# save_eptr.3141, tmp69
	movslq	%ebx,%rdx	# save_filt.3142, tmp68
	movq	%rax, %rdi	# tmp69,
.LEHB48:
	call	_Unwind_Resume	#
.L202:
	movq	-24(%rbp), %rax	# this, D.160016
	movq	%rax, %rdi	# D.160016,
	call	_ZNSsD1Ev	#
.LEHE48:
	addq	$16, %rsp	#,
	popq	%rbx	#
	popq	%r12	#
	leave
	ret
	.cfi_endproc
.LFE11161:
	.size	_ZN12LibraryParseD1Ev, .-_ZN12LibraryParseD1Ev
	.section	.gcc_except_table
.LLSDA11161:
	.byte	0xff
	.byte	0xff
	.byte	0x1
	.uleb128 .LLSDACSE11161-.LLSDACSB11161
.LLSDACSB11161:
	.uleb128 .LEHB46-.LFB11161
	.uleb128 .LEHE46-.LEHB46
	.uleb128 .L199-.LFB11161
	.uleb128 0x0
	.uleb128 .LEHB47-.LFB11161
	.uleb128 .LEHE47-.LEHB47
	.uleb128 .L200-.LFB11161
	.uleb128 0x0
	.uleb128 .LEHB48-.LFB11161
	.uleb128 .LEHE48-.LEHB48
	.uleb128 0x0
	.uleb128 0x0
.LLSDACSE11161:
	.text
	.section	.text._ZN9lgHotspotD1Ev,"axG",@progbits,_ZN9lgHotspotD1Ev,comdat
	.align 2
	.weak	_ZN9lgHotspotD1Ev
	.type	_ZN9lgHotspotD1Ev, @function
_ZN9lgHotspotD1Ev:
.LFB11165:
	.cfi_startproc
	.cfi_personality 0x3,__gxx_personality_v0
	.cfi_lsda 0x3,.LLSDA11165
	pushq	%rbp	#
	.cfi_def_cfa_offset 16
	movq	%rsp, %rbp	#,
	.cfi_offset 6, -16
	.cfi_def_cfa_register 6
	pushq	%r12	#
	pushq	%rbx	#
	subq	$16, %rsp	#,
	movq	%rdi, -24(%rbp)	# this, this
	movq	-24(%rbp), %rax	# this, tmp63
	addq	$24, %rax	#, D.160098
	movq	%rax, %rdi	# D.160098,
.LEHB49:
	.cfi_offset 3, -32
	.cfi_offset 12, -24
	call	_ZNSsD1Ev	#
.LEHE49:
	jmp	.L209	#
.L208:
.L205:
	movl	%edx, %ebx	# tmp64, save_filt.2834
	movq	%rax, %r12	# tmp65, save_eptr.2833
	movq	-24(%rbp), %rax	# this, D.160099
	movq	%rax, %rdi	# D.160099,
	call	_ZNSsD1Ev	#
	movq	%r12, %rax	# save_eptr.2833, tmp65
	movslq	%ebx,%rdx	# save_filt.2834, tmp64
	movq	%rax, %rdi	# tmp65,
.LEHB50:
	call	_Unwind_Resume	#
.L209:
	movq	-24(%rbp), %rax	# this, temp.3259
	movq	%rax, %rdi	# temp.3259,
	call	_ZNSsD1Ev	#
.LEHE50:
	addq	$16, %rsp	#,
	popq	%rbx	#
	popq	%r12	#
	leave
	ret
	.cfi_endproc
.LFE11165:
	.size	_ZN9lgHotspotD1Ev, .-_ZN9lgHotspotD1Ev
	.section	.gcc_except_table
.LLSDA11165:
	.byte	0xff
	.byte	0xff
	.byte	0x1
	.uleb128 .LLSDACSE11165-.LLSDACSB11165
.LLSDACSB11165:
	.uleb128 .LEHB49-.LFB11165
	.uleb128 .LEHE49-.LEHB49
	.uleb128 .L208-.LFB11165
	.uleb128 0x0
	.uleb128 .LEHB50-.LFB11165
	.uleb128 .LEHE50-.LEHB50
	.uleb128 0x0
	.uleb128 0x0
.LLSDACSE11165:
	.section	.text._ZN9lgHotspotD1Ev,"axG",@progbits,_ZN9lgHotspotD1Ev,comdat
	.section	.text._ZN9lgHotspotC1ERKS_,"axG",@progbits,_ZN9lgHotspotC1ERKS_,comdat
	.align 2
	.weak	_ZN9lgHotspotC1ERKS_
	.type	_ZN9lgHotspotC1ERKS_, @function
_ZN9lgHotspotC1ERKS_:
.LFB11168:
	.cfi_startproc
	.cfi_personality 0x3,__gxx_personality_v0
	.cfi_lsda 0x3,.LLSDA11168
	pushq	%rbp	#
	.cfi_def_cfa_offset 16
	movq	%rsp, %rbp	#,
	.cfi_offset 6, -16
	.cfi_def_cfa_register 6
	pushq	%r12	#
	pushq	%rbx	#
	subq	$16, %rsp	#,
	movq	%rdi, -24(%rbp)	# this, this
	movq	%rsi, -32(%rbp)	# D.160071, D.160071
	movq	-32(%rbp), %rdx	# D.160071, D.160124
	movq	-24(%rbp), %rax	# this, D.160125
	movq	%rdx, %rsi	# D.160124,
	movq	%rax, %rdi	# D.160125,
.LEHB51:
	.cfi_offset 3, -32
	.cfi_offset 12, -24
	call	_ZNSsC1ERKSs	#
.LEHE51:
	movq	-32(%rbp), %rax	# D.160071, tmp70
	movzbl	8(%rax), %edx	# <variable>.isInput, D.160126
	movq	-24(%rbp), %rax	# this, tmp71
	movb	%dl, 8(%rax)	# D.160126, <variable>.isInput
	movq	-32(%rbp), %rax	# D.160071, tmp72
	movl	12(%rax), %edx	# <variable>.x, D.160127
	movq	-24(%rbp), %rax	# this, tmp73
	movl	%edx, 12(%rax)	# D.160127, <variable>.x
	movq	-32(%rbp), %rax	# D.160071, tmp74
	movl	16(%rax), %edx	# <variable>.y, D.160128
	movq	-24(%rbp), %rax	# this, tmp75
	movl	%edx, 16(%rax)	# D.160128, <variable>.y
	movq	-32(%rbp), %rax	# D.160071, tmp76
	movzbl	20(%rax), %edx	# <variable>.isInverted, D.160129
	movq	-24(%rbp), %rax	# this, tmp77
	movb	%dl, 20(%rax)	# D.160129, <variable>.isInverted
	movq	-32(%rbp), %rax	# D.160071, tmp78
	leaq	24(%rax), %rdx	#, D.160130
	movq	-24(%rbp), %rax	# this, tmp79
	addq	$24, %rax	#, D.160131
	movq	%rdx, %rsi	# D.160130,
	movq	%rax, %rdi	# D.160131,
.LEHB52:
	call	_ZNSsC1ERKSs	#
.LEHE52:
	jmp	.L215	#
.L214:
.L212:
	movl	%edx, %ebx	# tmp80, save_filt.2832
	movq	%rax, %r12	# tmp81, save_eptr.2831
	movq	-24(%rbp), %rax	# this, D.160133
	movq	%rax, %rdi	# D.160133,
	call	_ZNSsD1Ev	#
	movq	%r12, %rax	# save_eptr.2831, tmp81
	movslq	%ebx,%rdx	# save_filt.2832, tmp80
	movq	%rax, %rdi	# tmp81,
.LEHB53:
	call	_Unwind_Resume	#
.LEHE53:
.L215:
	addq	$16, %rsp	#,
	popq	%rbx	#
	popq	%r12	#
	leave
	ret
	.cfi_endproc
.LFE11168:
	.size	_ZN9lgHotspotC1ERKS_, .-_ZN9lgHotspotC1ERKS_
	.section	.gcc_except_table
.LLSDA11168:
	.byte	0xff
	.byte	0xff
	.byte	0x1
	.uleb128 .LLSDACSE11168-.LLSDACSB11168
.LLSDACSB11168:
	.uleb128 .LEHB51-.LFB11168
	.uleb128 .LEHE51-.LEHB51
	.uleb128 0x0
	.uleb128 0x0
	.uleb128 .LEHB52-.LFB11168
	.uleb128 .LEHE52-.LEHB52
	.uleb128 .L214-.LFB11168
	.uleb128 0x0
	.uleb128 .LEHB53-.LFB11168
	.uleb128 .LEHE53-.LEHB53
	.uleb128 0x0
	.uleb128 0x0
.LLSDACSE11168:
	.section	.text._ZN9lgHotspotC1ERKS_,"axG",@progbits,_ZN9lgHotspotC1ERKS_,comdat
	.section	.rodata
.LC3:
	.string	""
.LC4:
	.string	"false"
.LC5:
	.string	"name"
.LC6:
	.string	"point"
.LC7:
	.string	"inverted"
.LC8:
	.string	"enable_input"
.LC9:
	.string	"enable_output"
.LC10:
	.string	"true"
.LC11:
	.string	"input"
	.text
	.align 2
.globl _ZN12LibraryParse12parseHotspotEPN8tinyxml210XMLElementE
	.type	_ZN12LibraryParse12parseHotspotEPN8tinyxml210XMLElementE, @function
_ZN12LibraryParse12parseHotspotEPN8tinyxml210XMLElementE:
.LFB11162:
	.cfi_startproc
	.cfi_personality 0x3,__gxx_personality_v0
	.cfi_lsda 0x3,.LLSDA11162
	pushq	%rbp	#
	.cfi_def_cfa_offset 16
	movq	%rsp, %rbp	#,
	.cfi_offset 6, -16
	.cfi_def_cfa_register 6
	pushq	%r14	#
	pushq	%r13	#
	pushq	%r12	#
	pushq	%rbx	#
	subq	$544, %rsp	#,
	movq	%rdi, %rbx	# D.181392, <result>
	.cfi_offset 3, -48
	.cfi_offset 12, -40
	.cfi_offset 13, -32
	.cfi_offset 14, -24
	movq	%rsi, -552(%rbp)	# this, this
	movq	%rdx, -560(%rbp)	# node, node
	leaq	-85(%rbp), %rax	#, tmp123
	movq	%rax, %rdi	# tmp123,
	call	_ZNSaIcEC1Ev	#
	movq	-560(%rbp), %rax	# node, D.160135
	movq	%rax, %rdi	# D.160135,
.LEHB54:
	call	_ZNK8tinyxml27XMLNode5ValueEv	#
	movq	%rax, %rcx	#, D.160136
	leaq	-85(%rbp), %rdx	#, tmp124
	leaq	-96(%rbp), %rax	#, tmp125
	movq	%rcx, %rsi	# D.160136,
	movq	%rax, %rdi	# tmp125,
	call	_ZNSsC1EPKcRKSaIcE	#
.LEHE54:
	jmp	.L273	#
.L272:
.L218:
	movl	%edx, %ebx	# tmp126, save_filt.3106
	movq	%rax, %r12	# tmp127, save_eptr.3105
	leaq	-85(%rbp), %rax	#, tmp128
	movq	%rax, %rdi	# tmp128,
	call	_ZNSaIcED1Ev	#
	movq	%r12, %rax	# save_eptr.3105, tmp127
	movslq	%ebx,%rdx	# save_filt.3106, tmp126
	movq	%rax, %rdi	# tmp127,
.LEHB55:
	call	_Unwind_Resume	#
.LEHE55:
.L273:
	leaq	-85(%rbp), %rax	#, tmp129
	movq	%rax, %rdi	# tmp129,
	call	_ZNSaIcED1Ev	#
	leaq	-84(%rbp), %rax	#, tmp130
	movq	%rax, %rdi	# tmp130,
	call	_ZNSaIcEC1Ev	#
	leaq	-84(%rbp), %rdx	#, tmp131
	leaq	-112(%rbp), %rax	#, tmp132
	movl	$.LC3, %esi	#,
	movq	%rax, %rdi	# tmp132,
.LEHB56:
	call	_ZNSsC1EPKcRKSaIcE	#
.LEHE56:
	jmp	.L274	#
.L270:
.L220:
	movl	%edx, %ebx	# tmp126, save_filt.3108
	movq	%rax, %r12	# tmp127, save_eptr.3107
	leaq	-84(%rbp), %rax	#, tmp133
	movq	%rax, %rdi	# tmp133,
	call	_ZNSaIcED1Ev	#
	movq	%r12, %rax	# save_eptr.3107, tmp127
	movslq	%ebx,%rdx	# save_filt.3108, tmp126
	jmp	.L255	#
.L274:
	leaq	-84(%rbp), %rax	#, tmp134
	movq	%rax, %rdi	# tmp134,
	call	_ZNSaIcED1Ev	#
	leaq	-83(%rbp), %rax	#, tmp135
	movq	%rax, %rdi	# tmp135,
	call	_ZNSaIcEC1Ev	#
	leaq	-83(%rbp), %rdx	#, tmp136
	leaq	-128(%rbp), %rax	#, tmp137
	movl	$.LC4, %esi	#,
	movq	%rax, %rdi	# tmp137,
.LEHB57:
	call	_ZNSsC1EPKcRKSaIcE	#
.LEHE57:
	jmp	.L275	#
.L268:
.L222:
	movl	%edx, %ebx	# tmp126, save_filt.3110
	movq	%rax, %r12	# tmp127, save_eptr.3109
	leaq	-83(%rbp), %rax	#, tmp138
	movq	%rax, %rdi	# tmp138,
	call	_ZNSaIcED1Ev	#
	movq	%r12, %rax	# save_eptr.3109, tmp127
	movslq	%ebx,%rdx	# save_filt.3110, tmp126
	jmp	.L253	#
.L275:
	leaq	-83(%rbp), %rax	#, tmp139
	movq	%rax, %rdi	# tmp139,
	call	_ZNSaIcED1Ev	#
	leaq	-82(%rbp), %rax	#, tmp140
	movq	%rax, %rdi	# tmp140,
	call	_ZNSaIcEC1Ev	#
	leaq	-82(%rbp), %rdx	#, tmp141
	leaq	-144(%rbp), %rax	#, tmp142
	movl	$.LC3, %esi	#,
	movq	%rax, %rdi	# tmp142,
.LEHB58:
	call	_ZNSsC1EPKcRKSaIcE	#
.LEHE58:
	jmp	.L276	#
.L266:
.L224:
	movl	%edx, %ebx	# tmp126, save_filt.3112
	movq	%rax, %r12	# tmp127, save_eptr.3111
	leaq	-82(%rbp), %rax	#, tmp143
	movq	%rax, %rdi	# tmp143,
	call	_ZNSaIcED1Ev	#
	movq	%r12, %rax	# save_eptr.3111, tmp127
	movslq	%ebx,%rdx	# save_filt.3112, tmp126
	jmp	.L251	#
.L276:
	leaq	-82(%rbp), %rax	#, tmp144
	movq	%rax, %rdi	# tmp144,
	call	_ZNSaIcED1Ev	#
	movq	-560(%rbp), %rax	# node, D.160137
	movl	$0, %esi	#,
	movq	%rax, %rdi	# D.160137,
.LEHB59:
	call	_ZN8tinyxml27XMLNode17FirstChildElementEPKc	#
.LEHE59:
	movq	%rax, -40(%rbp)	# n.1924, n
	jmp	.L225	#
.L243:
	leaq	-81(%rbp), %rax	#, tmp145
	movq	%rax, %rdi	# tmp145,
	call	_ZNSaIcEC1Ev	#
	movq	-40(%rbp), %rax	# n, D.160144
	movq	%rax, %rdi	# D.160144,
.LEHB60:
	call	_ZNK8tinyxml27XMLNode5ValueEv	#
	movq	%rax, %rcx	#, D.160145
	leaq	-81(%rbp), %rdx	#, tmp146
	leaq	-176(%rbp), %rax	#, tmp147
	movq	%rcx, %rsi	# D.160145,
	movq	%rax, %rdi	# tmp147,
	call	_ZNSsC1EPKcRKSaIcE	#
.LEHE60:
	jmp	.L277	#
.L264:
.L227:
	movl	%edx, %ebx	# tmp126, save_filt.3114
	movq	%rax, %r12	# tmp127, save_eptr.3113
	leaq	-81(%rbp), %rax	#, tmp148
	movq	%rax, %rdi	# tmp148,
	call	_ZNSaIcED1Ev	#
	movq	%r12, %rax	# save_eptr.3113, tmp127
	movslq	%ebx,%rdx	# save_filt.3114, tmp126
	jmp	.L249	#
.L277:
	leaq	-81(%rbp), %rax	#, tmp149
	movq	%rax, %rdi	# tmp149,
	call	_ZNSaIcED1Ev	#
	leaq	-176(%rbp), %rax	#, tmp150
	movl	$.LC5, %esi	#,
	movq	%rax, %rdi	# tmp150,
.LEHB61:
	call	_ZSteqIcSt11char_traitsIcESaIcEEbRKSbIT_T0_T1_EPKS3_	#
	testb	%al, %al	# retval.1925
	je	.L228	#,
	movq	-40(%rbp), %rax	# n, tmp151
	movq	%rax, %rdi	# tmp151,
	call	_ZNK8tinyxml210XMLElement7GetTextEv	#
	movq	%rax, %rdx	#, D.160150
	leaq	-112(%rbp), %rax	#, tmp152
	movq	%rdx, %rsi	# D.160150,
	movq	%rax, %rdi	# tmp152,
	call	_ZNSsaSEPKc	#
	jmp	.L229	#
.L228:
	leaq	-176(%rbp), %rax	#, tmp153
	movl	$.LC6, %esi	#,
	movq	%rax, %rdi	# tmp153,
	call	_ZSteqIcSt11char_traitsIcESaIcEEbRKSbIT_T0_T1_EPKS3_	#
.LEHE61:
	testb	%al, %al	# retval.1926
	je	.L230	#,
	leaq	-65(%rbp), %rax	#, tmp154
	movq	%rax, %rdi	# tmp154,
	call	_ZNSaIcEC1Ev	#
	movq	-40(%rbp), %rax	# n, tmp155
	movq	%rax, %rdi	# tmp155,
.LEHB62:
	call	_ZNK8tinyxml210XMLElement7GetTextEv	#
	movq	%rax, %rcx	#, D.160156
	leaq	-65(%rbp), %rdx	#, tmp156
	leaq	-80(%rbp), %rax	#, tmp157
	movq	%rcx, %rsi	# D.160156,
	movq	%rax, %rdi	# tmp157,
	call	_ZNSsC1EPKcRKSaIcE	#
.LEHE62:
	leaq	-80(%rbp), %rcx	#, tmp158
	leaq	-544(%rbp), %rax	#, tmp159
	movl	$8, %edx	#,
	movq	%rcx, %rsi	# tmp158,
	movq	%rax, %rdi	# tmp159,
.LEHB63:
	call	_ZNSt19basic_istringstreamIcSt11char_traitsIcESaIcEEC1ERKSsSt13_Ios_Openmode	#
.LEHE63:
	jmp	.L278	#
.L261:
.L232:
	movl	%edx, %ebx	# tmp126, save_filt.3116
	movq	%rax, %r12	# tmp127, save_eptr.3115
	leaq	-80(%rbp), %rax	#, tmp160
	movq	%rax, %rdi	# tmp160,
	call	_ZNSsD1Ev	#
	movq	%r12, %rax	# save_eptr.3115, tmp127
	movslq	%ebx,%rdx	# save_filt.3116, tmp126
	jmp	.L235	#
.L278:
	leaq	-80(%rbp), %rax	#, tmp161
	movq	%rax, %rdi	# tmp161,
.LEHB64:
	call	_ZNSsD1Ev	#
.LEHE64:
	jmp	.L279	#
.L260:
.L234:
	movl	%edx, %ebx	# tmp126, save_filt.3118
	movq	%rax, %r12	# tmp127, save_eptr.3117
	leaq	-544(%rbp), %rax	#, tmp162
	movq	%rax, %rdi	# tmp162,
	call	_ZNSt19basic_istringstreamIcSt11char_traitsIcESaIcEED1Ev	#
	movq	%r12, %rax	# save_eptr.3117, tmp127
	movslq	%ebx,%rdx	# save_filt.3118, tmp126
	jmp	.L235	#
.L262:
.L235:
	movl	%edx, %ebx	# tmp126, save_filt.3120
	movq	%rax, %r12	# tmp127, save_eptr.3119
	leaq	-65(%rbp), %rax	#, tmp163
	movq	%rax, %rdi	# tmp163,
	call	_ZNSaIcED1Ev	#
	movq	%r12, %rax	# save_eptr.3119, tmp127
	movslq	%ebx,%rdx	# save_filt.3120, tmp126
	jmp	.L242	#
.L279:
	leaq	-65(%rbp), %rax	#, tmp164
	movq	%rax, %rdi	# tmp164,
	call	_ZNSaIcED1Ev	#
	leaq	-148(%rbp), %rdx	#, tmp165
	leaq	-544(%rbp), %rax	#, tmp166
	movq	%rdx, %rsi	# tmp165,
	movq	%rax, %rdi	# tmp166,
.LEHB65:
	call	_ZNSirsERf	#
	leaq	-153(%rbp), %rdx	#, tmp167
	movq	%rdx, %rsi	# tmp167,
	movq	%rax, %rdi	# D.160157,
	call	_ZStrsIcSt11char_traitsIcEERSt13basic_istreamIT_T0_ES6_RS3_	#
	leaq	-152(%rbp), %rdx	#, tmp168
	movq	%rdx, %rsi	# tmp168,
	movq	%rax, %rdi	# D.160158,
	call	_ZNSirsERf	#
.LEHE65:
	jmp	.L280	#
.L259:
.L237:
	movl	%edx, %ebx	# tmp126, save_filt.3122
	movq	%rax, %r12	# tmp127, save_eptr.3121
	leaq	-544(%rbp), %rax	#, tmp169
	movq	%rax, %rdi	# tmp169,
	call	_ZNSt19basic_istringstreamIcSt11char_traitsIcESaIcEED1Ev	#
	movq	%r12, %rax	# save_eptr.3121, tmp127
	movslq	%ebx,%rdx	# save_filt.3122, tmp126
	jmp	.L242	#
.L280:
	leaq	-544(%rbp), %rax	#, tmp170
	movq	%rax, %rdi	# tmp170,
.LEHB66:
	call	_ZNSt19basic_istringstreamIcSt11char_traitsIcESaIcEED1Ev	#
	jmp	.L229	#
.L230:
	leaq	-176(%rbp), %rax	#, tmp171
	movl	$.LC7, %esi	#,
	movq	%rax, %rdi	# tmp171,
	call	_ZSteqIcSt11char_traitsIcESaIcEEbRKSbIT_T0_T1_EPKS3_	#
	testb	%al, %al	# retval.1927
	je	.L238	#,
	movq	-40(%rbp), %rax	# n, tmp172
	movq	%rax, %rdi	# tmp172,
	call	_ZNK8tinyxml210XMLElement7GetTextEv	#
	movq	%rax, %rdx	#, D.160164
	leaq	-128(%rbp), %rax	#, tmp173
	movq	%rdx, %rsi	# D.160164,
	movq	%rax, %rdi	# tmp173,
	call	_ZNSsaSEPKc	#
	jmp	.L229	#
.L238:
	leaq	-176(%rbp), %rax	#, tmp174
	movl	$.LC8, %esi	#,
	movq	%rax, %rdi	# tmp174,
	call	_ZSteqIcSt11char_traitsIcESaIcEEbRKSbIT_T0_T1_EPKS3_	#
	testb	%al, %al	# D.160171
	jne	.L239	#,
	leaq	-176(%rbp), %rax	#, tmp175
	movl	$.LC9, %esi	#,
	movq	%rax, %rdi	# tmp175,
	call	_ZSteqIcSt11char_traitsIcESaIcEEbRKSbIT_T0_T1_EPKS3_	#
	testb	%al, %al	# D.160173
	je	.L240	#,
.L239:
	movl	$1, %eax	#, iftmp.1929
	jmp	.L241	#
.L240:
	movl	$0, %eax	#, iftmp.1929
.L241:
	testb	%al, %al	# retval.1928
	je	.L229	#,
	movq	-40(%rbp), %rax	# n, tmp176
	movq	%rax, %rdi	# tmp176,
	call	_ZNK8tinyxml210XMLElement7GetTextEv	#
	movq	%rax, %rdx	#, D.160176
	leaq	-144(%rbp), %rax	#, tmp177
	movq	%rdx, %rsi	# D.160176,
	movq	%rax, %rdi	# tmp177,
	call	_ZNSsaSEPKc	#
.LEHE66:
	jmp	.L229	#
.L263:
.L242:
	movl	%edx, %ebx	# tmp126, save_filt.3124
	movq	%rax, %r12	# tmp127, save_eptr.3123
	leaq	-176(%rbp), %rax	#, tmp178
	movq	%rax, %rdi	# tmp178,
	call	_ZNSsD1Ev	#
	movq	%r12, %rax	# save_eptr.3123, tmp127
	movslq	%ebx,%rdx	# save_filt.3124, tmp126
	jmp	.L249	#
.L229:
	leaq	-176(%rbp), %rax	#, tmp179
	movq	%rax, %rdi	# tmp179,
.LEHB67:
	call	_ZNSsD1Ev	#
	movq	-40(%rbp), %rax	# n, D.160178
	movl	$0, %esi	#,
	movq	%rax, %rdi	# D.160178,
	call	_ZN8tinyxml27XMLNode18NextSiblingElementEPKc	#
	movq	%rax, -40(%rbp)	# n.1930, n
.L225:
	cmpq	$0, -40(%rbp)	#, n
	setne	%al	#, D.160142
	testb	%al, %al	# D.160142
	jne	.L243	#,
	movq	%rbx, %r12	# <result>, D.160180
	leaq	-144(%rbp), %rdx	#, tmp180
	leaq	-64(%rbp), %rax	#, tmp181
	movq	%rdx, %rsi	# tmp180,
	movq	%rax, %rdi	# tmp181,
	call	_ZNSsC1ERKSs	#
.LEHE67:
	leaq	-128(%rbp), %rax	#, tmp182
	movl	$.LC10, %esi	#,
	movq	%rax, %rdi	# tmp182,
.LEHB68:
	call	_ZSteqIcSt11char_traitsIcESaIcEEbRKSbIT_T0_T1_EPKS3_	#
	movzbl	%al, %r14d	# D.160181, D.160182
	movss	-152(%rbp), %xmm0	# y1,
	movss	%xmm0, -568(%rbp)	#, %sfp
	movss	-148(%rbp), %xmm0	# x1,
	movss	%xmm0, -564(%rbp)	#, %sfp
	leaq	-96(%rbp), %rax	#, tmp183
	movl	$.LC11, %esi	#,
	movq	%rax, %rdi	# tmp183,
	call	_ZSteqIcSt11char_traitsIcESaIcEEbRKSbIT_T0_T1_EPKS3_	#
	movzbl	%al, %r13d	# D.160185, D.160186
	leaq	-112(%rbp), %rdx	#, tmp184
	leaq	-48(%rbp), %rax	#, tmp185
	movq	%rdx, %rsi	# tmp184,
	movq	%rax, %rdi	# tmp185,
	call	_ZNSsC1ERKSs	#
.LEHE68:
	leaq	-64(%rbp), %rdx	#, tmp186
	leaq	-48(%rbp), %rax	#, tmp187
	movq	%rdx, %r8	# tmp186,
	movl	%r14d, %ecx	# D.160182,
	movss	-568(%rbp), %xmm1	# %sfp,
	movss	-564(%rbp), %xmm0	# %sfp,
	movl	%r13d, %edx	# D.160186,
	movq	%rax, %rsi	# tmp187,
	movq	%r12, %rdi	# D.160180,
.LEHB69:
	call	_ZN9lgHotspotC1ESsbffbSs	#
.LEHE69:
	jmp	.L281	#
.L257:
.L245:
	movl	%edx, %ebx	# tmp126, save_filt.3126
	movq	%rax, %r12	# tmp127, save_eptr.3125
	leaq	-48(%rbp), %rax	#, tmp188
	movq	%rax, %rdi	# tmp188,
	call	_ZNSsD1Ev	#
	movq	%r12, %rax	# save_eptr.3125, tmp127
	movslq	%ebx,%rdx	# save_filt.3126, tmp126
	jmp	.L247	#
.L281:
	leaq	-48(%rbp), %rax	#, tmp189
	movq	%rax, %rdi	# tmp189,
.LEHB70:
	call	_ZNSsD1Ev	#
.LEHE70:
	jmp	.L282	#
.L258:
.L247:
	movl	%edx, %ebx	# tmp126, save_filt.3128
	movq	%rax, %r12	# tmp127, save_eptr.3127
	leaq	-64(%rbp), %rax	#, tmp190
	movq	%rax, %rdi	# tmp190,
	call	_ZNSsD1Ev	#
	movq	%r12, %rax	# save_eptr.3127, tmp127
	movslq	%ebx,%rdx	# save_filt.3128, tmp126
	jmp	.L249	#
.L282:
	leaq	-64(%rbp), %rax	#, tmp191
	movq	%rax, %rdi	# tmp191,
.LEHB71:
	call	_ZNSsD1Ev	#
.LEHE71:
	jmp	.L283	#
.L265:
.L249:
	movl	%edx, %ebx	# tmp126, save_filt.3130
	movq	%rax, %r12	# tmp127, save_eptr.3129
	leaq	-144(%rbp), %rax	#, tmp192
	movq	%rax, %rdi	# tmp192,
	call	_ZNSsD1Ev	#
	movq	%r12, %rax	# save_eptr.3129, tmp127
	movslq	%ebx,%rdx	# save_filt.3130, tmp126
	jmp	.L251	#
.L283:
	leaq	-144(%rbp), %rax	#, tmp193
	movq	%rax, %rdi	# tmp193,
.LEHB72:
	call	_ZNSsD1Ev	#
.LEHE72:
	jmp	.L284	#
.L267:
.L251:
	movl	%edx, %ebx	# tmp126, save_filt.3132
	movq	%rax, %r12	# tmp127, save_eptr.3131
	leaq	-128(%rbp), %rax	#, tmp194
	movq	%rax, %rdi	# tmp194,
	call	_ZNSsD1Ev	#
	movq	%r12, %rax	# save_eptr.3131, tmp127
	movslq	%ebx,%rdx	# save_filt.3132, tmp126
	jmp	.L253	#
.L284:
	leaq	-128(%rbp), %rax	#, tmp195
	movq	%rax, %rdi	# tmp195,
.LEHB73:
	call	_ZNSsD1Ev	#
.LEHE73:
	jmp	.L285	#
.L269:
.L253:
	movl	%edx, %ebx	# tmp126, save_filt.3134
	movq	%rax, %r12	# tmp127, save_eptr.3133
	leaq	-112(%rbp), %rax	#, tmp196
	movq	%rax, %rdi	# tmp196,
	call	_ZNSsD1Ev	#
	movq	%r12, %rax	# save_eptr.3133, tmp127
	movslq	%ebx,%rdx	# save_filt.3134, tmp126
	jmp	.L255	#
.L285:
	leaq	-112(%rbp), %rax	#, tmp197
	movq	%rax, %rdi	# tmp197,
.LEHB74:
	call	_ZNSsD1Ev	#
.LEHE74:
	jmp	.L286	#
.L271:
.L255:
	movl	%edx, %ebx	# tmp126, save_filt.3136
	movq	%rax, %r12	# tmp127, save_eptr.3135
	leaq	-96(%rbp), %rax	#, tmp198
	movq	%rax, %rdi	# tmp198,
	call	_ZNSsD1Ev	#
	movq	%r12, %rax	# save_eptr.3135, tmp127
	movslq	%ebx,%rdx	# save_filt.3136, tmp126
	movq	%rax, %rdi	# tmp127,
.LEHB75:
	call	_Unwind_Resume	#
.L286:
	leaq	-96(%rbp), %rax	#, tmp199
	movq	%rax, %rdi	# tmp199,
	call	_ZNSsD1Ev	#
.LEHE75:
	movq	%rbx, %rax	# <result>,
	movq	%rbx, %rax	# <result>,
	addq	$544, %rsp	#,
	popq	%rbx	#
	popq	%r12	#
	popq	%r13	#
	popq	%r14	#
	leave
	ret
	.cfi_endproc
.LFE11162:
	.size	_ZN12LibraryParse12parseHotspotEPN8tinyxml210XMLElementE, .-_ZN12LibraryParse12parseHotspotEPN8tinyxml210XMLElementE
	.section	.gcc_except_table
.LLSDA11162:
	.byte	0xff
	.byte	0xff
	.byte	0x1
	.uleb128 .LLSDACSE11162-.LLSDACSB11162
.LLSDACSB11162:
	.uleb128 .LEHB54-.LFB11162
	.uleb128 .LEHE54-.LEHB54
	.uleb128 .L272-.LFB11162
	.uleb128 0x0
	.uleb128 .LEHB55-.LFB11162
	.uleb128 .LEHE55-.LEHB55
	.uleb128 0x0
	.uleb128 0x0
	.uleb128 .LEHB56-.LFB11162
	.uleb128 .LEHE56-.LEHB56
	.uleb128 .L270-.LFB11162
	.uleb128 0x0
	.uleb128 .LEHB57-.LFB11162
	.uleb128 .LEHE57-.LEHB57
	.uleb128 .L268-.LFB11162
	.uleb128 0x0
	.uleb128 .LEHB58-.LFB11162
	.uleb128 .LEHE58-.LEHB58
	.uleb128 .L266-.LFB11162
	.uleb128 0x0
	.uleb128 .LEHB59-.LFB11162
	.uleb128 .LEHE59-.LEHB59
	.uleb128 .L265-.LFB11162
	.uleb128 0x0
	.uleb128 .LEHB60-.LFB11162
	.uleb128 .LEHE60-.LEHB60
	.uleb128 .L264-.LFB11162
	.uleb128 0x0
	.uleb128 .LEHB61-.LFB11162
	.uleb128 .LEHE61-.LEHB61
	.uleb128 .L263-.LFB11162
	.uleb128 0x0
	.uleb128 .LEHB62-.LFB11162
	.uleb128 .LEHE62-.LEHB62
	.uleb128 .L262-.LFB11162
	.uleb128 0x0
	.uleb128 .LEHB63-.LFB11162
	.uleb128 .LEHE63-.LEHB63
	.uleb128 .L261-.LFB11162
	.uleb128 0x0
	.uleb128 .LEHB64-.LFB11162
	.uleb128 .LEHE64-.LEHB64
	.uleb128 .L260-.LFB11162
	.uleb128 0x0
	.uleb128 .LEHB65-.LFB11162
	.uleb128 .LEHE65-.LEHB65
	.uleb128 .L259-.LFB11162
	.uleb128 0x0
	.uleb128 .LEHB66-.LFB11162
	.uleb128 .LEHE66-.LEHB66
	.uleb128 .L263-.LFB11162
	.uleb128 0x0
	.uleb128 .LEHB67-.LFB11162
	.uleb128 .LEHE67-.LEHB67
	.uleb128 .L265-.LFB11162
	.uleb128 0x0
	.uleb128 .LEHB68-.LFB11162
	.uleb128 .LEHE68-.LEHB68
	.uleb128 .L258-.LFB11162
	.uleb128 0x0
	.uleb128 .LEHB69-.LFB11162
	.uleb128 .LEHE69-.LEHB69
	.uleb128 .L257-.LFB11162
	.uleb128 0x0
	.uleb128 .LEHB70-.LFB11162
	.uleb128 .LEHE70-.LEHB70
	.uleb128 .L258-.LFB11162
	.uleb128 0x0
	.uleb128 .LEHB71-.LFB11162
	.uleb128 .LEHE71-.LEHB71
	.uleb128 .L265-.LFB11162
	.uleb128 0x0
	.uleb128 .LEHB72-.LFB11162
	.uleb128 .LEHE72-.LEHB72
	.uleb128 .L267-.LFB11162
	.uleb128 0x0
	.uleb128 .LEHB73-.LFB11162
	.uleb128 .LEHE73-.LEHB73
	.uleb128 .L269-.LFB11162
	.uleb128 0x0
	.uleb128 .LEHB74-.LFB11162
	.uleb128 .LEHE74-.LEHB74
	.uleb128 .L271-.LFB11162
	.uleb128 0x0
	.uleb128 .LEHB75-.LFB11162
	.uleb128 .LEHE75-.LEHB75
	.uleb128 0x0
	.uleb128 0x0
.LLSDACSE11162:
	.text
	.section	.rodata
.LC12:
	.string	"line"
.LC13:
	.string	"circle"
	.text
	.align 2
.globl _ZN12LibraryParse10parseShapeEP11LibraryGatePN8tinyxml210XMLElementEff
	.type	_ZN12LibraryParse10parseShapeEP11LibraryGatePN8tinyxml210XMLElementEff, @function
_ZN12LibraryParse10parseShapeEP11LibraryGatePN8tinyxml210XMLElementEff:
.LFB11169:
	.cfi_startproc
	.cfi_personality 0x3,__gxx_personality_v0
	.cfi_lsda 0x3,.LLSDA11169
	pushq	%rbp	#
	.cfi_def_cfa_offset 16
	movq	%rsp, %rbp	#,
	.cfi_offset 6, -16
	.cfi_def_cfa_register 6
	pushq	%r12	#
	pushq	%rbx	#
	subq	$560, %rsp	#,
	movq	%rdi, -552(%rbp)	# this, this
	movq	%rsi, -560(%rbp)	# gate, gate
	movq	%rdx, -568(%rbp)	# shape, shape
	movss	%xmm0, -572(%rbp)	# dx, dx
	movss	%xmm1, -576(%rbp)	# dy, dy
	movq	-568(%rbp), %rax	# shape, D.160233
	movl	$.LC12, %esi	#,
	movq	%rax, %rdi	# D.160233,
.LEHB76:
	.cfi_offset 3, -32
	.cfi_offset 12, -24
	call	_ZN8tinyxml27XMLNode17FirstChildElementEPKc	#
.LEHE76:
	movq	%rax, -64(%rbp)	# line.1933, line
	jmp	.L288	#
.L296:
	leaq	-113(%rbp), %rax	#, tmp140
	movq	%rax, %rdi	# tmp140,
	call	_ZNSaIcEC1Ev	#
	movq	-64(%rbp), %rax	# line, tmp141
	movq	%rax, %rdi	# tmp141,
.LEHB77:
	call	_ZNK8tinyxml210XMLElement7GetTextEv	#
	movq	%rax, %rcx	#, D.160240
	leaq	-113(%rbp), %rdx	#, tmp142
	leaq	-128(%rbp), %rax	#, tmp143
	movq	%rcx, %rsi	# D.160240,
	movq	%rax, %rdi	# tmp143,
	call	_ZNSsC1EPKcRKSaIcE	#
.LEHE77:
	leaq	-128(%rbp), %rcx	#, tmp144
	leaq	-544(%rbp), %rax	#, tmp145
	movl	$8, %edx	#,
	movq	%rcx, %rsi	# tmp144,
	movq	%rax, %rdi	# tmp145,
.LEHB78:
	call	_ZNSt19basic_istringstreamIcSt11char_traitsIcESaIcEEC1ERKSsSt13_Ios_Openmode	#
.LEHE78:
	jmp	.L317	#
.L315:
.L290:
	movl	%edx, %ebx	# tmp146, save_filt.3088
	movq	%rax, %r12	# tmp147, save_eptr.3087
	leaq	-128(%rbp), %rax	#, tmp148
	movq	%rax, %rdi	# tmp148,
	call	_ZNSsD1Ev	#
	movq	%r12, %rax	# save_eptr.3087, tmp147
	movslq	%ebx,%rdx	# save_filt.3088, tmp146
	jmp	.L293	#
.L317:
	leaq	-128(%rbp), %rax	#, tmp149
	movq	%rax, %rdi	# tmp149,
.LEHB79:
	call	_ZNSsD1Ev	#
.LEHE79:
	jmp	.L318	#
.L314:
.L292:
	movl	%edx, %ebx	# tmp146, save_filt.3090
	movq	%rax, %r12	# tmp147, save_eptr.3089
	leaq	-544(%rbp), %rax	#, tmp150
	movq	%rax, %rdi	# tmp150,
	call	_ZNSt19basic_istringstreamIcSt11char_traitsIcESaIcEED1Ev	#
	movq	%r12, %rax	# save_eptr.3089, tmp147
	movslq	%ebx,%rdx	# save_filt.3090, tmp146
	jmp	.L293	#
.L316:
.L293:
	movl	%edx, %ebx	# tmp146, save_filt.3092
	movq	%rax, %r12	# tmp147, save_eptr.3091
	leaq	-113(%rbp), %rax	#, tmp151
	movq	%rax, %rdi	# tmp151,
	call	_ZNSaIcED1Ev	#
	movq	%r12, %rax	# save_eptr.3091, tmp147
	movslq	%ebx,%rdx	# save_filt.3092, tmp146
	movq	%rax, %rdi	# tmp147,
.LEHB80:
	call	_Unwind_Resume	#
.LEHE80:
.L318:
	leaq	-113(%rbp), %rax	#, tmp152
	movq	%rax, %rdi	# tmp152,
	call	_ZNSaIcED1Ev	#
	leaq	-132(%rbp), %rdx	#, tmp153
	leaq	-544(%rbp), %rax	#, tmp154
	movq	%rdx, %rsi	# tmp153,
	movq	%rax, %rdi	# tmp154,
.LEHB81:
	call	_ZNSirsERf	#
	leaq	-145(%rbp), %rdx	#, tmp155
	movq	%rdx, %rsi	# tmp155,
	movq	%rax, %rdi	# D.160241,
	call	_ZStrsIcSt11char_traitsIcEERSt13basic_istreamIT_T0_ES6_RS3_	#
	leaq	-140(%rbp), %rdx	#, tmp156
	movq	%rdx, %rsi	# tmp156,
	movq	%rax, %rdi	# D.160242,
	call	_ZNSirsERf	#
	leaq	-145(%rbp), %rdx	#, tmp157
	movq	%rdx, %rsi	# tmp157,
	movq	%rax, %rdi	# D.160243,
	call	_ZStrsIcSt11char_traitsIcEERSt13basic_istreamIT_T0_ES6_RS3_	#
	leaq	-136(%rbp), %rdx	#, tmp158
	movq	%rdx, %rsi	# tmp158,
	movq	%rax, %rdi	# D.160244,
	call	_ZNSirsERf	#
	leaq	-145(%rbp), %rdx	#, tmp159
	movq	%rdx, %rsi	# tmp159,
	movq	%rax, %rdi	# D.160245,
	call	_ZStrsIcSt11char_traitsIcEERSt13basic_istreamIT_T0_ES6_RS3_	#
	leaq	-144(%rbp), %rdx	#, tmp160
	movq	%rdx, %rsi	# tmp160,
	movq	%rax, %rdi	# D.160246,
	call	_ZNSirsERf	#
	movss	-144(%rbp), %xmm0	# y2, y2.1934
	movaps	%xmm0, %xmm3	# y2.1934, D.160248
	addss	-576(%rbp), %xmm3	# dy, D.160248
	movss	-136(%rbp), %xmm0	# x2, x2.1935
	movaps	%xmm0, %xmm2	# x2.1935, D.160250
	addss	-572(%rbp), %xmm2	# dx, D.160250
	movss	-140(%rbp), %xmm0	# y1, y1.1936
	movaps	%xmm0, %xmm1	# y1.1936, D.160252
	addss	-576(%rbp), %xmm1	# dy, D.160252
	movss	-132(%rbp), %xmm0	# x1, x1.1937
	addss	-572(%rbp), %xmm0	# dx, D.160254
	leaq	-112(%rbp), %rax	#, tmp161
	movq	%rax, %rdi	# tmp161,
	call	_ZN6lgLineC1Effff	#
	movq	-560(%rbp), %rax	# gate, tmp162
	leaq	56(%rax), %rdx	#, D.160255
	leaq	-112(%rbp), %rax	#, tmp163
	movq	%rax, %rsi	# tmp163,
	movq	%rdx, %rdi	# D.160255,
	call	_ZNSt6vectorI6lgLineSaIS0_EE9push_backERKS0_	#
.LEHE81:
	jmp	.L319	#
.L313:
.L295:
	movl	%edx, %ebx	# tmp146, save_filt.3094
	movq	%rax, %r12	# tmp147, save_eptr.3093
	leaq	-544(%rbp), %rax	#, tmp164
	movq	%rax, %rdi	# tmp164,
	call	_ZNSt19basic_istringstreamIcSt11char_traitsIcESaIcEED1Ev	#
	movq	%r12, %rax	# save_eptr.3093, tmp147
	movslq	%ebx,%rdx	# save_filt.3094, tmp146
	movq	%rax, %rdi	# tmp147,
.LEHB82:
	call	_Unwind_Resume	#
.L319:
	leaq	-544(%rbp), %rax	#, tmp165
	movq	%rax, %rdi	# tmp165,
	call	_ZNSt19basic_istringstreamIcSt11char_traitsIcESaIcEED1Ev	#
	movq	-64(%rbp), %rax	# line, D.160256
	movl	$.LC12, %esi	#,
	movq	%rax, %rdi	# D.160256,
	call	_ZN8tinyxml27XMLNode18NextSiblingElementEPKc	#
	movq	%rax, -64(%rbp)	# line.1938, line
.L288:
	cmpq	$0, -64(%rbp)	#, line
	setne	%al	#, D.160238
	testb	%al, %al	# D.160238
	jne	.L296	#,
	movq	-568(%rbp), %rax	# shape, D.160258
	movl	$.LC13, %esi	#,
	movq	%rax, %rdi	# D.160258,
	call	_ZN8tinyxml27XMLNode17FirstChildElementEPKc	#
.LEHE82:
	movq	%rax, -56(%rbp)	# line.1939, line
	jmp	.L297	#
.L307:
	leaq	-81(%rbp), %rax	#, tmp166
	movq	%rax, %rdi	# tmp166,
	call	_ZNSaIcEC1Ev	#
	movq	-56(%rbp), %rax	# line, tmp167
	movq	%rax, %rdi	# tmp167,
.LEHB83:
	call	_ZNK8tinyxml210XMLElement7GetTextEv	#
	movq	%rax, %rcx	#, D.160265
	leaq	-81(%rbp), %rdx	#, tmp168
	leaq	-96(%rbp), %rax	#, tmp169
	movq	%rcx, %rsi	# D.160265,
	movq	%rax, %rdi	# tmp169,
	call	_ZNSsC1EPKcRKSaIcE	#
.LEHE83:
	leaq	-96(%rbp), %rcx	#, tmp170
	leaq	-544(%rbp), %rax	#, tmp171
	movl	$8, %edx	#,
	movq	%rcx, %rsi	# tmp170,
	movq	%rax, %rdi	# tmp171,
.LEHB84:
	call	_ZNSt19basic_istringstreamIcSt11char_traitsIcESaIcEEC1ERKSsSt13_Ios_Openmode	#
.LEHE84:
	jmp	.L320	#
.L311:
.L299:
	movl	%edx, %ebx	# tmp146, save_filt.3096
	movq	%rax, %r12	# tmp147, save_eptr.3095
	leaq	-96(%rbp), %rax	#, tmp172
	movq	%rax, %rdi	# tmp172,
	call	_ZNSsD1Ev	#
	movq	%r12, %rax	# save_eptr.3095, tmp147
	movslq	%ebx,%rdx	# save_filt.3096, tmp146
	jmp	.L302	#
.L320:
	leaq	-96(%rbp), %rax	#, tmp173
	movq	%rax, %rdi	# tmp173,
.LEHB85:
	call	_ZNSsD1Ev	#
.LEHE85:
	jmp	.L321	#
.L310:
.L301:
	movl	%edx, %ebx	# tmp146, save_filt.3098
	movq	%rax, %r12	# tmp147, save_eptr.3097
	leaq	-544(%rbp), %rax	#, tmp174
	movq	%rax, %rdi	# tmp174,
	call	_ZNSt19basic_istringstreamIcSt11char_traitsIcESaIcEED1Ev	#
	movq	%r12, %rax	# save_eptr.3097, tmp147
	movslq	%ebx,%rdx	# save_filt.3098, tmp146
	jmp	.L302	#
.L312:
.L302:
	movl	%edx, %ebx	# tmp146, save_filt.3100
	movq	%rax, %r12	# tmp147, save_eptr.3099
	leaq	-81(%rbp), %rax	#, tmp175
	movq	%rax, %rdi	# tmp175,
	call	_ZNSaIcED1Ev	#
	movq	%r12, %rax	# save_eptr.3099, tmp147
	movslq	%ebx,%rdx	# save_filt.3100, tmp146
	movq	%rax, %rdi	# tmp147,
.LEHB86:
	call	_Unwind_Resume	#
.LEHE86:
.L321:
	leaq	-81(%rbp), %rax	#, tmp176
	movq	%rax, %rdi	# tmp176,
	call	_ZNSaIcED1Ev	#
	movabsq	$4607182418800017408, %rax	#, tmp177
	movq	%rax, -160(%rbp)	# tmp177, radius
	movq	$12, -168(%rbp)	#, numSegs
	leaq	-172(%rbp), %rdx	#, tmp178
	leaq	-544(%rbp), %rax	#, tmp179
	movq	%rdx, %rsi	# tmp178,
	movq	%rax, %rdi	# tmp179,
.LEHB87:
	call	_ZNSirsERf	#
	leaq	-177(%rbp), %rdx	#, tmp180
	movq	%rdx, %rsi	# tmp180,
	movq	%rax, %rdi	# D.160266,
	call	_ZStrsIcSt11char_traitsIcEERSt13basic_istreamIT_T0_ES6_RS3_	#
	leaq	-176(%rbp), %rdx	#, tmp181
	movq	%rdx, %rsi	# tmp181,
	movq	%rax, %rdi	# D.160267,
	call	_ZNSirsERf	#
	leaq	-177(%rbp), %rdx	#, tmp182
	movq	%rdx, %rsi	# tmp182,
	movq	%rax, %rdi	# D.160268,
	call	_ZStrsIcSt11char_traitsIcEERSt13basic_istreamIT_T0_ES6_RS3_	#
	leaq	-160(%rbp), %rdx	#, tmp183
	movq	%rdx, %rsi	# tmp183,
	movq	%rax, %rdi	# D.160269,
	call	_ZNSirsERd	#
	leaq	-177(%rbp), %rdx	#, tmp184
	movq	%rdx, %rsi	# tmp184,
	movq	%rax, %rdi	# D.160270,
	call	_ZStrsIcSt11char_traitsIcEERSt13basic_istreamIT_T0_ES6_RS3_	#
	leaq	-168(%rbp), %rdx	#, tmp185
	movq	%rdx, %rsi	# tmp185,
	movq	%rax, %rdi	# D.160271,
	call	_ZNSirsERl	#
	movss	-172(%rbp), %xmm0	# x1, x1.1940
	addss	-572(%rbp), %xmm0	# dx, x1.1941
	movss	%xmm0, -172(%rbp)	# x1.1941, x1
	movss	-176(%rbp), %xmm0	# y1, y1.1942
	addss	-576(%rbp), %xmm0	# dy, y1.1943
	movss	%xmm0, -176(%rbp)	# y1.1943, y1
	movl	$0x3c8efa2d, %eax	#, tmp186
	movl	%eax, -48(%rbp)	# tmp186, DEG2RAD
	movss	-172(%rbp), %xmm1	# x1, x1.1944
	xorps	%xmm0, %xmm0	# tmp187
	addss	%xmm1, %xmm0	# x1.1944, tmp188
	movss	%xmm0, -44(%rbp)	# tmp188, theX
	movss	-176(%rbp), %xmm1	# y1, y1.1945
	xorps	%xmm0, %xmm0	# tmp189
	addss	%xmm1, %xmm0	# y1.1945, tmp190
	movss	%xmm0, -40(%rbp)	# tmp190, theY
	movsd	-160(%rbp), %xmm1	# radius, radius.1946
	xorpd	%xmm0, %xmm0	# tmp191
	mulsd	%xmm0, %xmm1	# tmp191, D.160279
	movss	-172(%rbp), %xmm0	# x1, x1.1947
	unpcklps	%xmm0, %xmm0	# x1.1947, x1.1947
	cvtps2pd	%xmm0, %xmm0	# x1.1947, D.160281
	addsd	%xmm1, %xmm0	# D.160279, D.160282
	unpcklpd	%xmm0, %xmm0	# D.160282
	cvtpd2ps	%xmm0, %xmm0	# D.160282,
	movss	%xmm0, -36(%rbp)	#, lastX
	movss	-176(%rbp), %xmm0	# y1, y1.1948
	unpcklps	%xmm0, %xmm0	# y1.1948, y1.1948
	cvtps2pd	%xmm0, %xmm0	# y1.1948, D.160284
	movsd	-160(%rbp), %xmm1	# radius, radius.1949
	addsd	%xmm1, %xmm0	# radius.1949, D.160286
	unpcklpd	%xmm0, %xmm0	# D.160286
	cvtpd2ps	%xmm0, %xmm0	# D.160286,
	movss	%xmm0, -32(%rbp)	#, lastY
	movq	-168(%rbp), %rax	# numSegs, numSegs.1950
	cvtsi2ssq	%rax, %xmm0	# numSegs.1950, D.160288
	movss	.LC18(%rip), %xmm1	#, tmp192
	movaps	%xmm1, %xmm2	# tmp192,
	divss	%xmm0, %xmm2	# D.160288,
	movaps	%xmm2, %xmm0	#, tmp193
	movss	%xmm0, -28(%rbp)	# tmp193, degStep
	movl	-28(%rbp), %eax	# degStep, tmp194
	movl	%eax, -24(%rbp)	# tmp194, i
	jmp	.L303	#
.L304:
	movss	-24(%rbp), %xmm1	# i, tmp195
	movss	.LC15(%rip), %xmm0	#, tmp196
	mulss	%xmm1, %xmm0	# tmp195, tmp197
	movss	%xmm0, -20(%rbp)	# tmp197, degInRad
	movss	-20(%rbp), %xmm0	# degInRad, D.160294
	cvtps2pd	%xmm0, %xmm0	# D.160294, D.160294
	call	sin	#
	movsd	-160(%rbp), %xmm1	# radius, radius.1951
	mulsd	%xmm0, %xmm1	# D.160295, D.160297
	movss	-172(%rbp), %xmm0	# x1, x1.1952
	unpcklps	%xmm0, %xmm0	# x1.1952, x1.1952
	cvtps2pd	%xmm0, %xmm0	# x1.1952, D.160299
	addsd	%xmm1, %xmm0	# D.160297, D.160300
	unpcklpd	%xmm0, %xmm0	# D.160300
	cvtpd2ps	%xmm0, %xmm0	# D.160300,
	movss	%xmm0, -44(%rbp)	#, theX
	movss	-20(%rbp), %xmm0	# degInRad, D.160301
	cvtps2pd	%xmm0, %xmm0	# D.160301, D.160301
	call	cos	#
	movsd	-160(%rbp), %xmm1	# radius, radius.1953
	mulsd	%xmm0, %xmm1	# D.160302, D.160304
	movss	-176(%rbp), %xmm0	# y1, y1.1954
	unpcklps	%xmm0, %xmm0	# y1.1954, y1.1954
	cvtps2pd	%xmm0, %xmm0	# y1.1954, D.160306
	addsd	%xmm1, %xmm0	# D.160304, D.160307
	unpcklpd	%xmm0, %xmm0	# D.160307
	cvtpd2ps	%xmm0, %xmm0	# D.160307,
	movss	%xmm0, -40(%rbp)	#, theY
	movss	-40(%rbp), %xmm3	# theY, tmp198
	movss	-44(%rbp), %xmm2	# theX, tmp199
	movss	-32(%rbp), %xmm1	# lastY, tmp200
	movss	-36(%rbp), %xmm0	# lastX, tmp201
	leaq	-80(%rbp), %rax	#, tmp202
	movq	%rax, %rdi	# tmp202,
	call	_ZN6lgLineC1Effff	#
	movq	-560(%rbp), %rax	# gate, tmp203
	leaq	56(%rax), %rdx	#, D.160308
	leaq	-80(%rbp), %rax	#, tmp204
	movq	%rax, %rsi	# tmp204,
	movq	%rdx, %rdi	# D.160308,
	call	_ZNSt6vectorI6lgLineSaIS0_EE9push_backERKS0_	#
.LEHE87:
	movl	-44(%rbp), %eax	# theX, tmp205
	movl	%eax, -36(%rbp)	# tmp205, lastX
	movl	-40(%rbp), %eax	# theY, tmp206
	movl	%eax, -32(%rbp)	# tmp206, lastY
	movss	-24(%rbp), %xmm0	# i, tmp207
	addss	-28(%rbp), %xmm0	# degStep, tmp208
	movss	%xmm0, -24(%rbp)	# tmp208, i
.L303:
	movss	-24(%rbp), %xmm1	# i, tmp209
	movss	.LC18(%rip), %xmm0	#, tmp210
	ucomiss	%xmm1, %xmm0	# tmp209, tmp210
	setae	%al	#, D.160292
	testb	%al, %al	# D.160292
	jne	.L304	#,
	jmp	.L322	#
.L309:
.L306:
	movl	%edx, %ebx	# tmp146, save_filt.3102
	movq	%rax, %r12	# tmp147, save_eptr.3101
	leaq	-544(%rbp), %rax	#, tmp211
	movq	%rax, %rdi	# tmp211,
	call	_ZNSt19basic_istringstreamIcSt11char_traitsIcESaIcEED1Ev	#
	movq	%r12, %rax	# save_eptr.3101, tmp147
	movslq	%ebx,%rdx	# save_filt.3102, tmp146
	movq	%rax, %rdi	# tmp147,
.LEHB88:
	call	_Unwind_Resume	#
.L322:
	leaq	-544(%rbp), %rax	#, tmp212
	movq	%rax, %rdi	# tmp212,
	call	_ZNSt19basic_istringstreamIcSt11char_traitsIcESaIcEED1Ev	#
	movq	-56(%rbp), %rax	# line, D.160309
	movl	$.LC13, %esi	#,
	movq	%rax, %rdi	# D.160309,
	call	_ZN8tinyxml27XMLNode18NextSiblingElementEPKc	#
.LEHE88:
	movq	%rax, -56(%rbp)	# line.1955, line
.L297:
	cmpq	$0, -56(%rbp)	#, line
	setne	%al	#, D.160263
	testb	%al, %al	# D.160263
	jne	.L307	#,
	addq	$560, %rsp	#,
	popq	%rbx	#
	popq	%r12	#
	leave
	ret
	.cfi_endproc
.LFE11169:
	.size	_ZN12LibraryParse10parseShapeEP11LibraryGatePN8tinyxml210XMLElementEff, .-_ZN12LibraryParse10parseShapeEP11LibraryGatePN8tinyxml210XMLElementEff
	.section	.gcc_except_table
.LLSDA11169:
	.byte	0xff
	.byte	0xff
	.byte	0x1
	.uleb128 .LLSDACSE11169-.LLSDACSB11169
.LLSDACSB11169:
	.uleb128 .LEHB76-.LFB11169
	.uleb128 .LEHE76-.LEHB76
	.uleb128 0x0
	.uleb128 0x0
	.uleb128 .LEHB77-.LFB11169
	.uleb128 .LEHE77-.LEHB77
	.uleb128 .L316-.LFB11169
	.uleb128 0x0
	.uleb128 .LEHB78-.LFB11169
	.uleb128 .LEHE78-.LEHB78
	.uleb128 .L315-.LFB11169
	.uleb128 0x0
	.uleb128 .LEHB79-.LFB11169
	.uleb128 .LEHE79-.LEHB79
	.uleb128 .L314-.LFB11169
	.uleb128 0x0
	.uleb128 .LEHB80-.LFB11169
	.uleb128 .LEHE80-.LEHB80
	.uleb128 0x0
	.uleb128 0x0
	.uleb128 .LEHB81-.LFB11169
	.uleb128 .LEHE81-.LEHB81
	.uleb128 .L313-.LFB11169
	.uleb128 0x0
	.uleb128 .LEHB82-.LFB11169
	.uleb128 .LEHE82-.LEHB82
	.uleb128 0x0
	.uleb128 0x0
	.uleb128 .LEHB83-.LFB11169
	.uleb128 .LEHE83-.LEHB83
	.uleb128 .L312-.LFB11169
	.uleb128 0x0
	.uleb128 .LEHB84-.LFB11169
	.uleb128 .LEHE84-.LEHB84
	.uleb128 .L311-.LFB11169
	.uleb128 0x0
	.uleb128 .LEHB85-.LFB11169
	.uleb128 .LEHE85-.LEHB85
	.uleb128 .L310-.LFB11169
	.uleb128 0x0
	.uleb128 .LEHB86-.LFB11169
	.uleb128 .LEHE86-.LEHB86
	.uleb128 0x0
	.uleb128 0x0
	.uleb128 .LEHB87-.LFB11169
	.uleb128 .LEHE87-.LEHB87
	.uleb128 .L309-.LFB11169
	.uleb128 0x0
	.uleb128 .LEHB88-.LFB11169
	.uleb128 .LEHE88-.LEHB88
	.uleb128 0x0
	.uleb128 0x0
.LLSDACSE11169:
	.text
	.align 2
.globl _ZN12LibraryParse11parseOffsetEP11LibraryGatePN8tinyxml210XMLElementE
	.type	_ZN12LibraryParse11parseOffsetEP11LibraryGatePN8tinyxml210XMLElementE, @function
_ZN12LibraryParse11parseOffsetEP11LibraryGatePN8tinyxml210XMLElementE:
.LFB11170:
	.cfi_startproc
	.cfi_personality 0x3,__gxx_personality_v0
	.cfi_lsda 0x3,.LLSDA11170
	pushq	%rbp	#
	.cfi_def_cfa_offset 16
	movq	%rsp, %rbp	#,
	.cfi_offset 6, -16
	.cfi_def_cfa_register 6
	pushq	%r12	#
	pushq	%rbx	#
	subq	$464, %rsp	#,
	movq	%rdi, -456(%rbp)	# this, this
	movq	%rsi, -464(%rbp)	# gate, gate
	movq	%rdx, -472(%rbp)	# offset, offset
	movq	-472(%rbp), %rax	# offset, D.160330
	movl	$0, %esi	#,
	movq	%rax, %rdi	# D.160330,
.LEHB89:
	.cfi_offset 3, -32
	.cfi_offset 12, -24
	call	_ZN8tinyxml27XMLNode17FirstChildElementEPKc	#
.LEHE89:
	movq	%rax, -24(%rbp)	# first.1956, first
	leaq	-49(%rbp), %rax	#, tmp80
	movq	%rax, %rdi	# tmp80,
	call	_ZNSaIcEC1Ev	#
	leaq	-49(%rbp), %rdx	#, tmp81
	leaq	-64(%rbp), %rax	#, tmp82
	movl	$.LC6, %esi	#,
	movq	%rax, %rdi	# tmp82,
.LEHB90:
	call	_ZNSsC1EPKcRKSaIcE	#
.LEHE90:
	movq	-24(%rbp), %rax	# first, tmp83
	movq	%rax, %rdi	# tmp83,
.LEHB91:
	call	_ZNK8tinyxml210XMLElement7GetTextEv	#
	leaq	-64(%rbp), %rdx	#, tmp84
	movq	%rdx, %rsi	# tmp84,
	movq	%rax, %rdi	# D.160333,
	call	_ZStneIcSt11char_traitsIcESaIcEEbPKT_RKSbIS3_T0_T1_E	#
.LEHE91:
	movl	%eax, %ebx	# D.160334, retval.1957
	leaq	-64(%rbp), %rax	#, tmp85
	movq	%rax, %rdi	# tmp85,
.LEHB92:
	call	_ZNSsD1Ev	#
.LEHE92:
	jmp	.L343	#
.L341:
.L325:
	movl	%edx, %ebx	# tmp86, save_filt.3076
	movq	%rax, %r12	# tmp87, save_eptr.3075
	leaq	-64(%rbp), %rax	#, tmp88
	movq	%rax, %rdi	# tmp88,
	call	_ZNSsD1Ev	#
	movq	%r12, %rax	# save_eptr.3075, tmp87
	movslq	%ebx,%rdx	# save_filt.3076, tmp86
	jmp	.L326	#
.L342:
.L326:
	movl	%edx, %ebx	# tmp86, save_filt.3078
	movq	%rax, %r12	# tmp87, save_eptr.3077
	leaq	-49(%rbp), %rax	#, tmp89
	movq	%rax, %rdi	# tmp89,
	call	_ZNSaIcED1Ev	#
	movq	%r12, %rax	# save_eptr.3077, tmp87
	movslq	%ebx,%rdx	# save_filt.3078, tmp86
	movq	%rax, %rdi	# tmp87,
.LEHB93:
	call	_Unwind_Resume	#
.LEHE93:
.L343:
	leaq	-49(%rbp), %rax	#, tmp90
	movq	%rax, %rdi	# tmp90,
	call	_ZNSaIcED1Ev	#
	testb	%bl, %bl	# retval.1957
	jne	.L347	#,
.L327:
	leaq	-25(%rbp), %rax	#, tmp91
	movq	%rax, %rdi	# tmp91,
	call	_ZNSaIcEC1Ev	#
	movq	-24(%rbp), %rax	# first, tmp92
	movq	%rax, %rdi	# tmp92,
.LEHB94:
	call	_ZNK8tinyxml210XMLElement7GetTextEv	#
	movq	%rax, %rcx	#, D.160337
	leaq	-25(%rbp), %rdx	#, tmp93
	leaq	-48(%rbp), %rax	#, tmp94
	movq	%rcx, %rsi	# D.160337,
	movq	%rax, %rdi	# tmp94,
	call	_ZNSsC1EPKcRKSaIcE	#
.LEHE94:
	leaq	-48(%rbp), %rcx	#, tmp95
	leaq	-448(%rbp), %rax	#, tmp96
	movl	$8, %edx	#,
	movq	%rcx, %rsi	# tmp95,
	movq	%rax, %rdi	# tmp96,
.LEHB95:
	call	_ZNSt19basic_istringstreamIcSt11char_traitsIcESaIcEEC1ERKSsSt13_Ios_Openmode	#
.LEHE95:
	jmp	.L344	#
.L339:
.L330:
	movl	%edx, %ebx	# tmp86, save_filt.3080
	movq	%rax, %r12	# tmp87, save_eptr.3079
	leaq	-48(%rbp), %rax	#, tmp97
	movq	%rax, %rdi	# tmp97,
	call	_ZNSsD1Ev	#
	movq	%r12, %rax	# save_eptr.3079, tmp87
	movslq	%ebx,%rdx	# save_filt.3080, tmp86
	jmp	.L333	#
.L344:
	leaq	-48(%rbp), %rax	#, tmp98
	movq	%rax, %rdi	# tmp98,
.LEHB96:
	call	_ZNSsD1Ev	#
.LEHE96:
	jmp	.L345	#
.L338:
.L332:
	movl	%edx, %ebx	# tmp86, save_filt.3082
	movq	%rax, %r12	# tmp87, save_eptr.3081
	leaq	-448(%rbp), %rax	#, tmp99
	movq	%rax, %rdi	# tmp99,
	call	_ZNSt19basic_istringstreamIcSt11char_traitsIcESaIcEED1Ev	#
	movq	%r12, %rax	# save_eptr.3081, tmp87
	movslq	%ebx,%rdx	# save_filt.3082, tmp86
	jmp	.L333	#
.L340:
.L333:
	movl	%edx, %ebx	# tmp86, save_filt.3084
	movq	%rax, %r12	# tmp87, save_eptr.3083
	leaq	-25(%rbp), %rax	#, tmp100
	movq	%rax, %rdi	# tmp100,
	call	_ZNSaIcED1Ev	#
	movq	%r12, %rax	# save_eptr.3083, tmp87
	movslq	%ebx,%rdx	# save_filt.3084, tmp86
	movq	%rax, %rdi	# tmp87,
.LEHB97:
	call	_Unwind_Resume	#
.LEHE97:
.L345:
	leaq	-25(%rbp), %rax	#, tmp101
	movq	%rax, %rdi	# tmp101,
	call	_ZNSaIcED1Ev	#
	leaq	-68(%rbp), %rdx	#, tmp102
	leaq	-448(%rbp), %rax	#, tmp103
	movq	%rdx, %rsi	# tmp102,
	movq	%rax, %rdi	# tmp103,
.LEHB98:
	call	_ZNSirsERf	#
	leaq	-73(%rbp), %rdx	#, tmp104
	movq	%rdx, %rsi	# tmp104,
	movq	%rax, %rdi	# D.160338,
	call	_ZStrsIcSt11char_traitsIcEERSt13basic_istreamIT_T0_ES6_RS3_	#
	leaq	-72(%rbp), %rdx	#, tmp105
	movq	%rdx, %rsi	# tmp105,
	movq	%rax, %rdi	# D.160339,
	call	_ZNSirsERf	#
	movss	-72(%rbp), %xmm1	# dy, dy.1958
	movss	-68(%rbp), %xmm0	# dx, dx.1959
	movq	-472(%rbp), %rdx	# offset, tmp106
	movq	-464(%rbp), %rcx	# gate, tmp107
	movq	-456(%rbp), %rax	# this, tmp108
	movq	%rcx, %rsi	# tmp107,
	movq	%rax, %rdi	# tmp108,
	call	_ZN12LibraryParse10parseShapeEP11LibraryGatePN8tinyxml210XMLElementEff	#
.LEHE98:
	jmp	.L346	#
.L337:
.L335:
	movl	%edx, %ebx	# tmp86, save_filt.3086
	movq	%rax, %r12	# tmp87, save_eptr.3085
	leaq	-448(%rbp), %rax	#, tmp109
	movq	%rax, %rdi	# tmp109,
	call	_ZNSt19basic_istringstreamIcSt11char_traitsIcESaIcEED1Ev	#
	movq	%r12, %rax	# save_eptr.3085, tmp87
	movslq	%ebx,%rdx	# save_filt.3086, tmp86
	movq	%rax, %rdi	# tmp87,
.LEHB99:
	call	_Unwind_Resume	#
.L346:
	leaq	-448(%rbp), %rax	#, tmp110
	movq	%rax, %rdi	# tmp110,
	call	_ZNSt19basic_istringstreamIcSt11char_traitsIcESaIcEED1Ev	#
.LEHE99:
	jmp	.L336	#
.L347:
	nop
.L336:
	addq	$464, %rsp	#,
	popq	%rbx	#
	popq	%r12	#
	leave
	ret
	.cfi_endproc
.LFE11170:
	.size	_ZN12LibraryParse11parseOffsetEP11LibraryGatePN8tinyxml210XMLElementE, .-_ZN12LibraryParse11parseOffsetEP11LibraryGatePN8tinyxml210XMLElementE
	.section	.gcc_except_table
.LLSDA11170:
	.byte	0xff
	.byte	0xff
	.byte	0x1
	.uleb128 .LLSDACSE11170-.LLSDACSB11170
.LLSDACSB11170:
	.uleb128 .LEHB89-.LFB11170
	.uleb128 .LEHE89-.LEHB89
	.uleb128 0x0
	.uleb128 0x0
	.uleb128 .LEHB90-.LFB11170
	.uleb128 .LEHE90-.LEHB90
	.uleb128 .L342-.LFB11170
	.uleb128 0x0
	.uleb128 .LEHB91-.LFB11170
	.uleb128 .LEHE91-.LEHB91
	.uleb128 .L341-.LFB11170
	.uleb128 0x0
	.uleb128 .LEHB92-.LFB11170
	.uleb128 .LEHE92-.LEHB92
	.uleb128 .L342-.LFB11170
	.uleb128 0x0
	.uleb128 .LEHB93-.LFB11170
	.uleb128 .LEHE93-.LEHB93
	.uleb128 0x0
	.uleb128 0x0
	.uleb128 .LEHB94-.LFB11170
	.uleb128 .LEHE94-.LEHB94
	.uleb128 .L340-.LFB11170
	.uleb128 0x0
	.uleb128 .LEHB95-.LFB11170
	.uleb128 .LEHE95-.LEHB95
	.uleb128 .L339-.LFB11170
	.uleb128 0x0
	.uleb128 .LEHB96-.LFB11170
	.uleb128 .LEHE96-.LEHB96
	.uleb128 .L338-.LFB11170
	.uleb128 0x0
	.uleb128 .LEHB97-.LFB11170
	.uleb128 .LEHE97-.LEHB97
	.uleb128 0x0
	.uleb128 0x0
	.uleb128 .LEHB98-.LFB11170
	.uleb128 .LEHE98-.LEHB98
	.uleb128 .L337-.LFB11170
	.uleb128 0x0
	.uleb128 .LEHB99-.LFB11170
	.uleb128 .LEHE99-.LEHB99
	.uleb128 0x0
	.uleb128 0x0
.LLSDACSE11170:
	.text
	.section	.text._ZNSt3mapISsSsSt4lessISsESaISt4pairIKSsSsEEED1Ev,"axG",@progbits,_ZNSt3mapISsSsSt4lessISsESaISt4pairIKSsSsEEED1Ev,comdat
	.align 2
	.weak	_ZNSt3mapISsSsSt4lessISsESaISt4pairIKSsSsEEED1Ev
	.type	_ZNSt3mapISsSsSt4lessISsESaISt4pairIKSsSsEEED1Ev, @function
_ZNSt3mapISsSsSt4lessISsESaISt4pairIKSsSsEEED1Ev:
.LFB11175:
	.cfi_startproc
	.cfi_personality 0x3,__gxx_personality_v0
	pushq	%rbp	#
	.cfi_def_cfa_offset 16
	movq	%rsp, %rbp	#,
	.cfi_offset 6, -16
	.cfi_def_cfa_register 6
	subq	$16, %rsp	#,
	movq	%rdi, -8(%rbp)	# this, this
	movq	-8(%rbp), %rax	# this, D.160382
	movq	%rax, %rdi	# D.160382,
	call	_ZNSt8_Rb_treeISsSt4pairIKSsSsESt10_Select1stIS2_ESt4lessISsESaIS2_EED1Ev	#
	leave
	ret
	.cfi_endproc
.LFE11175:
	.size	_ZNSt3mapISsSsSt4lessISsESaISt4pairIKSsSsEEED1Ev, .-_ZNSt3mapISsSsSt4lessISsESaISt4pairIKSsSsEEED1Ev
	.section	.text._ZN11LibraryGateC1Ev,"axG",@progbits,_ZN11LibraryGateC1Ev,comdat
	.align 2
	.weak	_ZN11LibraryGateC1Ev
	.type	_ZN11LibraryGateC1Ev, @function
_ZN11LibraryGateC1Ev:
.LFB11177:
	.cfi_startproc
	.cfi_personality 0x3,__gxx_personality_v0
	.cfi_lsda 0x3,.LLSDA11177
	pushq	%rbp	#
	.cfi_def_cfa_offset 16
	movq	%rsp, %rbp	#,
	.cfi_offset 6, -16
	.cfi_def_cfa_register 6
	pushq	%r12	#
	pushq	%rbx	#
	subq	$16, %rsp	#,
	movq	%rdi, -24(%rbp)	# this, this
	movq	-24(%rbp), %rax	# this, D.160422
	movq	%rax, %rdi	# D.160422,
.LEHB100:
	.cfi_offset 3, -32
	.cfi_offset 12, -24
	call	_ZNSsC1Ev	#
.LEHE100:
	movq	-24(%rbp), %rax	# this, tmp92
	addq	$8, %rax	#, D.160423
	movq	%rax, %rdi	# D.160423,
.LEHB101:
	call	_ZNSsC1Ev	#
.LEHE101:
	movq	-24(%rbp), %rax	# this, tmp93
	addq	$16, %rax	#, D.160424
	movq	%rax, %rdi	# D.160424,
.LEHB102:
	call	_ZNSsC1Ev	#
.LEHE102:
	movq	-24(%rbp), %rax	# this, tmp94
	addq	$24, %rax	#, D.160425
	movq	%rax, %rdi	# D.160425,
.LEHB103:
	call	_ZNSsC1Ev	#
.LEHE103:
	movq	-24(%rbp), %rax	# this, tmp95
	addq	$32, %rax	#, D.160426
	movq	%rax, %rdi	# D.160426,
.LEHB104:
	call	_ZNSt6vectorI9lgHotspotSaIS0_EEC1Ev	#
.LEHE104:
	movq	-24(%rbp), %rax	# this, tmp96
	addq	$56, %rax	#, D.160427
	movq	%rax, %rdi	# D.160427,
.LEHB105:
	call	_ZNSt6vectorI6lgLineSaIS0_EEC1Ev	#
.LEHE105:
	movq	-24(%rbp), %rax	# this, tmp97
	addq	$80, %rax	#, D.160428
	movq	%rax, %rdi	# D.160428,
.LEHB106:
	call	_ZNSt6vectorI10lgDlgParamSaIS0_EEC1Ev	#
.LEHE106:
	movq	-24(%rbp), %rax	# this, tmp98
	addq	$104, %rax	#, D.160429
	movq	%rax, %rdi	# D.160429,
.LEHB107:
	call	_ZNSt3mapISsSsSt4lessISsESaISt4pairIKSsSsEEEC1Ev	#
.LEHE107:
	movq	-24(%rbp), %rax	# this, tmp99
	addq	$152, %rax	#, D.160430
	movq	%rax, %rdi	# D.160430,
.LEHB108:
	call	_ZNSt3mapISsSsSt4lessISsESaISt4pairIKSsSsEEEC1Ev	#
.LEHE108:
	jmp	.L370	#
.L362:
.L353:
	movl	%edx, %ebx	# tmp100, save_filt.2930
	movq	%rax, %r12	# tmp101, save_eptr.2929
	movq	-24(%rbp), %rax	# this, tmp102
	addq	$104, %rax	#, D.160432
	movq	%rax, %rdi	# D.160432,
	call	_ZNSt3mapISsSsSt4lessISsESaISt4pairIKSsSsEEED1Ev	#
	movq	%r12, %rax	# save_eptr.2929, tmp101
	movslq	%ebx,%rdx	# save_filt.2930, tmp100
	jmp	.L354	#
.L363:
.L354:
	movl	%edx, %ebx	# tmp100, save_filt.2932
	movq	%rax, %r12	# tmp101, save_eptr.2931
	movq	-24(%rbp), %rax	# this, tmp103
	addq	$80, %rax	#, D.160433
	movq	%rax, %rdi	# D.160433,
	call	_ZNSt6vectorI10lgDlgParamSaIS0_EED1Ev	#
	movq	%r12, %rax	# save_eptr.2931, tmp101
	movslq	%ebx,%rdx	# save_filt.2932, tmp100
	jmp	.L355	#
.L364:
.L355:
	movl	%edx, %ebx	# tmp100, save_filt.2934
	movq	%rax, %r12	# tmp101, save_eptr.2933
	movq	-24(%rbp), %rax	# this, tmp104
	addq	$56, %rax	#, D.160434
	movq	%rax, %rdi	# D.160434,
	call	_ZNSt6vectorI6lgLineSaIS0_EED1Ev	#
	movq	%r12, %rax	# save_eptr.2933, tmp101
	movslq	%ebx,%rdx	# save_filt.2934, tmp100
	jmp	.L356	#
.L365:
.L356:
	movl	%edx, %ebx	# tmp100, save_filt.2936
	movq	%rax, %r12	# tmp101, save_eptr.2935
	movq	-24(%rbp), %rax	# this, tmp105
	addq	$32, %rax	#, D.160435
	movq	%rax, %rdi	# D.160435,
	call	_ZNSt6vectorI9lgHotspotSaIS0_EED1Ev	#
	movq	%r12, %rax	# save_eptr.2935, tmp101
	movslq	%ebx,%rdx	# save_filt.2936, tmp100
	jmp	.L357	#
.L366:
.L357:
	movl	%edx, %ebx	# tmp100, save_filt.2938
	movq	%rax, %r12	# tmp101, save_eptr.2937
	movq	-24(%rbp), %rax	# this, tmp106
	addq	$24, %rax	#, D.160436
	movq	%rax, %rdi	# D.160436,
	call	_ZNSsD1Ev	#
	movq	%r12, %rax	# save_eptr.2937, tmp101
	movslq	%ebx,%rdx	# save_filt.2938, tmp100
	jmp	.L358	#
.L367:
.L358:
	movl	%edx, %ebx	# tmp100, save_filt.2940
	movq	%rax, %r12	# tmp101, save_eptr.2939
	movq	-24(%rbp), %rax	# this, tmp107
	addq	$16, %rax	#, D.160437
	movq	%rax, %rdi	# D.160437,
	call	_ZNSsD1Ev	#
	movq	%r12, %rax	# save_eptr.2939, tmp101
	movslq	%ebx,%rdx	# save_filt.2940, tmp100
	jmp	.L359	#
.L368:
.L359:
	movl	%edx, %ebx	# tmp100, save_filt.2942
	movq	%rax, %r12	# tmp101, save_eptr.2941
	movq	-24(%rbp), %rax	# this, tmp108
	addq	$8, %rax	#, D.160438
	movq	%rax, %rdi	# D.160438,
	call	_ZNSsD1Ev	#
	movq	%r12, %rax	# save_eptr.2941, tmp101
	movslq	%ebx,%rdx	# save_filt.2942, tmp100
	jmp	.L360	#
.L369:
.L360:
	movl	%edx, %ebx	# tmp100, save_filt.2944
	movq	%rax, %r12	# tmp101, save_eptr.2943
	movq	-24(%rbp), %rax	# this, D.160439
	movq	%rax, %rdi	# D.160439,
	call	_ZNSsD1Ev	#
	movq	%r12, %rax	# save_eptr.2943, tmp101
	movslq	%ebx,%rdx	# save_filt.2944, tmp100
	movq	%rax, %rdi	# tmp101,
.LEHB109:
	call	_Unwind_Resume	#
.LEHE109:
.L370:
	addq	$16, %rsp	#,
	popq	%rbx	#
	popq	%r12	#
	leave
	ret
	.cfi_endproc
.LFE11177:
	.size	_ZN11LibraryGateC1Ev, .-_ZN11LibraryGateC1Ev
	.section	.gcc_except_table
.LLSDA11177:
	.byte	0xff
	.byte	0xff
	.byte	0x1
	.uleb128 .LLSDACSE11177-.LLSDACSB11177
.LLSDACSB11177:
	.uleb128 .LEHB100-.LFB11177
	.uleb128 .LEHE100-.LEHB100
	.uleb128 0x0
	.uleb128 0x0
	.uleb128 .LEHB101-.LFB11177
	.uleb128 .LEHE101-.LEHB101
	.uleb128 .L369-.LFB11177
	.uleb128 0x0
	.uleb128 .LEHB102-.LFB11177
	.uleb128 .LEHE102-.LEHB102
	.uleb128 .L368-.LFB11177
	.uleb128 0x0
	.uleb128 .LEHB103-.LFB11177
	.uleb128 .LEHE103-.LEHB103
	.uleb128 .L367-.LFB11177
	.uleb128 0x0
	.uleb128 .LEHB104-.LFB11177
	.uleb128 .LEHE104-.LEHB104
	.uleb128 .L366-.LFB11177
	.uleb128 0x0
	.uleb128 .LEHB105-.LFB11177
	.uleb128 .LEHE105-.LEHB105
	.uleb128 .L365-.LFB11177
	.uleb128 0x0
	.uleb128 .LEHB106-.LFB11177
	.uleb128 .LEHE106-.LEHB106
	.uleb128 .L364-.LFB11177
	.uleb128 0x0
	.uleb128 .LEHB107-.LFB11177
	.uleb128 .LEHE107-.LEHB107
	.uleb128 .L363-.LFB11177
	.uleb128 0x0
	.uleb128 .LEHB108-.LFB11177
	.uleb128 .LEHE108-.LEHB108
	.uleb128 .L362-.LFB11177
	.uleb128 0x0
	.uleb128 .LEHB109-.LFB11177
	.uleb128 .LEHE109-.LEHB109
	.uleb128 0x0
	.uleb128 0x0
.LLSDACSE11177:
	.section	.text._ZN11LibraryGateC1Ev,"axG",@progbits,_ZN11LibraryGateC1Ev,comdat
	.section	.text._ZN11LibraryGateD1Ev,"axG",@progbits,_ZN11LibraryGateD1Ev,comdat
	.align 2
	.weak	_ZN11LibraryGateD1Ev
	.type	_ZN11LibraryGateD1Ev, @function
_ZN11LibraryGateD1Ev:
.LFB11180:
	.cfi_startproc
	.cfi_personality 0x3,__gxx_personality_v0
	.cfi_lsda 0x3,.LLSDA11180
	pushq	%rbp	#
	.cfi_def_cfa_offset 16
	movq	%rsp, %rbp	#,
	.cfi_offset 6, -16
	.cfi_def_cfa_register 6
	pushq	%r12	#
	pushq	%rbx	#
	subq	$16, %rsp	#,
	movq	%rdi, -24(%rbp)	# this, this
	movq	-24(%rbp), %rax	# this, tmp91
	addq	$152, %rax	#, D.160474
	movq	%rax, %rdi	# D.160474,
.LEHB110:
	.cfi_offset 3, -32
	.cfi_offset 12, -24
	call	_ZNSt3mapISsSsSt4lessISsESaISt4pairIKSsSsEEED1Ev	#
.LEHE110:
	jmp	.L398	#
.L390:
.L373:
	movl	%edx, %ebx	# tmp92, save_filt.2894
	movq	%rax, %r12	# tmp93, save_eptr.2893
	movq	-24(%rbp), %rax	# this, tmp94
	addq	$104, %rax	#, D.160475
	movq	%rax, %rdi	# D.160475,
	call	_ZNSt3mapISsSsSt4lessISsESaISt4pairIKSsSsEEED1Ev	#
	movq	%r12, %rax	# save_eptr.2893, tmp93
	movslq	%ebx,%rdx	# save_filt.2894, tmp92
	jmp	.L375	#
.L398:
	movq	-24(%rbp), %rax	# this, tmp95
	addq	$104, %rax	#, temp.3260
	movq	%rax, %rdi	# temp.3260,
.LEHB111:
	call	_ZNSt3mapISsSsSt4lessISsESaISt4pairIKSsSsEEED1Ev	#
.LEHE111:
	jmp	.L399	#
.L391:
.L375:
	movl	%edx, %ebx	# tmp92, save_filt.2896
	movq	%rax, %r12	# tmp93, save_eptr.2895
	movq	-24(%rbp), %rax	# this, tmp96
	addq	$80, %rax	#, temp.3261
	movq	%rax, %rdi	# temp.3261,
	call	_ZNSt6vectorI10lgDlgParamSaIS0_EED1Ev	#
	movq	%r12, %rax	# save_eptr.2895, tmp93
	movslq	%ebx,%rdx	# save_filt.2896, tmp92
	jmp	.L377	#
.L399:
	movq	-24(%rbp), %rax	# this, tmp97
	addq	$80, %rax	#, D.160476
	movq	%rax, %rdi	# D.160476,
.LEHB112:
	call	_ZNSt6vectorI10lgDlgParamSaIS0_EED1Ev	#
.LEHE112:
	jmp	.L400	#
.L392:
.L377:
	movl	%edx, %ebx	# tmp92, save_filt.2898
	movq	%rax, %r12	# tmp93, save_eptr.2897
	movq	-24(%rbp), %rax	# this, tmp98
	addq	$56, %rax	#, temp.3262
	movq	%rax, %rdi	# temp.3262,
	call	_ZNSt6vectorI6lgLineSaIS0_EED1Ev	#
	movq	%r12, %rax	# save_eptr.2897, tmp93
	movslq	%ebx,%rdx	# save_filt.2898, tmp92
	jmp	.L379	#
.L400:
	movq	-24(%rbp), %rax	# this, tmp99
	addq	$56, %rax	#, D.160477
	movq	%rax, %rdi	# D.160477,
.LEHB113:
	call	_ZNSt6vectorI6lgLineSaIS0_EED1Ev	#
.LEHE113:
	jmp	.L401	#
.L393:
.L379:
	movl	%edx, %ebx	# tmp92, save_filt.2900
	movq	%rax, %r12	# tmp93, save_eptr.2899
	movq	-24(%rbp), %rax	# this, tmp100
	addq	$32, %rax	#, temp.3263
	movq	%rax, %rdi	# temp.3263,
	call	_ZNSt6vectorI9lgHotspotSaIS0_EED1Ev	#
	movq	%r12, %rax	# save_eptr.2899, tmp93
	movslq	%ebx,%rdx	# save_filt.2900, tmp92
	jmp	.L381	#
.L401:
	movq	-24(%rbp), %rax	# this, tmp101
	addq	$32, %rax	#, D.160478
	movq	%rax, %rdi	# D.160478,
.LEHB114:
	call	_ZNSt6vectorI9lgHotspotSaIS0_EED1Ev	#
.LEHE114:
	jmp	.L402	#
.L394:
.L381:
	movl	%edx, %ebx	# tmp92, save_filt.2902
	movq	%rax, %r12	# tmp93, save_eptr.2901
	movq	-24(%rbp), %rax	# this, tmp102
	addq	$24, %rax	#, temp.3264
	movq	%rax, %rdi	# temp.3264,
	call	_ZNSsD1Ev	#
	movq	%r12, %rax	# save_eptr.2901, tmp93
	movslq	%ebx,%rdx	# save_filt.2902, tmp92
	jmp	.L383	#
.L402:
	movq	-24(%rbp), %rax	# this, tmp103
	addq	$24, %rax	#, D.160479
	movq	%rax, %rdi	# D.160479,
.LEHB115:
	call	_ZNSsD1Ev	#
.LEHE115:
	jmp	.L403	#
.L395:
.L383:
	movl	%edx, %ebx	# tmp92, save_filt.2904
	movq	%rax, %r12	# tmp93, save_eptr.2903
	movq	-24(%rbp), %rax	# this, tmp104
	addq	$16, %rax	#, temp.3265
	movq	%rax, %rdi	# temp.3265,
	call	_ZNSsD1Ev	#
	movq	%r12, %rax	# save_eptr.2903, tmp93
	movslq	%ebx,%rdx	# save_filt.2904, tmp92
	jmp	.L385	#
.L403:
	movq	-24(%rbp), %rax	# this, tmp105
	addq	$16, %rax	#, D.160480
	movq	%rax, %rdi	# D.160480,
.LEHB116:
	call	_ZNSsD1Ev	#
.LEHE116:
	jmp	.L404	#
.L396:
.L385:
	movl	%edx, %ebx	# tmp92, save_filt.2906
	movq	%rax, %r12	# tmp93, save_eptr.2905
	movq	-24(%rbp), %rax	# this, tmp106
	addq	$8, %rax	#, temp.3266
	movq	%rax, %rdi	# temp.3266,
	call	_ZNSsD1Ev	#
	movq	%r12, %rax	# save_eptr.2905, tmp93
	movslq	%ebx,%rdx	# save_filt.2906, tmp92
	jmp	.L387	#
.L404:
	movq	-24(%rbp), %rax	# this, tmp107
	addq	$8, %rax	#, D.160481
	movq	%rax, %rdi	# D.160481,
.LEHB117:
	call	_ZNSsD1Ev	#
.LEHE117:
	jmp	.L405	#
.L397:
.L387:
	movl	%edx, %ebx	# tmp92, save_filt.2908
	movq	%rax, %r12	# tmp93, save_eptr.2907
	movq	-24(%rbp), %rax	# this, temp.3267
	movq	%rax, %rdi	# temp.3267,
	call	_ZNSsD1Ev	#
	movq	%r12, %rax	# save_eptr.2907, tmp93
	movslq	%ebx,%rdx	# save_filt.2908, tmp92
	movq	%rax, %rdi	# tmp93,
.LEHB118:
	call	_Unwind_Resume	#
.L405:
	movq	-24(%rbp), %rax	# this, D.160482
	movq	%rax, %rdi	# D.160482,
	call	_ZNSsD1Ev	#
.LEHE118:
	addq	$16, %rsp	#,
	popq	%rbx	#
	popq	%r12	#
	leave
	ret
	.cfi_endproc
.LFE11180:
	.size	_ZN11LibraryGateD1Ev, .-_ZN11LibraryGateD1Ev
	.section	.gcc_except_table
.LLSDA11180:
	.byte	0xff
	.byte	0xff
	.byte	0x1
	.uleb128 .LLSDACSE11180-.LLSDACSB11180
.LLSDACSB11180:
	.uleb128 .LEHB110-.LFB11180
	.uleb128 .LEHE110-.LEHB110
	.uleb128 .L390-.LFB11180
	.uleb128 0x0
	.uleb128 .LEHB111-.LFB11180
	.uleb128 .LEHE111-.LEHB111
	.uleb128 .L391-.LFB11180
	.uleb128 0x0
	.uleb128 .LEHB112-.LFB11180
	.uleb128 .LEHE112-.LEHB112
	.uleb128 .L392-.LFB11180
	.uleb128 0x0
	.uleb128 .LEHB113-.LFB11180
	.uleb128 .LEHE113-.LEHB113
	.uleb128 .L393-.LFB11180
	.uleb128 0x0
	.uleb128 .LEHB114-.LFB11180
	.uleb128 .LEHE114-.LEHB114
	.uleb128 .L394-.LFB11180
	.uleb128 0x0
	.uleb128 .LEHB115-.LFB11180
	.uleb128 .LEHE115-.LEHB115
	.uleb128 .L395-.LFB11180
	.uleb128 0x0
	.uleb128 .LEHB116-.LFB11180
	.uleb128 .LEHE116-.LEHB116
	.uleb128 .L396-.LFB11180
	.uleb128 0x0
	.uleb128 .LEHB117-.LFB11180
	.uleb128 .LEHE117-.LEHB117
	.uleb128 .L397-.LFB11180
	.uleb128 0x0
	.uleb128 .LEHB118-.LFB11180
	.uleb128 .LEHE118-.LEHB118
	.uleb128 0x0
	.uleb128 0x0
.LLSDACSE11180:
	.section	.text._ZN11LibraryGateD1Ev,"axG",@progbits,_ZN11LibraryGateD1Ev,comdat
	.section	.text._ZN11LibraryGateaSERKS_,"axG",@progbits,_ZN11LibraryGateaSERKS_,comdat
	.align 2
	.weak	_ZN11LibraryGateaSERKS_
	.type	_ZN11LibraryGateaSERKS_, @function
_ZN11LibraryGateaSERKS_:
.LFB11181:
	.cfi_startproc
	.cfi_personality 0x3,__gxx_personality_v0
	pushq	%rbp	#
	.cfi_def_cfa_offset 16
	movq	%rsp, %rbp	#,
	.cfi_offset 6, -16
	.cfi_def_cfa_register 6
	subq	$16, %rsp	#,
	movq	%rdi, -8(%rbp)	# this, this
	movq	%rsi, -16(%rbp)	# D.161319, D.161319
	movq	-16(%rbp), %rdx	# D.161319, D.161322
	movq	-8(%rbp), %rax	# this, D.161323
	movq	%rdx, %rsi	# D.161322,
	movq	%rax, %rdi	# D.161323,
	call	_ZNSsaSERKSs	#
	movq	-16(%rbp), %rax	# D.161319, tmp78
	leaq	8(%rax), %rdx	#, D.161324
	movq	-8(%rbp), %rax	# this, tmp79
	addq	$8, %rax	#, D.161325
	movq	%rdx, %rsi	# D.161324,
	movq	%rax, %rdi	# D.161325,
	call	_ZNSsaSERKSs	#
	movq	-16(%rbp), %rax	# D.161319, tmp80
	leaq	16(%rax), %rdx	#, D.161326
	movq	-8(%rbp), %rax	# this, tmp81
	addq	$16, %rax	#, D.161327
	movq	%rdx, %rsi	# D.161326,
	movq	%rax, %rdi	# D.161327,
	call	_ZNSsaSERKSs	#
	movq	-16(%rbp), %rax	# D.161319, tmp82
	leaq	24(%rax), %rdx	#, D.161328
	movq	-8(%rbp), %rax	# this, tmp83
	addq	$24, %rax	#, D.161329
	movq	%rdx, %rsi	# D.161328,
	movq	%rax, %rdi	# D.161329,
	call	_ZNSsaSERKSs	#
	movq	-16(%rbp), %rax	# D.161319, tmp84
	leaq	32(%rax), %rdx	#, D.161330
	movq	-8(%rbp), %rax	# this, tmp85
	addq	$32, %rax	#, D.161331
	movq	%rdx, %rsi	# D.161330,
	movq	%rax, %rdi	# D.161331,
	call	_ZNSt6vectorI9lgHotspotSaIS0_EEaSERKS2_	#
	movq	-16(%rbp), %rax	# D.161319, tmp86
	leaq	56(%rax), %rdx	#, D.161332
	movq	-8(%rbp), %rax	# this, tmp87
	addq	$56, %rax	#, D.161333
	movq	%rdx, %rsi	# D.161332,
	movq	%rax, %rdi	# D.161333,
	call	_ZNSt6vectorI6lgLineSaIS0_EEaSERKS2_	#
	movq	-16(%rbp), %rax	# D.161319, tmp88
	leaq	80(%rax), %rdx	#, D.161334
	movq	-8(%rbp), %rax	# this, tmp89
	addq	$80, %rax	#, D.161335
	movq	%rdx, %rsi	# D.161334,
	movq	%rax, %rdi	# D.161335,
	call	_ZNSt6vectorI10lgDlgParamSaIS0_EEaSERKS2_	#
	movq	-16(%rbp), %rax	# D.161319, tmp90
	leaq	104(%rax), %rdx	#, D.161336
	movq	-8(%rbp), %rax	# this, tmp91
	addq	$104, %rax	#, D.161337
	movq	%rdx, %rsi	# D.161336,
	movq	%rax, %rdi	# D.161337,
	call	_ZNSt3mapISsSsSt4lessISsESaISt4pairIKSsSsEEEaSERKS6_	#
	movq	-16(%rbp), %rax	# D.161319, tmp92
	leaq	152(%rax), %rdx	#, D.161338
	movq	-8(%rbp), %rax	# this, tmp93
	addq	$152, %rax	#, D.161339
	movq	%rdx, %rsi	# D.161338,
	movq	%rax, %rdi	# D.161339,
	call	_ZNSt3mapISsSsSt4lessISsESaISt4pairIKSsSsEEEaSERKS6_	#
	movq	-8(%rbp), %rax	# this, D.161340
	leave
	ret
	.cfi_endproc
.LFE11181:
	.size	_ZN11LibraryGateaSERKS_, .-_ZN11LibraryGateaSERKS_
	.section	.rodata
.LC19:
	.string	"gui_type"
.LC20:
	.string	"logic_type"
.LC21:
	.string	"gui_param"
.LC22:
	.string	"logic_param"
.LC23:
	.string	"output"
.LC24:
	.string	"shape"
.LC25:
	.string	"param_dlg_data"
.LC26:
	.string	"param"
.LC27:
	.string	"STRING"
.LC28:
	.string	"GUI"
.LC31:
	.string	"type"
.LC32:
	.string	"label"
.LC33:
	.string	"varname"
.LC34:
	.string	"range"
	.text
	.align 2
.globl _ZN12LibraryParse9parseGateERKSsPN8tinyxml210XMLElementE
	.type	_ZN12LibraryParse9parseGateERKSsPN8tinyxml210XMLElementE, @function
_ZN12LibraryParse9parseGateERKSsPN8tinyxml210XMLElementE:
.LFB11171:
	.cfi_startproc
	.cfi_personality 0x3,__gxx_personality_v0
	.cfi_lsda 0x3,.LLSDA11171
	pushq	%rbp	#
	.cfi_def_cfa_offset 16
	movq	%rsp, %rbp	#,
	.cfi_offset 6, -16
	.cfi_def_cfa_register 6
	pushq	%r12	#
	pushq	%rbx	#
	subq	$976, %rsp	#,
	movq	%rdi, -968(%rbp)	# this, this
	movq	%rsi, -976(%rbp)	# lib_name, lib_name
	movq	%rdx, -984(%rbp)	# g, g
	leaq	-592(%rbp), %rax	#, tmp208
	movq	%rax, %rdi	# tmp208,
.LEHB119:
	.cfi_offset 3, -32
	.cfi_offset 12, -24
	call	_ZN11LibraryGateC1Ev	#
.LEHE119:
	movq	-984(%rbp), %rax	# g, D.161341
	movl	$.LC5, %esi	#,
	movq	%rax, %rdi	# D.161341,
.LEHB120:
	call	_ZN8tinyxml27XMLNode17FirstChildElementEPKc	#
	movq	%rax, %rdi	# D.161342,
	call	_ZNK8tinyxml210XMLElement7GetTextEv	#
	movq	%rax, %rdx	#, D.161343
	leaq	-592(%rbp), %rax	#, tmp209
	movq	%rdx, %rsi	# D.161343,
	movq	%rax, %rdi	# tmp209,
	call	_ZNSsaSEPKc	#
	movq	-984(%rbp), %rax	# g, D.161345
	movl	$.LC19, %esi	#,
	movq	%rax, %rdi	# D.161345,
	call	_ZN8tinyxml27XMLNode17FirstChildElementEPKc	#
	movq	%rax, -72(%rbp)	# tmp.1961, tmp
	cmpq	$0, -72(%rbp)	#, tmp
	setne	%al	#, retval.1960
	testb	%al, %al	# retval.1960
	je	.L409	#,
	movq	-72(%rbp), %rax	# tmp, tmp210
	movq	%rax, %rdi	# tmp210,
	call	_ZNK8tinyxml210XMLElement7GetTextEv	#
	leaq	-592(%rbp), %rdx	#, tmp211
	addq	$16, %rdx	#, tmp212
	movq	%rax, %rsi	# D.161349,
	movq	%rdx, %rdi	# tmp212,
	call	_ZNSsaSEPKc	#
.L409:
	movq	-984(%rbp), %rax	# g, D.161352
	movl	$.LC20, %esi	#,
	movq	%rax, %rdi	# D.161352,
	call	_ZN8tinyxml27XMLNode17FirstChildElementEPKc	#
	movq	%rax, -72(%rbp)	# tmp.1963, tmp
	cmpq	$0, -72(%rbp)	#, tmp
	setne	%al	#, retval.1962
	testb	%al, %al	# retval.1962
	je	.L410	#,
	movq	-72(%rbp), %rax	# tmp, tmp213
	movq	%rax, %rdi	# tmp213,
	call	_ZNK8tinyxml210XMLElement7GetTextEv	#
	leaq	-592(%rbp), %rdx	#, tmp214
	addq	$24, %rdx	#, tmp215
	movq	%rax, %rsi	# D.161356,
	movq	%rdx, %rdi	# tmp215,
	call	_ZNSsaSEPKc	#
.L410:
	movq	-984(%rbp), %rax	# g, D.161359
	movl	$.LC19, %esi	#,
	movq	%rax, %rdi	# D.161359,
	call	_ZN8tinyxml27XMLNode17FirstChildElementEPKc	#
	movq	%rax, -72(%rbp)	# tmp.1965, tmp
	cmpq	$0, -72(%rbp)	#, tmp
	setne	%al	#, retval.1964
	testb	%al, %al	# retval.1964
	je	.L411	#,
	movq	-72(%rbp), %rax	# tmp, tmp216
	movq	%rax, %rdi	# tmp216,
	call	_ZNK8tinyxml210XMLElement7GetTextEv	#
	leaq	-592(%rbp), %rdx	#, tmp217
	addq	$8, %rdx	#, tmp218
	movq	%rax, %rsi	# D.161363,
	movq	%rdx, %rdi	# tmp218,
	call	_ZNSsaSEPKc	#
.L411:
	movq	-984(%rbp), %rax	# g, D.161366
	movl	$.LC21, %esi	#,
	movq	%rax, %rdi	# D.161366,
	call	_ZN8tinyxml27XMLNode17FirstChildElementEPKc	#
	movq	%rax, -72(%rbp)	# tmp.1967, tmp
	cmpq	$0, -72(%rbp)	#, tmp
	setne	%al	#, retval.1966
	testb	%al, %al	# retval.1966
	je	.L412	#,
	leaq	-240(%rbp), %rax	#, tmp219
	movq	%rax, %rdi	# tmp219,
	call	_ZNSsC1Ev	#
.LEHE120:
	leaq	-256(%rbp), %rax	#, tmp220
	movq	%rax, %rdi	# tmp220,
.LEHB121:
	call	_ZNSsC1Ev	#
.LEHE121:
	leaq	-209(%rbp), %rax	#, tmp221
	movq	%rax, %rdi	# tmp221,
	call	_ZNSaIcEC1Ev	#
	movq	-72(%rbp), %rax	# tmp, tmp222
	movq	%rax, %rdi	# tmp222,
.LEHB122:
	call	_ZNK8tinyxml210XMLElement7GetTextEv	#
	movq	%rax, %rcx	#, D.161370
	leaq	-209(%rbp), %rdx	#, tmp223
	leaq	-224(%rbp), %rax	#, tmp224
	movq	%rcx, %rsi	# D.161370,
	movq	%rax, %rdi	# tmp224,
	call	_ZNSsC1EPKcRKSaIcE	#
.LEHE122:
	leaq	-224(%rbp), %rcx	#, tmp225
	leaq	-960(%rbp), %rax	#, tmp226
	movl	$8, %edx	#,
	movq	%rcx, %rsi	# tmp225,
	movq	%rax, %rdi	# tmp226,
.LEHB123:
	call	_ZNSt19basic_istringstreamIcSt11char_traitsIcESaIcEEC1ERKSsSt13_Ios_Openmode	#
.LEHE123:
	jmp	.L525	#
.L520:
.L414:
	movl	%edx, %ebx	# tmp227, save_filt.2978
	movq	%rax, %r12	# tmp228, save_eptr.2977
	leaq	-224(%rbp), %rax	#, tmp229
	movq	%rax, %rdi	# tmp229,
	call	_ZNSsD1Ev	#
	movq	%r12, %rax	# save_eptr.2977, tmp228
	movslq	%ebx,%rdx	# save_filt.2978, tmp227
	jmp	.L417	#
.L525:
	leaq	-224(%rbp), %rax	#, tmp230
	movq	%rax, %rdi	# tmp230,
.LEHB124:
	call	_ZNSsD1Ev	#
.LEHE124:
	jmp	.L526	#
.L519:
.L416:
	movl	%edx, %ebx	# tmp227, save_filt.2980
	movq	%rax, %r12	# tmp228, save_eptr.2979
	leaq	-960(%rbp), %rax	#, tmp231
	movq	%rax, %rdi	# tmp231,
	call	_ZNSt19basic_istringstreamIcSt11char_traitsIcESaIcEED1Ev	#
	movq	%r12, %rax	# save_eptr.2979, tmp228
	movslq	%ebx,%rdx	# save_filt.2980, tmp227
	jmp	.L417	#
.L521:
.L417:
	movl	%edx, %ebx	# tmp227, save_filt.2982
	movq	%rax, %r12	# tmp228, save_eptr.2981
	leaq	-209(%rbp), %rax	#, tmp232
	movq	%rax, %rdi	# tmp232,
	call	_ZNSaIcED1Ev	#
	movq	%r12, %rax	# save_eptr.2981, tmp228
	movslq	%ebx,%rdx	# save_filt.2982, tmp227
	jmp	.L421	#
.L526:
	leaq	-209(%rbp), %rax	#, tmp233
	movq	%rax, %rdi	# tmp233,
	call	_ZNSaIcED1Ev	#
	leaq	-240(%rbp), %rdx	#, tmp234
	leaq	-960(%rbp), %rax	#, tmp235
	movq	%rdx, %rsi	# tmp234,
	movq	%rax, %rdi	# tmp235,
.LEHB125:
	call	_ZStrsIcSt11char_traitsIcESaIcEERSt13basic_istreamIT_T0_ES7_RSbIS4_S5_T1_E	#
	leaq	-256(%rbp), %rdx	#, tmp236
	movq	%rdx, %rsi	# tmp236,
	movq	%rax, %rdi	# D.161371,
	call	_ZStrsIcSt11char_traitsIcESaIcEERSt13basic_istreamIT_T0_ES7_RSbIS4_S5_T1_E	#
	leaq	-240(%rbp), %rax	#, tmp237
	leaq	-592(%rbp), %rdx	#, tmp238
	addq	$104, %rdx	#, tmp239
	movq	%rax, %rsi	# tmp237,
	movq	%rdx, %rdi	# tmp239,
	call	_ZNSt3mapISsSsSt4lessISsESaISt4pairIKSsSsEEEixERS3_	#
	leaq	-256(%rbp), %rdx	#, tmp240
	movq	%rdx, %rsi	# tmp240,
	movq	%rax, %rdi	# D.161372,
	call	_ZNSsaSERKSs	#
.LEHE125:
	jmp	.L527	#
.L518:
.L419:
	movl	%edx, %ebx	# tmp227, save_filt.2984
	movq	%rax, %r12	# tmp228, save_eptr.2983
	leaq	-960(%rbp), %rax	#, tmp241
	movq	%rax, %rdi	# tmp241,
	call	_ZNSt19basic_istringstreamIcSt11char_traitsIcESaIcEED1Ev	#
	movq	%r12, %rax	# save_eptr.2983, tmp228
	movslq	%ebx,%rdx	# save_filt.2984, tmp227
	jmp	.L421	#
.L527:
	leaq	-960(%rbp), %rax	#, tmp242
	movq	%rax, %rdi	# tmp242,
.LEHB126:
	call	_ZNSt19basic_istringstreamIcSt11char_traitsIcESaIcEED1Ev	#
.LEHE126:
	jmp	.L528	#
.L522:
.L421:
	movl	%edx, %ebx	# tmp227, save_filt.2986
	movq	%rax, %r12	# tmp228, save_eptr.2985
	leaq	-256(%rbp), %rax	#, tmp243
	movq	%rax, %rdi	# tmp243,
	call	_ZNSsD1Ev	#
	movq	%r12, %rax	# save_eptr.2985, tmp228
	movslq	%ebx,%rdx	# save_filt.2986, tmp227
	jmp	.L423	#
.L528:
	leaq	-256(%rbp), %rax	#, tmp244
	movq	%rax, %rdi	# tmp244,
.LEHB127:
	call	_ZNSsD1Ev	#
.LEHE127:
	jmp	.L529	#
.L523:
.L423:
	movl	%edx, %ebx	# tmp227, save_filt.2988
	movq	%rax, %r12	# tmp228, save_eptr.2987
	leaq	-240(%rbp), %rax	#, tmp245
	movq	%rax, %rdi	# tmp245,
	call	_ZNSsD1Ev	#
	movq	%r12, %rax	# save_eptr.2987, tmp228
	movslq	%ebx,%rdx	# save_filt.2988, tmp227
	jmp	.L490	#
.L529:
	leaq	-240(%rbp), %rax	#, tmp246
	movq	%rax, %rdi	# tmp246,
.LEHB128:
	call	_ZNSsD1Ev	#
.L412:
	movq	-984(%rbp), %rax	# g, D.161375
	movl	$.LC22, %esi	#,
	movq	%rax, %rdi	# D.161375,
	call	_ZN8tinyxml27XMLNode17FirstChildElementEPKc	#
	movq	%rax, -72(%rbp)	# tmp.1969, tmp
	cmpq	$0, -72(%rbp)	#, tmp
	setne	%al	#, retval.1968
	testb	%al, %al	# retval.1968
	je	.L424	#,
	leaq	-272(%rbp), %rax	#, tmp247
	movq	%rax, %rdi	# tmp247,
	call	_ZNSsC1Ev	#
.LEHE128:
	leaq	-288(%rbp), %rax	#, tmp248
	movq	%rax, %rdi	# tmp248,
.LEHB129:
	call	_ZNSsC1Ev	#
.LEHE129:
	leaq	-193(%rbp), %rax	#, tmp249
	movq	%rax, %rdi	# tmp249,
	call	_ZNSaIcEC1Ev	#
	movq	-72(%rbp), %rax	# tmp, tmp250
	movq	%rax, %rdi	# tmp250,
.LEHB130:
	call	_ZNK8tinyxml210XMLElement7GetTextEv	#
	movq	%rax, %rcx	#, D.161379
	leaq	-193(%rbp), %rdx	#, tmp251
	leaq	-208(%rbp), %rax	#, tmp252
	movq	%rcx, %rsi	# D.161379,
	movq	%rax, %rdi	# tmp252,
	call	_ZNSsC1EPKcRKSaIcE	#
.LEHE130:
	leaq	-208(%rbp), %rcx	#, tmp253
	leaq	-960(%rbp), %rax	#, tmp254
	movl	$8, %edx	#,
	movq	%rcx, %rsi	# tmp253,
	movq	%rax, %rdi	# tmp254,
.LEHB131:
	call	_ZNSt19basic_istringstreamIcSt11char_traitsIcESaIcEEC1ERKSsSt13_Ios_Openmode	#
.LEHE131:
	jmp	.L530	#
.L514:
.L426:
	movl	%edx, %ebx	# tmp227, save_filt.2990
	movq	%rax, %r12	# tmp228, save_eptr.2989
	leaq	-208(%rbp), %rax	#, tmp255
	movq	%rax, %rdi	# tmp255,
	call	_ZNSsD1Ev	#
	movq	%r12, %rax	# save_eptr.2989, tmp228
	movslq	%ebx,%rdx	# save_filt.2990, tmp227
	jmp	.L429	#
.L530:
	leaq	-208(%rbp), %rax	#, tmp256
	movq	%rax, %rdi	# tmp256,
.LEHB132:
	call	_ZNSsD1Ev	#
.LEHE132:
	jmp	.L531	#
.L513:
.L428:
	movl	%edx, %ebx	# tmp227, save_filt.2992
	movq	%rax, %r12	# tmp228, save_eptr.2991
	leaq	-960(%rbp), %rax	#, tmp257
	movq	%rax, %rdi	# tmp257,
	call	_ZNSt19basic_istringstreamIcSt11char_traitsIcESaIcEED1Ev	#
	movq	%r12, %rax	# save_eptr.2991, tmp228
	movslq	%ebx,%rdx	# save_filt.2992, tmp227
	jmp	.L429	#
.L515:
.L429:
	movl	%edx, %ebx	# tmp227, save_filt.2994
	movq	%rax, %r12	# tmp228, save_eptr.2993
	leaq	-193(%rbp), %rax	#, tmp258
	movq	%rax, %rdi	# tmp258,
	call	_ZNSaIcED1Ev	#
	movq	%r12, %rax	# save_eptr.2993, tmp228
	movslq	%ebx,%rdx	# save_filt.2994, tmp227
	jmp	.L433	#
.L531:
	leaq	-193(%rbp), %rax	#, tmp259
	movq	%rax, %rdi	# tmp259,
	call	_ZNSaIcED1Ev	#
	leaq	-272(%rbp), %rdx	#, tmp260
	leaq	-960(%rbp), %rax	#, tmp261
	movq	%rdx, %rsi	# tmp260,
	movq	%rax, %rdi	# tmp261,
.LEHB133:
	call	_ZStrsIcSt11char_traitsIcESaIcEERSt13basic_istreamIT_T0_ES7_RSbIS4_S5_T1_E	#
	leaq	-288(%rbp), %rdx	#, tmp262
	movq	%rdx, %rsi	# tmp262,
	movq	%rax, %rdi	# D.161380,
	call	_ZStrsIcSt11char_traitsIcESaIcEERSt13basic_istreamIT_T0_ES7_RSbIS4_S5_T1_E	#
	leaq	-272(%rbp), %rax	#, tmp263
	leaq	-592(%rbp), %rdx	#, tmp264
	addq	$152, %rdx	#, tmp265
	movq	%rax, %rsi	# tmp263,
	movq	%rdx, %rdi	# tmp265,
	call	_ZNSt3mapISsSsSt4lessISsESaISt4pairIKSsSsEEEixERS3_	#
	leaq	-288(%rbp), %rdx	#, tmp266
	movq	%rdx, %rsi	# tmp266,
	movq	%rax, %rdi	# D.161381,
	call	_ZNSsaSERKSs	#
.LEHE133:
	jmp	.L532	#
.L512:
.L431:
	movl	%edx, %ebx	# tmp227, save_filt.2996
	movq	%rax, %r12	# tmp228, save_eptr.2995
	leaq	-960(%rbp), %rax	#, tmp267
	movq	%rax, %rdi	# tmp267,
	call	_ZNSt19basic_istringstreamIcSt11char_traitsIcESaIcEED1Ev	#
	movq	%r12, %rax	# save_eptr.2995, tmp228
	movslq	%ebx,%rdx	# save_filt.2996, tmp227
	jmp	.L433	#
.L532:
	leaq	-960(%rbp), %rax	#, tmp268
	movq	%rax, %rdi	# tmp268,
.LEHB134:
	call	_ZNSt19basic_istringstreamIcSt11char_traitsIcESaIcEED1Ev	#
.LEHE134:
	jmp	.L533	#
.L516:
.L433:
	movl	%edx, %ebx	# tmp227, save_filt.2998
	movq	%rax, %r12	# tmp228, save_eptr.2997
	leaq	-288(%rbp), %rax	#, tmp269
	movq	%rax, %rdi	# tmp269,
	call	_ZNSsD1Ev	#
	movq	%r12, %rax	# save_eptr.2997, tmp228
	movslq	%ebx,%rdx	# save_filt.2998, tmp227
	jmp	.L435	#
.L533:
	leaq	-288(%rbp), %rax	#, tmp270
	movq	%rax, %rdi	# tmp270,
.LEHB135:
	call	_ZNSsD1Ev	#
.LEHE135:
	jmp	.L534	#
.L517:
.L435:
	movl	%edx, %ebx	# tmp227, save_filt.3000
	movq	%rax, %r12	# tmp228, save_eptr.2999
	leaq	-272(%rbp), %rax	#, tmp271
	movq	%rax, %rdi	# tmp271,
	call	_ZNSsD1Ev	#
	movq	%r12, %rax	# save_eptr.2999, tmp228
	movslq	%ebx,%rdx	# save_filt.3000, tmp227
	jmp	.L490	#
.L534:
	leaq	-272(%rbp), %rax	#, tmp272
	movq	%rax, %rdi	# tmp272,
.LEHB136:
	call	_ZNSsD1Ev	#
.L424:
	movq	-984(%rbp), %rax	# g, D.161383
	movl	$.LC11, %esi	#,
	movq	%rax, %rdi	# D.161383,
	call	_ZN8tinyxml27XMLNode17FirstChildElementEPKc	#
	movq	%rax, -64(%rbp)	# input.1970, input
	jmp	.L436	#
.L439:
	leaq	-192(%rbp), %rax	#, tmp273
	movq	-64(%rbp), %rdx	# input, tmp274
	movq	-968(%rbp), %rcx	# this, tmp275
	movq	%rcx, %rsi	# tmp275,
	movq	%rax, %rdi	# tmp273,
	call	_ZN12LibraryParse12parseHotspotEPN8tinyxml210XMLElementE	#
.LEHE136:
	leaq	-192(%rbp), %rax	#, tmp276
	leaq	-592(%rbp), %rdx	#, tmp277
	addq	$32, %rdx	#, tmp278
	movq	%rax, %rsi	# tmp276,
	movq	%rdx, %rdi	# tmp278,
.LEHB137:
	call	_ZNSt6vectorI9lgHotspotSaIS0_EE9push_backERKS0_	#
.LEHE137:
	jmp	.L535	#
.L511:
.L438:
	movl	%edx, %ebx	# tmp227, save_filt.3002
	movq	%rax, %r12	# tmp228, save_eptr.3001
	leaq	-192(%rbp), %rax	#, tmp279
	movq	%rax, %rdi	# tmp279,
	call	_ZN9lgHotspotD1Ev	#
	movq	%r12, %rax	# save_eptr.3001, tmp228
	movslq	%ebx,%rdx	# save_filt.3002, tmp227
	jmp	.L490	#
.L535:
	leaq	-192(%rbp), %rax	#, tmp280
	movq	%rax, %rdi	# tmp280,
.LEHB138:
	call	_ZN9lgHotspotD1Ev	#
	movq	-64(%rbp), %rax	# input, D.161390
	movl	$.LC11, %esi	#,
	movq	%rax, %rdi	# D.161390,
	call	_ZN8tinyxml27XMLNode18NextSiblingElementEPKc	#
	movq	%rax, -64(%rbp)	# input.1971, input
.L436:
	cmpq	$0, -64(%rbp)	#, input
	setne	%al	#, D.161388
	testb	%al, %al	# D.161388
	jne	.L439	#,
	movq	-984(%rbp), %rax	# g, D.161392
	movl	$.LC23, %esi	#,
	movq	%rax, %rdi	# D.161392,
	call	_ZN8tinyxml27XMLNode17FirstChildElementEPKc	#
	movq	%rax, -56(%rbp)	# output.1972, output
	jmp	.L440	#
.L443:
	leaq	-160(%rbp), %rax	#, tmp281
	movq	-56(%rbp), %rdx	# output, tmp282
	movq	-968(%rbp), %rcx	# this, tmp283
	movq	%rcx, %rsi	# tmp283,
	movq	%rax, %rdi	# tmp281,
	call	_ZN12LibraryParse12parseHotspotEPN8tinyxml210XMLElementE	#
.LEHE138:
	leaq	-160(%rbp), %rax	#, tmp284
	leaq	-592(%rbp), %rdx	#, tmp285
	addq	$32, %rdx	#, tmp286
	movq	%rax, %rsi	# tmp284,
	movq	%rdx, %rdi	# tmp286,
.LEHB139:
	call	_ZNSt6vectorI9lgHotspotSaIS0_EE9push_backERKS0_	#
.LEHE139:
	jmp	.L536	#
.L510:
.L442:
	movl	%edx, %ebx	# tmp227, save_filt.3004
	movq	%rax, %r12	# tmp228, save_eptr.3003
	leaq	-160(%rbp), %rax	#, tmp287
	movq	%rax, %rdi	# tmp287,
	call	_ZN9lgHotspotD1Ev	#
	movq	%r12, %rax	# save_eptr.3003, tmp228
	movslq	%ebx,%rdx	# save_filt.3004, tmp227
	jmp	.L490	#
.L536:
	leaq	-160(%rbp), %rax	#, tmp288
	movq	%rax, %rdi	# tmp288,
.LEHB140:
	call	_ZN9lgHotspotD1Ev	#
	movq	-56(%rbp), %rax	# output, D.161399
	movl	$.LC23, %esi	#,
	movq	%rax, %rdi	# D.161399,
	call	_ZN8tinyxml27XMLNode18NextSiblingElementEPKc	#
	movq	%rax, -56(%rbp)	# output.1973, output
.L440:
	cmpq	$0, -56(%rbp)	#, output
	setne	%al	#, D.161397
	testb	%al, %al	# D.161397
	jne	.L443	#,
	movq	-984(%rbp), %rax	# g, D.161401
	movl	$.LC24, %esi	#,
	movq	%rax, %rdi	# D.161401,
	call	_ZN8tinyxml27XMLNode17FirstChildElementEPKc	#
	movq	%rax, -48(%rbp)	# shape.1974, shape
	jmp	.L444	#
.L445:
	movq	-48(%rbp), %rdx	# shape, tmp289
	leaq	-592(%rbp), %rcx	#, tmp290
	movq	-968(%rbp), %rax	# this, tmp291
	xorps	%xmm1, %xmm1	#
	xorps	%xmm0, %xmm0	#
	movq	%rcx, %rsi	# tmp290,
	movq	%rax, %rdi	# tmp291,
	call	_ZN12LibraryParse10parseShapeEP11LibraryGatePN8tinyxml210XMLElementEff	#
	movq	-48(%rbp), %rax	# shape, D.161408
	movl	$.LC24, %esi	#,
	movq	%rax, %rdi	# D.161408,
	call	_ZN8tinyxml27XMLNode18NextSiblingElementEPKc	#
	movq	%rax, -48(%rbp)	# shape.1975, shape
.L444:
	cmpq	$0, -48(%rbp)	#, shape
	setne	%al	#, D.161406
	testb	%al, %al	# D.161406
	jne	.L445	#,
	movq	-984(%rbp), %rax	# g, D.161410
	movl	$.LC25, %esi	#,
	movq	%rax, %rdi	# D.161410,
	call	_ZN8tinyxml27XMLNode17FirstChildElementEPKc	#
	movq	%rax, -40(%rbp)	# pdd.1976, pdd
	jmp	.L446	#
.L488:
	movq	-40(%rbp), %rax	# pdd, D.161417
	movl	$.LC26, %esi	#,
	movq	%rax, %rdi	# D.161417,
	call	_ZN8tinyxml27XMLNode17FirstChildElementEPKc	#
.LEHE140:
	movq	%rax, -32(%rbp)	# param.1977, param
	jmp	.L447	#
.L487:
	leaq	-117(%rbp), %rax	#, tmp292
	movq	%rax, %rdi	# tmp292,
	call	_ZNSaIcEC1Ev	#
	leaq	-117(%rbp), %rdx	#, tmp293
	leaq	-304(%rbp), %rax	#, tmp294
	movl	$.LC27, %esi	#,
	movq	%rax, %rdi	# tmp294,
.LEHB141:
	call	_ZNSsC1EPKcRKSaIcE	#
.LEHE141:
	jmp	.L537	#
.L509:
.L449:
	movl	%edx, %ebx	# tmp227, save_filt.3006
	movq	%rax, %r12	# tmp228, save_eptr.3005
	leaq	-117(%rbp), %rax	#, tmp295
	movq	%rax, %rdi	# tmp295,
	call	_ZNSaIcED1Ev	#
	movq	%r12, %rax	# save_eptr.3005, tmp228
	movslq	%ebx,%rdx	# save_filt.3006, tmp227
	jmp	.L490	#
.L537:
	leaq	-117(%rbp), %rax	#, tmp296
	movq	%rax, %rdi	# tmp296,
	call	_ZNSaIcED1Ev	#
	leaq	-116(%rbp), %rax	#, tmp297
	movq	%rax, %rdi	# tmp297,
	call	_ZNSaIcEC1Ev	#
	leaq	-116(%rbp), %rdx	#, tmp298
	leaq	-320(%rbp), %rax	#, tmp299
	movl	$.LC3, %esi	#,
	movq	%rax, %rdi	# tmp299,
.LEHB142:
	call	_ZNSsC1EPKcRKSaIcE	#
.LEHE142:
	jmp	.L538	#
.L507:
.L451:
	movl	%edx, %ebx	# tmp227, save_filt.3008
	movq	%rax, %r12	# tmp228, save_eptr.3007
	leaq	-116(%rbp), %rax	#, tmp300
	movq	%rax, %rdi	# tmp300,
	call	_ZNSaIcED1Ev	#
	movq	%r12, %rax	# save_eptr.3007, tmp228
	movslq	%ebx,%rdx	# save_filt.3008, tmp227
	jmp	.L486	#
.L538:
	leaq	-116(%rbp), %rax	#, tmp301
	movq	%rax, %rdi	# tmp301,
	call	_ZNSaIcED1Ev	#
	leaq	-115(%rbp), %rax	#, tmp302
	movq	%rax, %rdi	# tmp302,
	call	_ZNSaIcEC1Ev	#
	leaq	-115(%rbp), %rdx	#, tmp303
	leaq	-336(%rbp), %rax	#, tmp304
	movl	$.LC3, %esi	#,
	movq	%rax, %rdi	# tmp304,
.LEHB143:
	call	_ZNSsC1EPKcRKSaIcE	#
.LEHE143:
	jmp	.L539	#
.L505:
.L453:
	movl	%edx, %ebx	# tmp227, save_filt.3010
	movq	%rax, %r12	# tmp228, save_eptr.3009
	leaq	-115(%rbp), %rax	#, tmp305
	movq	%rax, %rdi	# tmp305,
	call	_ZNSaIcED1Ev	#
	movq	%r12, %rax	# save_eptr.3009, tmp228
	movslq	%ebx,%rdx	# save_filt.3010, tmp227
	jmp	.L484	#
.L539:
	leaq	-115(%rbp), %rax	#, tmp306
	movq	%rax, %rdi	# tmp306,
	call	_ZNSaIcED1Ev	#
	leaq	-114(%rbp), %rax	#, tmp307
	movq	%rax, %rdi	# tmp307,
	call	_ZNSaIcEC1Ev	#
	leaq	-114(%rbp), %rdx	#, tmp308
	leaq	-352(%rbp), %rax	#, tmp309
	movl	$.LC28, %esi	#,
	movq	%rax, %rdi	# tmp309,
.LEHB144:
	call	_ZNSsC1EPKcRKSaIcE	#
.LEHE144:
	jmp	.L540	#
.L503:
.L455:
	movl	%edx, %ebx	# tmp227, save_filt.3012
	movq	%rax, %r12	# tmp228, save_eptr.3011
	leaq	-114(%rbp), %rax	#, tmp310
	movq	%rax, %rdi	# tmp310,
	call	_ZNSaIcED1Ev	#
	movq	%r12, %rax	# save_eptr.3011, tmp228
	movslq	%ebx,%rdx	# save_filt.3012, tmp227
	jmp	.L482	#
.L540:
	leaq	-114(%rbp), %rax	#, tmp311
	movq	%rax, %rdi	# tmp311,
	call	_ZNSaIcED1Ev	#
	movl	$0xff7fffff, %eax	#, tmp312
	movl	%eax, -356(%rbp)	# tmp312, Rmin
	movl	$0x7f7fffff, %eax	#, tmp313
	movl	%eax, -360(%rbp)	# tmp313, Rmax
	movq	-32(%rbp), %rax	# param, D.161424
	movl	$0, %esi	#,
	movq	%rax, %rdi	# D.161424,
.LEHB145:
	call	_ZN8tinyxml27XMLNode17FirstChildElementEPKc	#
.LEHE145:
	movq	%rax, -24(%rbp)	# tag.1978, tag
	jmp	.L456	#
.L478:
	leaq	-113(%rbp), %rax	#, tmp314
	movq	%rax, %rdi	# tmp314,
	call	_ZNSaIcEC1Ev	#
	movq	-24(%rbp), %rax	# tag, D.161431
	movq	%rax, %rdi	# D.161431,
.LEHB146:
	call	_ZNK8tinyxml27XMLNode5ValueEv	#
	movq	%rax, %rcx	#, D.161432
	leaq	-113(%rbp), %rdx	#, tmp315
	leaq	-384(%rbp), %rax	#, tmp316
	movq	%rcx, %rsi	# D.161432,
	movq	%rax, %rdi	# tmp316,
	call	_ZNSsC1EPKcRKSaIcE	#
.LEHE146:
	jmp	.L541	#
.L501:
.L458:
	movl	%edx, %ebx	# tmp227, save_filt.3014
	movq	%rax, %r12	# tmp228, save_eptr.3013
	leaq	-113(%rbp), %rax	#, tmp317
	movq	%rax, %rdi	# tmp317,
	call	_ZNSaIcED1Ev	#
	movq	%r12, %rax	# save_eptr.3013, tmp228
	movslq	%ebx,%rdx	# save_filt.3014, tmp227
	jmp	.L480	#
.L541:
	leaq	-113(%rbp), %rax	#, tmp318
	movq	%rax, %rdi	# tmp318,
	call	_ZNSaIcED1Ev	#
	leaq	-384(%rbp), %rax	#, tmp319
	movl	$.LC31, %esi	#,
	movq	%rax, %rdi	# tmp319,
.LEHB147:
	call	_ZSteqIcSt11char_traitsIcESaIcEEbRKSbIT_T0_T1_EPKS3_	#
	testb	%al, %al	# retval.1979
	je	.L459	#,
	movq	-24(%rbp), %rax	# tag, tmp320
	movq	%rax, %rdi	# tmp320,
	call	_ZNK8tinyxml210XMLElement7GetTextEv	#
	movq	%rax, %rdx	#, D.161437
	leaq	-304(%rbp), %rax	#, tmp321
	movq	%rdx, %rsi	# D.161437,
	movq	%rax, %rdi	# tmp321,
	call	_ZNSsaSEPKc	#
	jmp	.L460	#
.L459:
	leaq	-384(%rbp), %rax	#, tmp322
	movl	$.LC32, %esi	#,
	movq	%rax, %rdi	# tmp322,
	call	_ZSteqIcSt11char_traitsIcESaIcEEbRKSbIT_T0_T1_EPKS3_	#
	testb	%al, %al	# retval.1980
	je	.L461	#,
	movq	-24(%rbp), %rax	# tag, tmp323
	movq	%rax, %rdi	# tmp323,
	call	_ZNK8tinyxml210XMLElement7GetTextEv	#
	movq	%rax, %rdx	#, D.161443
	leaq	-320(%rbp), %rax	#, tmp324
	movq	%rdx, %rsi	# D.161443,
	movq	%rax, %rdi	# tmp324,
	call	_ZNSsaSEPKc	#
	jmp	.L460	#
.L461:
	leaq	-384(%rbp), %rax	#, tmp325
	movl	$.LC33, %esi	#,
	movq	%rax, %rdi	# tmp325,
	call	_ZSteqIcSt11char_traitsIcESaIcEEbRKSbIT_T0_T1_EPKS3_	#
.LEHE147:
	testb	%al, %al	# retval.1981
	je	.L462	#,
	leaq	-97(%rbp), %rax	#, tmp326
	movq	%rax, %rdi	# tmp326,
	call	_ZNSaIcEC1Ev	#
	movq	-24(%rbp), %rax	# tag, tmp327
	movq	%rax, %rdi	# tmp327,
.LEHB148:
	call	_ZNK8tinyxml210XMLElement7GetTextEv	#
	movq	%rax, %rcx	#, D.161449
	leaq	-97(%rbp), %rdx	#, tmp328
	leaq	-112(%rbp), %rax	#, tmp329
	movq	%rcx, %rsi	# D.161449,
	movq	%rax, %rdi	# tmp329,
	call	_ZNSsC1EPKcRKSaIcE	#
.LEHE148:
	leaq	-112(%rbp), %rcx	#, tmp330
	leaq	-960(%rbp), %rax	#, tmp331
	movl	$8, %edx	#,
	movq	%rcx, %rsi	# tmp330,
	movq	%rax, %rdi	# tmp331,
.LEHB149:
	call	_ZNSt19basic_istringstreamIcSt11char_traitsIcESaIcEEC1ERKSsSt13_Ios_Openmode	#
.LEHE149:
	jmp	.L542	#
.L498:
.L464:
	movl	%edx, %ebx	# tmp227, save_filt.3016
	movq	%rax, %r12	# tmp228, save_eptr.3015
	leaq	-112(%rbp), %rax	#, tmp332
	movq	%rax, %rdi	# tmp332,
	call	_ZNSsD1Ev	#
	movq	%r12, %rax	# save_eptr.3015, tmp228
	movslq	%ebx,%rdx	# save_filt.3016, tmp227
	jmp	.L467	#
.L542:
	leaq	-112(%rbp), %rax	#, tmp333
	movq	%rax, %rdi	# tmp333,
.LEHB150:
	call	_ZNSsD1Ev	#
.LEHE150:
	jmp	.L543	#
.L497:
.L466:
	movl	%edx, %ebx	# tmp227, save_filt.3018
	movq	%rax, %r12	# tmp228, save_eptr.3017
	leaq	-960(%rbp), %rax	#, tmp334
	movq	%rax, %rdi	# tmp334,
	call	_ZNSt19basic_istringstreamIcSt11char_traitsIcESaIcEED1Ev	#
	movq	%r12, %rax	# save_eptr.3017, tmp228
	movslq	%ebx,%rdx	# save_filt.3018, tmp227
	jmp	.L467	#
.L499:
.L467:
	movl	%edx, %ebx	# tmp227, save_filt.3020
	movq	%rax, %r12	# tmp228, save_eptr.3019
	leaq	-97(%rbp), %rax	#, tmp335
	movq	%rax, %rdi	# tmp335,
	call	_ZNSaIcED1Ev	#
	movq	%r12, %rax	# save_eptr.3019, tmp228
	movslq	%ebx,%rdx	# save_filt.3020, tmp227
	jmp	.L477	#
.L543:
	leaq	-97(%rbp), %rax	#, tmp336
	movq	%rax, %rdi	# tmp336,
	call	_ZNSaIcED1Ev	#
	leaq	-352(%rbp), %rdx	#, tmp337
	leaq	-960(%rbp), %rax	#, tmp338
	movq	%rdx, %rsi	# tmp337,
	movq	%rax, %rdi	# tmp338,
.LEHB151:
	call	_ZStrsIcSt11char_traitsIcESaIcEERSt13basic_istreamIT_T0_ES7_RSbIS4_S5_T1_E	#
	leaq	-336(%rbp), %rdx	#, tmp339
	movq	%rdx, %rsi	# tmp339,
	movq	%rax, %rdi	# D.161450,
	call	_ZStrsIcSt11char_traitsIcESaIcEERSt13basic_istreamIT_T0_ES7_RSbIS4_S5_T1_E	#
.LEHE151:
	jmp	.L544	#
.L496:
.L469:
	movl	%edx, %ebx	# tmp227, save_filt.3022
	movq	%rax, %r12	# tmp228, save_eptr.3021
	leaq	-960(%rbp), %rax	#, tmp340
	movq	%rax, %rdi	# tmp340,
	call	_ZNSt19basic_istringstreamIcSt11char_traitsIcESaIcEED1Ev	#
	movq	%r12, %rax	# save_eptr.3021, tmp228
	movslq	%ebx,%rdx	# save_filt.3022, tmp227
	jmp	.L477	#
.L544:
	leaq	-960(%rbp), %rax	#, tmp341
	movq	%rax, %rdi	# tmp341,
.LEHB152:
	call	_ZNSt19basic_istringstreamIcSt11char_traitsIcESaIcEED1Ev	#
	jmp	.L460	#
.L462:
	leaq	-384(%rbp), %rax	#, tmp342
	movl	$.LC34, %esi	#,
	movq	%rax, %rdi	# tmp342,
	call	_ZSteqIcSt11char_traitsIcESaIcEEbRKSbIT_T0_T1_EPKS3_	#
.LEHE152:
	testb	%al, %al	# retval.1982
	je	.L460	#,
	leaq	-73(%rbp), %rax	#, tmp343
	movq	%rax, %rdi	# tmp343,
	call	_ZNSaIcEC1Ev	#
	movq	-24(%rbp), %rax	# tag, tmp344
	movq	%rax, %rdi	# tmp344,
.LEHB153:
	call	_ZNK8tinyxml210XMLElement7GetTextEv	#
	movq	%rax, %rcx	#, D.161456
	leaq	-73(%rbp), %rdx	#, tmp345
	leaq	-96(%rbp), %rax	#, tmp346
	movq	%rcx, %rsi	# D.161456,
	movq	%rax, %rdi	# tmp346,
	call	_ZNSsC1EPKcRKSaIcE	#
.LEHE153:
	leaq	-96(%rbp), %rcx	#, tmp347
	leaq	-960(%rbp), %rax	#, tmp348
	movl	$8, %edx	#,
	movq	%rcx, %rsi	# tmp347,
	movq	%rax, %rdi	# tmp348,
.LEHB154:
	call	_ZNSt19basic_istringstreamIcSt11char_traitsIcESaIcEEC1ERKSsSt13_Ios_Openmode	#
.LEHE154:
	jmp	.L545	#
.L494:
.L471:
	movl	%edx, %ebx	# tmp227, save_filt.3024
	movq	%rax, %r12	# tmp228, save_eptr.3023
	leaq	-96(%rbp), %rax	#, tmp349
	movq	%rax, %rdi	# tmp349,
	call	_ZNSsD1Ev	#
	movq	%r12, %rax	# save_eptr.3023, tmp228
	movslq	%ebx,%rdx	# save_filt.3024, tmp227
	jmp	.L474	#
.L545:
	leaq	-96(%rbp), %rax	#, tmp350
	movq	%rax, %rdi	# tmp350,
.LEHB155:
	call	_ZNSsD1Ev	#
.LEHE155:
	jmp	.L546	#
.L493:
.L473:
	movl	%edx, %ebx	# tmp227, save_filt.3026
	movq	%rax, %r12	# tmp228, save_eptr.3025
	leaq	-960(%rbp), %rax	#, tmp351
	movq	%rax, %rdi	# tmp351,
	call	_ZNSt19basic_istringstreamIcSt11char_traitsIcESaIcEED1Ev	#
	movq	%r12, %rax	# save_eptr.3025, tmp228
	movslq	%ebx,%rdx	# save_filt.3026, tmp227
	jmp	.L474	#
.L495:
.L474:
	movl	%edx, %ebx	# tmp227, save_filt.3028
	movq	%rax, %r12	# tmp228, save_eptr.3027
	leaq	-73(%rbp), %rax	#, tmp352
	movq	%rax, %rdi	# tmp352,
	call	_ZNSaIcED1Ev	#
	movq	%r12, %rax	# save_eptr.3027, tmp228
	movslq	%ebx,%rdx	# save_filt.3028, tmp227
	jmp	.L477	#
.L546:
	leaq	-73(%rbp), %rax	#, tmp353
	movq	%rax, %rdi	# tmp353,
	call	_ZNSaIcED1Ev	#
	leaq	-356(%rbp), %rdx	#, tmp354
	leaq	-960(%rbp), %rax	#, tmp355
	movq	%rdx, %rsi	# tmp354,
	movq	%rax, %rdi	# tmp355,
.LEHB156:
	call	_ZNSirsERf	#
	leaq	-361(%rbp), %rdx	#, tmp356
	movq	%rdx, %rsi	# tmp356,
	movq	%rax, %rdi	# D.161457,
	call	_ZStrsIcSt11char_traitsIcEERSt13basic_istreamIT_T0_ES6_RS3_	#
	leaq	-360(%rbp), %rdx	#, tmp357
	movq	%rdx, %rsi	# tmp357,
	movq	%rax, %rdi	# D.161458,
	call	_ZNSirsERf	#
.LEHE156:
	jmp	.L547	#
.L492:
.L476:
	movl	%edx, %ebx	# tmp227, save_filt.3030
	movq	%rax, %r12	# tmp228, save_eptr.3029
	leaq	-960(%rbp), %rax	#, tmp358
	movq	%rax, %rdi	# tmp358,
	call	_ZNSt19basic_istringstreamIcSt11char_traitsIcESaIcEED1Ev	#
	movq	%r12, %rax	# save_eptr.3029, tmp228
	movslq	%ebx,%rdx	# save_filt.3030, tmp227
	jmp	.L477	#
.L547:
	leaq	-960(%rbp), %rax	#, tmp359
	movq	%rax, %rdi	# tmp359,
.LEHB157:
	call	_ZNSt19basic_istringstreamIcSt11char_traitsIcESaIcEED1Ev	#
.LEHE157:
	jmp	.L460	#
.L500:
.L477:
	movl	%edx, %ebx	# tmp227, save_filt.3032
	movq	%rax, %r12	# tmp228, save_eptr.3031
	leaq	-384(%rbp), %rax	#, tmp360
	movq	%rax, %rdi	# tmp360,
	call	_ZNSsD1Ev	#
	movq	%r12, %rax	# save_eptr.3031, tmp228
	movslq	%ebx,%rdx	# save_filt.3032, tmp227
	jmp	.L480	#
.L460:
	leaq	-384(%rbp), %rax	#, tmp361
	movq	%rax, %rdi	# tmp361,
.LEHB158:
	call	_ZNSsD1Ev	#
	movq	-24(%rbp), %rax	# tag, D.161460
	movl	$0, %esi	#,
	movq	%rax, %rdi	# D.161460,
	call	_ZN8tinyxml27XMLNode18NextSiblingElementEPKc	#
.LEHE158:
	movq	%rax, -24(%rbp)	# tag.1983, tag
.L456:
	cmpq	$0, -24(%rbp)	#, tag
	setne	%al	#, D.161429
	testb	%al, %al	# D.161429
	jne	.L478	#,
	jmp	.L548	#
.L502:
.L480:
	movl	%edx, %ebx	# tmp227, save_filt.3034
	movq	%rax, %r12	# tmp228, save_eptr.3033
	leaq	-352(%rbp), %rax	#, tmp362
	movq	%rax, %rdi	# tmp362,
	call	_ZNSsD1Ev	#
	movq	%r12, %rax	# save_eptr.3033, tmp228
	movslq	%ebx,%rdx	# save_filt.3034, tmp227
	jmp	.L482	#
.L548:
	leaq	-352(%rbp), %rax	#, tmp363
	movq	%rax, %rdi	# tmp363,
.LEHB159:
	call	_ZNSsD1Ev	#
.LEHE159:
	jmp	.L549	#
.L504:
.L482:
	movl	%edx, %ebx	# tmp227, save_filt.3036
	movq	%rax, %r12	# tmp228, save_eptr.3035
	leaq	-336(%rbp), %rax	#, tmp364
	movq	%rax, %rdi	# tmp364,
	call	_ZNSsD1Ev	#
	movq	%r12, %rax	# save_eptr.3035, tmp228
	movslq	%ebx,%rdx	# save_filt.3036, tmp227
	jmp	.L484	#
.L549:
	leaq	-336(%rbp), %rax	#, tmp365
	movq	%rax, %rdi	# tmp365,
.LEHB160:
	call	_ZNSsD1Ev	#
.LEHE160:
	jmp	.L550	#
.L506:
.L484:
	movl	%edx, %ebx	# tmp227, save_filt.3038
	movq	%rax, %r12	# tmp228, save_eptr.3037
	leaq	-320(%rbp), %rax	#, tmp366
	movq	%rax, %rdi	# tmp366,
	call	_ZNSsD1Ev	#
	movq	%r12, %rax	# save_eptr.3037, tmp228
	movslq	%ebx,%rdx	# save_filt.3038, tmp227
	jmp	.L486	#
.L550:
	leaq	-320(%rbp), %rax	#, tmp367
	movq	%rax, %rdi	# tmp367,
.LEHB161:
	call	_ZNSsD1Ev	#
.LEHE161:
	jmp	.L551	#
.L508:
.L486:
	movl	%edx, %ebx	# tmp227, save_filt.3040
	movq	%rax, %r12	# tmp228, save_eptr.3039
	leaq	-304(%rbp), %rax	#, tmp368
	movq	%rax, %rdi	# tmp368,
	call	_ZNSsD1Ev	#
	movq	%r12, %rax	# save_eptr.3039, tmp228
	movslq	%ebx,%rdx	# save_filt.3040, tmp227
	jmp	.L490	#
.L551:
	leaq	-304(%rbp), %rax	#, tmp369
	movq	%rax, %rdi	# tmp369,
.LEHB162:
	call	_ZNSsD1Ev	#
	movq	-32(%rbp), %rax	# param, D.161462
	movl	$.LC26, %esi	#,
	movq	%rax, %rdi	# D.161462,
	call	_ZN8tinyxml27XMLNode18NextSiblingElementEPKc	#
	movq	%rax, -32(%rbp)	# param.1984, param
.L447:
	cmpq	$0, -32(%rbp)	#, param
	setne	%al	#, D.161422
	testb	%al, %al	# D.161422
	jne	.L487	#,
	movq	-40(%rbp), %rax	# pdd, D.161464
	movl	$.LC25, %esi	#,
	movq	%rax, %rdi	# D.161464,
	call	_ZN8tinyxml27XMLNode18NextSiblingElementEPKc	#
	movq	%rax, -40(%rbp)	# pdd.1985, pdd
.L446:
	cmpq	$0, -40(%rbp)	#, pdd
	setne	%al	#, D.161415
	testb	%al, %al	# D.161415
	jne	.L488	#,
	call	_Z8wxGetAppv	#
	leaq	504(%rax), %rdx	#, D.161467
	leaq	-592(%rbp), %rax	#, tmp370
	movq	%rax, %rsi	# tmp370,
	movq	%rdx, %rdi	# D.161467,
	call	_ZNSt3mapISsSsSt4lessISsESaISt4pairIKSsSsEEEixERS3_	#
	movq	-976(%rbp), %rdx	# lib_name, tmp371
	movq	%rdx, %rsi	# tmp371,
	movq	%rax, %rdi	# D.161468,
	call	_ZNSsaSERKSs	#
	call	_Z8wxGetAppv	#
	leaq	456(%rax), %rdx	#, D.161470
	movq	-976(%rbp), %rax	# lib_name, tmp372
	movq	%rax, %rsi	# tmp372,
	movq	%rdx, %rdi	# D.161470,
	call	_ZNSt3mapISsS_ISs11LibraryGateSt4lessISsESaISt4pairIKSsS0_EEES2_SaIS3_IS4_S7_EEEixERS4_	#
	leaq	-592(%rbp), %rdx	#, tmp373
	movq	%rdx, %rsi	# tmp373,
	movq	%rax, %rdi	# D.161471,
	call	_ZNSt3mapISs11LibraryGateSt4lessISsESaISt4pairIKSsS0_EEEixERS4_	#
	leaq	-592(%rbp), %rdx	#, tmp374
	movq	%rdx, %rsi	# tmp374,
	movq	%rax, %rdi	# D.161472,
	call	_ZN11LibraryGateaSERKS_	#
	movq	-968(%rbp), %rax	# this, tmp375
	leaq	16(%rax), %rdx	#, D.161473
	movq	-976(%rbp), %rax	# lib_name, tmp376
	movq	%rax, %rsi	# tmp376,
	movq	%rdx, %rdi	# D.161473,
	call	_ZNSt3mapISsS_ISs11LibraryGateSt4lessISsESaISt4pairIKSsS0_EEES2_SaIS3_IS4_S7_EEEixERS4_	#
	leaq	-592(%rbp), %rdx	#, tmp377
	movq	%rdx, %rsi	# tmp377,
	movq	%rax, %rdi	# D.161474,
	call	_ZNSt3mapISs11LibraryGateSt4lessISsESaISt4pairIKSsS0_EEEixERS4_	#
	leaq	-592(%rbp), %rdx	#, tmp378
	movq	%rdx, %rsi	# tmp378,
	movq	%rax, %rdi	# D.161475,
	call	_ZN11LibraryGateaSERKS_	#
.LEHE162:
	jmp	.L552	#
.L524:
.L490:
	movl	%edx, %ebx	# tmp227, save_filt.3042
	movq	%rax, %r12	# tmp228, save_eptr.3041
	leaq	-592(%rbp), %rax	#, tmp379
	movq	%rax, %rdi	# tmp379,
	call	_ZN11LibraryGateD1Ev	#
	movq	%r12, %rax	# save_eptr.3041, tmp228
	movslq	%ebx,%rdx	# save_filt.3042, tmp227
	movq	%rax, %rdi	# tmp228,
.LEHB163:
	call	_Unwind_Resume	#
.L552:
	leaq	-592(%rbp), %rax	#, tmp380
	movq	%rax, %rdi	# tmp380,
	call	_ZN11LibraryGateD1Ev	#
.LEHE163:
	addq	$976, %rsp	#,
	popq	%rbx	#
	popq	%r12	#
	leave
	ret
	.cfi_endproc
.LFE11171:
	.size	_ZN12LibraryParse9parseGateERKSsPN8tinyxml210XMLElementE, .-_ZN12LibraryParse9parseGateERKSsPN8tinyxml210XMLElementE
	.section	.gcc_except_table
.LLSDA11171:
	.byte	0xff
	.byte	0xff
	.byte	0x1
	.uleb128 .LLSDACSE11171-.LLSDACSB11171
.LLSDACSB11171:
	.uleb128 .LEHB119-.LFB11171
	.uleb128 .LEHE119-.LEHB119
	.uleb128 0x0
	.uleb128 0x0
	.uleb128 .LEHB120-.LFB11171
	.uleb128 .LEHE120-.LEHB120
	.uleb128 .L524-.LFB11171
	.uleb128 0x0
	.uleb128 .LEHB121-.LFB11171
	.uleb128 .LEHE121-.LEHB121
	.uleb128 .L523-.LFB11171
	.uleb128 0x0
	.uleb128 .LEHB122-.LFB11171
	.uleb128 .LEHE122-.LEHB122
	.uleb128 .L521-.LFB11171
	.uleb128 0x0
	.uleb128 .LEHB123-.LFB11171
	.uleb128 .LEHE123-.LEHB123
	.uleb128 .L520-.LFB11171
	.uleb128 0x0
	.uleb128 .LEHB124-.LFB11171
	.uleb128 .LEHE124-.LEHB124
	.uleb128 .L519-.LFB11171
	.uleb128 0x0
	.uleb128 .LEHB125-.LFB11171
	.uleb128 .LEHE125-.LEHB125
	.uleb128 .L518-.LFB11171
	.uleb128 0x0
	.uleb128 .LEHB126-.LFB11171
	.uleb128 .LEHE126-.LEHB126
	.uleb128 .L522-.LFB11171
	.uleb128 0x0
	.uleb128 .LEHB127-.LFB11171
	.uleb128 .LEHE127-.LEHB127
	.uleb128 .L523-.LFB11171
	.uleb128 0x0
	.uleb128 .LEHB128-.LFB11171
	.uleb128 .LEHE128-.LEHB128
	.uleb128 .L524-.LFB11171
	.uleb128 0x0
	.uleb128 .LEHB129-.LFB11171
	.uleb128 .LEHE129-.LEHB129
	.uleb128 .L517-.LFB11171
	.uleb128 0x0
	.uleb128 .LEHB130-.LFB11171
	.uleb128 .LEHE130-.LEHB130
	.uleb128 .L515-.LFB11171
	.uleb128 0x0
	.uleb128 .LEHB131-.LFB11171
	.uleb128 .LEHE131-.LEHB131
	.uleb128 .L514-.LFB11171
	.uleb128 0x0
	.uleb128 .LEHB132-.LFB11171
	.uleb128 .LEHE132-.LEHB132
	.uleb128 .L513-.LFB11171
	.uleb128 0x0
	.uleb128 .LEHB133-.LFB11171
	.uleb128 .LEHE133-.LEHB133
	.uleb128 .L512-.LFB11171
	.uleb128 0x0
	.uleb128 .LEHB134-.LFB11171
	.uleb128 .LEHE134-.LEHB134
	.uleb128 .L516-.LFB11171
	.uleb128 0x0
	.uleb128 .LEHB135-.LFB11171
	.uleb128 .LEHE135-.LEHB135
	.uleb128 .L517-.LFB11171
	.uleb128 0x0
	.uleb128 .LEHB136-.LFB11171
	.uleb128 .LEHE136-.LEHB136
	.uleb128 .L524-.LFB11171
	.uleb128 0x0
	.uleb128 .LEHB137-.LFB11171
	.uleb128 .LEHE137-.LEHB137
	.uleb128 .L511-.LFB11171
	.uleb128 0x0
	.uleb128 .LEHB138-.LFB11171
	.uleb128 .LEHE138-.LEHB138
	.uleb128 .L524-.LFB11171
	.uleb128 0x0
	.uleb128 .LEHB139-.LFB11171
	.uleb128 .LEHE139-.LEHB139
	.uleb128 .L510-.LFB11171
	.uleb128 0x0
	.uleb128 .LEHB140-.LFB11171
	.uleb128 .LEHE140-.LEHB140
	.uleb128 .L524-.LFB11171
	.uleb128 0x0
	.uleb128 .LEHB141-.LFB11171
	.uleb128 .LEHE141-.LEHB141
	.uleb128 .L509-.LFB11171
	.uleb128 0x0
	.uleb128 .LEHB142-.LFB11171
	.uleb128 .LEHE142-.LEHB142
	.uleb128 .L507-.LFB11171
	.uleb128 0x0
	.uleb128 .LEHB143-.LFB11171
	.uleb128 .LEHE143-.LEHB143
	.uleb128 .L505-.LFB11171
	.uleb128 0x0
	.uleb128 .LEHB144-.LFB11171
	.uleb128 .LEHE144-.LEHB144
	.uleb128 .L503-.LFB11171
	.uleb128 0x0
	.uleb128 .LEHB145-.LFB11171
	.uleb128 .LEHE145-.LEHB145
	.uleb128 .L502-.LFB11171
	.uleb128 0x0
	.uleb128 .LEHB146-.LFB11171
	.uleb128 .LEHE146-.LEHB146
	.uleb128 .L501-.LFB11171
	.uleb128 0x0
	.uleb128 .LEHB147-.LFB11171
	.uleb128 .LEHE147-.LEHB147
	.uleb128 .L500-.LFB11171
	.uleb128 0x0
	.uleb128 .LEHB148-.LFB11171
	.uleb128 .LEHE148-.LEHB148
	.uleb128 .L499-.LFB11171
	.uleb128 0x0
	.uleb128 .LEHB149-.LFB11171
	.uleb128 .LEHE149-.LEHB149
	.uleb128 .L498-.LFB11171
	.uleb128 0x0
	.uleb128 .LEHB150-.LFB11171
	.uleb128 .LEHE150-.LEHB150
	.uleb128 .L497-.LFB11171
	.uleb128 0x0
	.uleb128 .LEHB151-.LFB11171
	.uleb128 .LEHE151-.LEHB151
	.uleb128 .L496-.LFB11171
	.uleb128 0x0
	.uleb128 .LEHB152-.LFB11171
	.uleb128 .LEHE152-.LEHB152
	.uleb128 .L500-.LFB11171
	.uleb128 0x0
	.uleb128 .LEHB153-.LFB11171
	.uleb128 .LEHE153-.LEHB153
	.uleb128 .L495-.LFB11171
	.uleb128 0x0
	.uleb128 .LEHB154-.LFB11171
	.uleb128 .LEHE154-.LEHB154
	.uleb128 .L494-.LFB11171
	.uleb128 0x0
	.uleb128 .LEHB155-.LFB11171
	.uleb128 .LEHE155-.LEHB155
	.uleb128 .L493-.LFB11171
	.uleb128 0x0
	.uleb128 .LEHB156-.LFB11171
	.uleb128 .LEHE156-.LEHB156
	.uleb128 .L492-.LFB11171
	.uleb128 0x0
	.uleb128 .LEHB157-.LFB11171
	.uleb128 .LEHE157-.LEHB157
	.uleb128 .L500-.LFB11171
	.uleb128 0x0
	.uleb128 .LEHB158-.LFB11171
	.uleb128 .LEHE158-.LEHB158
	.uleb128 .L502-.LFB11171
	.uleb128 0x0
	.uleb128 .LEHB159-.LFB11171
	.uleb128 .LEHE159-.LEHB159
	.uleb128 .L504-.LFB11171
	.uleb128 0x0
	.uleb128 .LEHB160-.LFB11171
	.uleb128 .LEHE160-.LEHB160
	.uleb128 .L506-.LFB11171
	.uleb128 0x0
	.uleb128 .LEHB161-.LFB11171
	.uleb128 .LEHE161-.LEHB161
	.uleb128 .L508-.LFB11171
	.uleb128 0x0
	.uleb128 .LEHB162-.LFB11171
	.uleb128 .LEHE162-.LEHB162
	.uleb128 .L524-.LFB11171
	.uleb128 0x0
	.uleb128 .LEHB163-.LFB11171
	.uleb128 .LEHE163-.LEHB163
	.uleb128 0x0
	.uleb128 0x0
.LLSDACSE11171:
	.text
	.section	.rodata
.LC35:
	.string	"libraries"
.LC36:
	.string	"library"
.LC37:
	.string	"gate"
	.text
	.align 2
.globl _ZN12LibraryParse9parseFileEv
	.type	_ZN12LibraryParse9parseFileEv, @function
_ZN12LibraryParse9parseFileEv:
.LFB11182:
	.cfi_startproc
	.cfi_personality 0x3,__gxx_personality_v0
	.cfi_lsda 0x3,.LLSDA11182
	pushq	%rbp	#
	.cfi_def_cfa_offset 16
	movq	%rsp, %rbp	#,
	.cfi_offset 6, -16
	.cfi_def_cfa_register 6
	pushq	%r12	#
	pushq	%rbx	#
	subq	$704, %rsp	#,
	movq	%rdi, -712(%rbp)	# this, this
	leaq	-704(%rbp), %rax	#, tmp78
	movl	$1, %esi	#,
	movq	%rax, %rdi	# tmp78,
.LEHB164:
	.cfi_offset 3, -32
	.cfi_offset 12, -24
	call	_ZN8tinyxml211XMLDocumentC1Eb	#
.LEHE164:
	movq	-712(%rbp), %rax	# this, D.161486
	movq	%rax, %rdi	# D.161486,
.LEHB165:
	call	_ZNKSs5c_strEv	#
	movq	%rax, %rdx	#, D.161487
	leaq	-704(%rbp), %rax	#, tmp79
	movq	%rdx, %rsi	# D.161487,
	movq	%rax, %rdi	# tmp79,
	call	_ZN8tinyxml211XMLDocument8LoadFileEPKc	#
	leaq	-704(%rbp), %rax	#, tmp80
	movl	$.LC35, %esi	#,
	movq	%rax, %rdi	# tmp80,
	call	_ZN8tinyxml27XMLNode17FirstChildElementEPKc	#
	movq	%rax, -40(%rbp)	# libs.1986, libs
	movq	-40(%rbp), %rax	# libs, D.161489
	movl	$.LC36, %esi	#,
	movq	%rax, %rdi	# D.161489,
	call	_ZN8tinyxml27XMLNode17FirstChildElementEPKc	#
.LEHE165:
	movq	%rax, -32(%rbp)	# lib.1987, lib
	jmp	.L554	#
.L561:
	leaq	-41(%rbp), %rax	#, tmp81
	movq	%rax, %rdi	# tmp81,
	call	_ZNSaIcEC1Ev	#
	movq	-32(%rbp), %rax	# lib, tmp82
	movq	%rax, %rdi	# tmp82,
.LEHB166:
	call	_ZNK8tinyxml210XMLElement7GetTextEv	#
	movq	%rax, %rcx	#, D.161496
	leaq	-41(%rbp), %rdx	#, tmp83
	leaq	-64(%rbp), %rax	#, tmp84
	movq	%rcx, %rsi	# D.161496,
	movq	%rax, %rdi	# tmp84,
	call	_ZNSsC1EPKcRKSaIcE	#
.LEHE166:
	jmp	.L568	#
.L566:
.L556:
	movl	%edx, %ebx	# tmp85, save_filt.2972
	movq	%rax, %r12	# tmp86, save_eptr.2971
	leaq	-41(%rbp), %rax	#, tmp87
	movq	%rax, %rdi	# tmp87,
	call	_ZNSaIcED1Ev	#
	movq	%r12, %rax	# save_eptr.2971, tmp86
	movslq	%ebx,%rdx	# save_filt.2972, tmp85
	jmp	.L563	#
.L568:
	leaq	-41(%rbp), %rax	#, tmp88
	movq	%rax, %rdi	# tmp88,
	call	_ZNSaIcED1Ev	#
	movq	-32(%rbp), %rax	# lib, D.161497
	movl	$.LC37, %esi	#,
	movq	%rax, %rdi	# D.161497,
.LEHB167:
	call	_ZN8tinyxml27XMLNode17FirstChildElementEPKc	#
	movq	%rax, -24(%rbp)	# gate.1988, gate
	jmp	.L557	#
.L558:
	movq	-24(%rbp), %rdx	# gate, tmp89
	leaq	-64(%rbp), %rcx	#, tmp90
	movq	-712(%rbp), %rax	# this, tmp91
	movq	%rcx, %rsi	# tmp90,
	movq	%rax, %rdi	# tmp91,
	call	_ZN12LibraryParse9parseGateERKSsPN8tinyxml210XMLElementE	#
	movq	-24(%rbp), %rax	# gate, D.161504
	movl	$.LC37, %esi	#,
	movq	%rax, %rdi	# D.161504,
	call	_ZN8tinyxml27XMLNode18NextSiblingElementEPKc	#
.LEHE167:
	movq	%rax, -24(%rbp)	# gate.1989, gate
.L557:
	cmpq	$0, -24(%rbp)	#, gate
	setne	%al	#, D.161502
	testb	%al, %al	# D.161502
	jne	.L558	#,
	jmp	.L569	#
.L565:
.L560:
	movl	%edx, %ebx	# tmp85, save_filt.2974
	movq	%rax, %r12	# tmp86, save_eptr.2973
	leaq	-64(%rbp), %rax	#, tmp92
	movq	%rax, %rdi	# tmp92,
	call	_ZNSsD1Ev	#
	movq	%r12, %rax	# save_eptr.2973, tmp86
	movslq	%ebx,%rdx	# save_filt.2974, tmp85
	jmp	.L563	#
.L569:
	leaq	-64(%rbp), %rax	#, tmp93
	movq	%rax, %rdi	# tmp93,
.LEHB168:
	call	_ZNSsD1Ev	#
	movq	-32(%rbp), %rax	# lib, D.161506
	movl	$.LC36, %esi	#,
	movq	%rax, %rdi	# D.161506,
	call	_ZN8tinyxml27XMLNode18NextSiblingElementEPKc	#
.LEHE168:
	movq	%rax, -32(%rbp)	# lib.1990, lib
.L554:
	cmpq	$0, -32(%rbp)	#, lib
	setne	%al	#, D.161494
	testb	%al, %al	# D.161494
	jne	.L561	#,
	jmp	.L570	#
.L567:
.L563:
	movl	%edx, %ebx	# tmp85, save_filt.2976
	movq	%rax, %r12	# tmp86, save_eptr.2975
	leaq	-704(%rbp), %rax	#, tmp94
	movq	%rax, %rdi	# tmp94,
	call	_ZN8tinyxml211XMLDocumentD1Ev	#
	movq	%r12, %rax	# save_eptr.2975, tmp86
	movslq	%ebx,%rdx	# save_filt.2976, tmp85
	movq	%rax, %rdi	# tmp86,
.LEHB169:
	call	_Unwind_Resume	#
.L570:
	leaq	-704(%rbp), %rax	#, tmp95
	movq	%rax, %rdi	# tmp95,
	call	_ZN8tinyxml211XMLDocumentD1Ev	#
.LEHE169:
	addq	$704, %rsp	#,
	popq	%rbx	#
	popq	%r12	#
	leave
	ret
	.cfi_endproc
.LFE11182:
	.size	_ZN12LibraryParse9parseFileEv, .-_ZN12LibraryParse9parseFileEv
	.section	.gcc_except_table
.LLSDA11182:
	.byte	0xff
	.byte	0xff
	.byte	0x1
	.uleb128 .LLSDACSE11182-.LLSDACSB11182
.LLSDACSB11182:
	.uleb128 .LEHB164-.LFB11182
	.uleb128 .LEHE164-.LEHB164
	.uleb128 0x0
	.uleb128 0x0
	.uleb128 .LEHB165-.LFB11182
	.uleb128 .LEHE165-.LEHB165
	.uleb128 .L567-.LFB11182
	.uleb128 0x0
	.uleb128 .LEHB166-.LFB11182
	.uleb128 .LEHE166-.LEHB166
	.uleb128 .L566-.LFB11182
	.uleb128 0x0
	.uleb128 .LEHB167-.LFB11182
	.uleb128 .LEHE167-.LEHB167
	.uleb128 .L565-.LFB11182
	.uleb128 0x0
	.uleb128 .LEHB168-.LFB11182
	.uleb128 .LEHE168-.LEHB168
	.uleb128 .L567-.LFB11182
	.uleb128 0x0
	.uleb128 .LEHB169-.LFB11182
	.uleb128 .LEHE169-.LEHB169
	.uleb128 0x0
	.uleb128 0x0
.LLSDACSE11182:
	.text
	.align 2
.globl _ZN12LibraryParse7getGateESsR11LibraryGate
	.type	_ZN12LibraryParse7getGateESsR11LibraryGate, @function
_ZN12LibraryParse7getGateESsR11LibraryGate:
.LFB11183:
	.cfi_startproc
	.cfi_personality 0x3,__gxx_personality_v0
	pushq	%rbp	#
	.cfi_def_cfa_offset 16
	movq	%rsp, %rbp	#,
	.cfi_offset 6, -16
	.cfi_def_cfa_register 6
	subq	$112, %rsp	#,
	movq	%rdi, -88(%rbp)	# this, this
	movq	%rsi, -96(%rbp)	# gateName, gateName
	movq	%rdx, -104(%rbp)	# lgGate, lgGate
	call	_Z8wxGetAppv	#
	leaq	504(%rax), %rdx	#, D.161717
	movq	-96(%rbp), %rax	# gateName, tmp83
	movq	%rax, %rsi	# tmp83,
	movq	%rdx, %rdi	# D.161717,
	call	_ZNSt3mapISsSsSt4lessISsESaISt4pairIKSsSsEEE4findERS3_	#
	movq	%rax, -64(%rbp)	# tmp85, findGate
	call	_Z8wxGetAppv	#
	addq	$504, %rax	#, D.161720
	movq	%rax, %rdi	# D.161720,
	call	_ZNSt3mapISsSsSt4lessISsESaISt4pairIKSsSsEEE3endEv	#
	movq	%rax, -48(%rbp)	# tmp87, D.161570
	leaq	-48(%rbp), %rdx	#, tmp88
	leaq	-64(%rbp), %rax	#, tmp89
	movq	%rdx, %rsi	# tmp88,
	movq	%rax, %rdi	# tmp89,
	call	_ZNKSt17_Rb_tree_iteratorISt4pairIKSsSsEEeqERKS3_	#
	testb	%al, %al	# retval.1991
	je	.L572	#,
	movl	$0, %eax	#, D.161724
	jmp	.L573	#
.L572:
	leaq	-64(%rbp), %rax	#, tmp90
	movq	%rax, %rdi	# tmp90,
	call	_ZNKSt17_Rb_tree_iteratorISt4pairIKSsSsEEptEv	#
	leaq	8(%rax), %rdx	#, D.161726
	movq	-88(%rbp), %rax	# this, tmp91
	addq	$16, %rax	#, D.161727
	movq	%rdx, %rsi	# D.161726,
	movq	%rax, %rdi	# D.161727,
	call	_ZNSt3mapISsS_ISs11LibraryGateSt4lessISsESaISt4pairIKSsS0_EEES2_SaIS3_IS4_S7_EEEixERS4_	#
	movq	-96(%rbp), %rdx	# gateName, tmp92
	movq	%rdx, %rsi	# tmp92,
	movq	%rax, %rdi	# D.161728,
	call	_ZNSt3mapISs11LibraryGateSt4lessISsESaISt4pairIKSsS0_EEE4findERS4_	#
	movq	%rax, -80(%rbp)	# tmp94, findVal
	leaq	-64(%rbp), %rax	#, tmp95
	movq	%rax, %rdi	# tmp95,
	call	_ZNKSt17_Rb_tree_iteratorISt4pairIKSsSsEEptEv	#
	leaq	8(%rax), %rdx	#, D.161731
	movq	-88(%rbp), %rax	# this, tmp96
	addq	$16, %rax	#, D.161732
	movq	%rdx, %rsi	# D.161731,
	movq	%rax, %rdi	# D.161732,
	call	_ZNSt3mapISsS_ISs11LibraryGateSt4lessISsESaISt4pairIKSsS0_EEES2_SaIS3_IS4_S7_EEEixERS4_	#
	movq	%rax, %rdi	# D.161733,
	call	_ZNSt3mapISs11LibraryGateSt4lessISsESaISt4pairIKSsS0_EEE3endEv	#
	movq	%rax, -32(%rbp)	# tmp98, D.161671
	leaq	-32(%rbp), %rdx	#, tmp99
	leaq	-80(%rbp), %rax	#, tmp100
	movq	%rdx, %rsi	# tmp99,
	movq	%rax, %rdi	# tmp100,
	call	_ZNKSt17_Rb_tree_iteratorISt4pairIKSs11LibraryGateEEneERKS4_	#
	testb	%al, %al	# retval.1992
	je	.L574	#,
	leaq	-80(%rbp), %rax	#, tmp101
	movq	%rax, %rdi	# tmp101,
	call	_ZNKSt17_Rb_tree_iteratorISt4pairIKSs11LibraryGateEEptEv	#
	leaq	8(%rax), %rdx	#, D.161738
	movq	-104(%rbp), %rax	# lgGate, tmp102
	movq	%rdx, %rsi	# D.161738,
	movq	%rax, %rdi	# tmp102,
	call	_ZN11LibraryGateaSERKS_	#
.L574:
	leaq	-64(%rbp), %rax	#, tmp103
	movq	%rax, %rdi	# tmp103,
	call	_ZNKSt17_Rb_tree_iteratorISt4pairIKSsSsEEptEv	#
	leaq	8(%rax), %rdx	#, D.161741
	movq	-88(%rbp), %rax	# this, tmp104
	addq	$16, %rax	#, D.161742
	movq	%rdx, %rsi	# D.161741,
	movq	%rax, %rdi	# D.161742,
	call	_ZNSt3mapISsS_ISs11LibraryGateSt4lessISsESaISt4pairIKSsS0_EEES2_SaIS3_IS4_S7_EEEixERS4_	#
	movq	%rax, %rdi	# D.161743,
	call	_ZNSt3mapISs11LibraryGateSt4lessISsESaISt4pairIKSsS0_EEE3endEv	#
	movq	%rax, -16(%rbp)	# tmp106, D.161715
	leaq	-16(%rbp), %rdx	#, tmp107
	leaq	-80(%rbp), %rax	#, tmp108
	movq	%rdx, %rsi	# tmp107,
	movq	%rax, %rdi	# tmp108,
	call	_ZNKSt17_Rb_tree_iteratorISt4pairIKSs11LibraryGateEEneERKS4_	#
.L573:
	leave
	ret
	.cfi_endproc
.LFE11183:
	.size	_ZN12LibraryParse7getGateESsR11LibraryGate, .-_ZN12LibraryParse7getGateESsR11LibraryGate
	.align 2
.globl _ZN12LibraryParse16getGateLogicTypeESs
	.type	_ZN12LibraryParse16getGateLogicTypeESs, @function
_ZN12LibraryParse16getGateLogicTypeESs:
.LFB11184:
	.cfi_startproc
	.cfi_personality 0x3,__gxx_personality_v0
	.cfi_lsda 0x3,.LLSDA11184
	pushq	%rbp	#
	.cfi_def_cfa_offset 16
	movq	%rsp, %rbp	#,
	.cfi_offset 6, -16
	.cfi_def_cfa_register 6
	pushq	%r12	#
	pushq	%rbx	#
	subq	$80, %rsp	#,
	movq	%rdi, %rbx	# D.181404, <result>
	.cfi_offset 3, -32
	.cfi_offset 12, -24
	movq	%rsi, -88(%rbp)	# this, this
	movq	%rdx, -96(%rbp)	# gateName, gateName
.LEHB170:
	call	_Z8wxGetAppv	#
	leaq	504(%rax), %rdx	#, D.161763
	movq	-96(%rbp), %rax	# gateName, tmp88
	movq	%rax, %rsi	# tmp88,
	movq	%rdx, %rdi	# D.161763,
	call	_ZNSt3mapISsSsSt4lessISsESaISt4pairIKSsSsEEE4findERS3_	#
	movq	%rax, -80(%rbp)	# tmp90, findGate
	call	_Z8wxGetAppv	#
	addq	$504, %rax	#, D.161766
	movq	%rax, %rdi	# D.161766,
	call	_ZNSt3mapISsSsSt4lessISsESaISt4pairIKSsSsEEE3endEv	#
.LEHE170:
	movq	%rax, -64(%rbp)	# tmp92, D.161751
	leaq	-64(%rbp), %rdx	#, tmp93
	leaq	-80(%rbp), %rax	#, tmp94
	movq	%rdx, %rsi	# tmp93,
	movq	%rax, %rdi	# tmp94,
	call	_ZNKSt17_Rb_tree_iteratorISt4pairIKSsSsEEeqERKS3_	#
	testb	%al, %al	# retval.1993
	je	.L577	#,
	movq	%rbx, %r12	# <result>, D.161770
	leaq	-49(%rbp), %rax	#, tmp95
	movq	%rax, %rdi	# tmp95,
	call	_ZNSaIcEC1Ev	#
	leaq	-49(%rbp), %rax	#, tmp96
	movq	%rax, %rdx	# tmp96,
	movl	$.LC3, %esi	#,
	movq	%r12, %rdi	# D.161770,
.LEHB171:
	call	_ZNSsC1EPKcRKSaIcE	#
.LEHE171:
	jmp	.L587	#
.L586:
.L579:
	movl	%edx, %ebx	# tmp97, save_filt.2952
	movq	%rax, %r12	# tmp98, save_eptr.2951
	leaq	-49(%rbp), %rax	#, tmp99
	movq	%rax, %rdi	# tmp99,
	call	_ZNSaIcED1Ev	#
	movq	%r12, %rax	# save_eptr.2951, tmp98
	movslq	%ebx,%rdx	# save_filt.2952, tmp97
	movq	%rax, %rdi	# tmp98,
.LEHB172:
	call	_Unwind_Resume	#
.L587:
	leaq	-49(%rbp), %rax	#, tmp100
	movq	%rax, %rdi	# tmp100,
	call	_ZNSaIcED1Ev	#
	jmp	.L576	#
.L577:
	leaq	-80(%rbp), %rax	#, tmp101
	movq	%rax, %rdi	# tmp101,
	call	_ZNKSt17_Rb_tree_iteratorISt4pairIKSsSsEEptEv	#
	leaq	8(%rax), %rdx	#, D.161773
	movq	-88(%rbp), %rax	# this, tmp102
	addq	$16, %rax	#, D.161774
	movq	%rdx, %rsi	# D.161773,
	movq	%rax, %rdi	# D.161774,
	call	_ZNSt3mapISsS_ISs11LibraryGateSt4lessISsESaISt4pairIKSsS0_EEES2_SaIS3_IS4_S7_EEEixERS4_	#
	movq	%rax, %rdi	# D.161775,
	call	_ZNSt3mapISs11LibraryGateSt4lessISsESaISt4pairIKSsS0_EEE3endEv	#
	movq	%rax, -48(%rbp)	# tmp104, D.161756
	leaq	-80(%rbp), %rax	#, tmp105
	movq	%rax, %rdi	# tmp105,
	call	_ZNKSt17_Rb_tree_iteratorISt4pairIKSsSsEEptEv	#
	leaq	8(%rax), %rdx	#, D.161777
	movq	-88(%rbp), %rax	# this, tmp106
	addq	$16, %rax	#, D.161778
	movq	%rdx, %rsi	# D.161777,
	movq	%rax, %rdi	# D.161778,
	call	_ZNSt3mapISsS_ISs11LibraryGateSt4lessISsESaISt4pairIKSsS0_EEES2_SaIS3_IS4_S7_EEEixERS4_	#
	movq	-96(%rbp), %rdx	# gateName, tmp107
	movq	%rdx, %rsi	# tmp107,
	movq	%rax, %rdi	# D.161779,
	call	_ZNSt3mapISs11LibraryGateSt4lessISsESaISt4pairIKSsS0_EEE4findERS4_	#
.LEHE172:
	movq	%rax, -32(%rbp)	# tmp109, D.161755
	leaq	-48(%rbp), %rdx	#, tmp110
	leaq	-32(%rbp), %rax	#, tmp111
	movq	%rdx, %rsi	# tmp110,
	movq	%rax, %rdi	# tmp111,
	call	_ZNKSt17_Rb_tree_iteratorISt4pairIKSs11LibraryGateEEeqERKS4_	#
	testb	%al, %al	# retval.1994
	je	.L581	#,
	movq	%rbx, %r12	# <result>, D.161783
	leaq	-17(%rbp), %rax	#, tmp112
	movq	%rax, %rdi	# tmp112,
	call	_ZNSaIcEC1Ev	#
	leaq	-17(%rbp), %rax	#, tmp113
	movq	%rax, %rdx	# tmp113,
	movl	$.LC3, %esi	#,
	movq	%r12, %rdi	# D.161783,
.LEHB173:
	call	_ZNSsC1EPKcRKSaIcE	#
.LEHE173:
	jmp	.L588	#
.L585:
.L583:
	movl	%edx, %ebx	# tmp97, save_filt.2954
	movq	%rax, %r12	# tmp98, save_eptr.2953
	leaq	-17(%rbp), %rax	#, tmp114
	movq	%rax, %rdi	# tmp114,
	call	_ZNSaIcED1Ev	#
	movq	%r12, %rax	# save_eptr.2953, tmp98
	movslq	%ebx,%rdx	# save_filt.2954, tmp97
	movq	%rax, %rdi	# tmp98,
.LEHB174:
	call	_Unwind_Resume	#
.L588:
	leaq	-17(%rbp), %rax	#, tmp115
	movq	%rax, %rdi	# tmp115,
	call	_ZNSaIcED1Ev	#
	jmp	.L576	#
.L581:
	movq	%rbx, %r12	# <result>, D.161784
	leaq	-80(%rbp), %rax	#, tmp116
	movq	%rax, %rdi	# tmp116,
	call	_ZNKSt17_Rb_tree_iteratorISt4pairIKSsSsEEptEv	#
	leaq	8(%rax), %rdx	#, D.161786
	movq	-88(%rbp), %rax	# this, tmp117
	addq	$16, %rax	#, D.161787
	movq	%rdx, %rsi	# D.161786,
	movq	%rax, %rdi	# D.161787,
	call	_ZNSt3mapISsS_ISs11LibraryGateSt4lessISsESaISt4pairIKSsS0_EEES2_SaIS3_IS4_S7_EEEixERS4_	#
	movq	-96(%rbp), %rdx	# gateName, tmp118
	movq	%rdx, %rsi	# tmp118,
	movq	%rax, %rdi	# D.161788,
	call	_ZNSt3mapISs11LibraryGateSt4lessISsESaISt4pairIKSsS0_EEEixERS4_	#
	addq	$24, %rax	#, D.161790
	movq	%rax, %rsi	# D.161790,
	movq	%r12, %rdi	# D.161784,
	call	_ZNSsC1ERKSs	#
.LEHE174:
.L576:
	movq	%rbx, %rax	# <result>,
	movq	%rbx, %rax	# <result>,
	addq	$80, %rsp	#,
	popq	%rbx	#
	popq	%r12	#
	leave
	ret
	.cfi_endproc
.LFE11184:
	.size	_ZN12LibraryParse16getGateLogicTypeESs, .-_ZN12LibraryParse16getGateLogicTypeESs
	.section	.gcc_except_table
.LLSDA11184:
	.byte	0xff
	.byte	0xff
	.byte	0x1
	.uleb128 .LLSDACSE11184-.LLSDACSB11184
.LLSDACSB11184:
	.uleb128 .LEHB170-.LFB11184
	.uleb128 .LEHE170-.LEHB170
	.uleb128 0x0
	.uleb128 0x0
	.uleb128 .LEHB171-.LFB11184
	.uleb128 .LEHE171-.LEHB171
	.uleb128 .L586-.LFB11184
	.uleb128 0x0
	.uleb128 .LEHB172-.LFB11184
	.uleb128 .LEHE172-.LEHB172
	.uleb128 0x0
	.uleb128 0x0
	.uleb128 .LEHB173-.LFB11184
	.uleb128 .LEHE173-.LEHB173
	.uleb128 .L585-.LFB11184
	.uleb128 0x0
	.uleb128 .LEHB174-.LFB11184
	.uleb128 .LEHE174-.LEHB174
	.uleb128 0x0
	.uleb128 0x0
.LLSDACSE11184:
	.text
	.align 2
.globl _ZN12LibraryParse14getGateGUITypeESs
	.type	_ZN12LibraryParse14getGateGUITypeESs, @function
_ZN12LibraryParse14getGateGUITypeESs:
.LFB11185:
	.cfi_startproc
	.cfi_personality 0x3,__gxx_personality_v0
	.cfi_lsda 0x3,.LLSDA11185
	pushq	%rbp	#
	.cfi_def_cfa_offset 16
	movq	%rsp, %rbp	#,
	.cfi_offset 6, -16
	.cfi_def_cfa_register 6
	pushq	%r12	#
	pushq	%rbx	#
	subq	$80, %rsp	#,
	movq	%rdi, %rbx	# D.181405, <result>
	.cfi_offset 3, -32
	.cfi_offset 12, -24
	movq	%rsi, -88(%rbp)	# this, this
	movq	%rdx, -96(%rbp)	# gateName, gateName
.LEHB175:
	call	_Z8wxGetAppv	#
	leaq	504(%rax), %rdx	#, D.161809
	movq	-96(%rbp), %rax	# gateName, tmp88
	movq	%rax, %rsi	# tmp88,
	movq	%rdx, %rdi	# D.161809,
	call	_ZNSt3mapISsSsSt4lessISsESaISt4pairIKSsSsEEE4findERS3_	#
	movq	%rax, -80(%rbp)	# tmp90, findGate
	call	_Z8wxGetAppv	#
	addq	$504, %rax	#, D.161812
	movq	%rax, %rdi	# D.161812,
	call	_ZNSt3mapISsSsSt4lessISsESaISt4pairIKSsSsEEE3endEv	#
.LEHE175:
	movq	%rax, -64(%rbp)	# tmp92, D.161797
	leaq	-64(%rbp), %rdx	#, tmp93
	leaq	-80(%rbp), %rax	#, tmp94
	movq	%rdx, %rsi	# tmp93,
	movq	%rax, %rdi	# tmp94,
	call	_ZNKSt17_Rb_tree_iteratorISt4pairIKSsSsEEeqERKS3_	#
	testb	%al, %al	# retval.1995
	je	.L590	#,
	movq	%rbx, %r12	# <result>, D.161816
	leaq	-49(%rbp), %rax	#, tmp95
	movq	%rax, %rdi	# tmp95,
	call	_ZNSaIcEC1Ev	#
	leaq	-49(%rbp), %rax	#, tmp96
	movq	%rax, %rdx	# tmp96,
	movl	$.LC3, %esi	#,
	movq	%r12, %rdi	# D.161816,
.LEHB176:
	call	_ZNSsC1EPKcRKSaIcE	#
.LEHE176:
	jmp	.L600	#
.L599:
.L592:
	movl	%edx, %ebx	# tmp97, save_filt.2782
	movq	%rax, %r12	# tmp98, save_eptr.2781
	leaq	-49(%rbp), %rax	#, tmp99
	movq	%rax, %rdi	# tmp99,
	call	_ZNSaIcED1Ev	#
	movq	%r12, %rax	# save_eptr.2781, tmp98
	movslq	%ebx,%rdx	# save_filt.2782, tmp97
	movq	%rax, %rdi	# tmp98,
.LEHB177:
	call	_Unwind_Resume	#
.L600:
	leaq	-49(%rbp), %rax	#, tmp100
	movq	%rax, %rdi	# tmp100,
	call	_ZNSaIcED1Ev	#
	jmp	.L589	#
.L590:
	leaq	-80(%rbp), %rax	#, tmp101
	movq	%rax, %rdi	# tmp101,
	call	_ZNKSt17_Rb_tree_iteratorISt4pairIKSsSsEEptEv	#
	leaq	8(%rax), %rdx	#, D.161819
	movq	-88(%rbp), %rax	# this, tmp102
	addq	$16, %rax	#, D.161820
	movq	%rdx, %rsi	# D.161819,
	movq	%rax, %rdi	# D.161820,
	call	_ZNSt3mapISsS_ISs11LibraryGateSt4lessISsESaISt4pairIKSsS0_EEES2_SaIS3_IS4_S7_EEEixERS4_	#
	movq	%rax, %rdi	# D.161821,
	call	_ZNSt3mapISs11LibraryGateSt4lessISsESaISt4pairIKSsS0_EEE3endEv	#
	movq	%rax, -48(%rbp)	# tmp104, D.161802
	leaq	-80(%rbp), %rax	#, tmp105
	movq	%rax, %rdi	# tmp105,
	call	_ZNKSt17_Rb_tree_iteratorISt4pairIKSsSsEEptEv	#
	leaq	8(%rax), %rdx	#, D.161823
	movq	-88(%rbp), %rax	# this, tmp106
	addq	$16, %rax	#, D.161824
	movq	%rdx, %rsi	# D.161823,
	movq	%rax, %rdi	# D.161824,
	call	_ZNSt3mapISsS_ISs11LibraryGateSt4lessISsESaISt4pairIKSsS0_EEES2_SaIS3_IS4_S7_EEEixERS4_	#
	movq	-96(%rbp), %rdx	# gateName, tmp107
	movq	%rdx, %rsi	# tmp107,
	movq	%rax, %rdi	# D.161825,
	call	_ZNSt3mapISs11LibraryGateSt4lessISsESaISt4pairIKSsS0_EEE4findERS4_	#
.LEHE177:
	movq	%rax, -32(%rbp)	# tmp109, D.161801
	leaq	-48(%rbp), %rdx	#, tmp110
	leaq	-32(%rbp), %rax	#, tmp111
	movq	%rdx, %rsi	# tmp110,
	movq	%rax, %rdi	# tmp111,
	call	_ZNKSt17_Rb_tree_iteratorISt4pairIKSs11LibraryGateEEeqERKS4_	#
	testb	%al, %al	# retval.1996
	je	.L594	#,
	movq	%rbx, %r12	# <result>, D.161829
	leaq	-17(%rbp), %rax	#, tmp112
	movq	%rax, %rdi	# tmp112,
	call	_ZNSaIcEC1Ev	#
	leaq	-17(%rbp), %rax	#, tmp113
	movq	%rax, %rdx	# tmp113,
	movl	$.LC3, %esi	#,
	movq	%r12, %rdi	# D.161829,
.LEHB178:
	call	_ZNSsC1EPKcRKSaIcE	#
.LEHE178:
	jmp	.L601	#
.L598:
.L596:
	movl	%edx, %ebx	# tmp97, save_filt.2784
	movq	%rax, %r12	# tmp98, save_eptr.2783
	leaq	-17(%rbp), %rax	#, tmp114
	movq	%rax, %rdi	# tmp114,
	call	_ZNSaIcED1Ev	#
	movq	%r12, %rax	# save_eptr.2783, tmp98
	movslq	%ebx,%rdx	# save_filt.2784, tmp97
	movq	%rax, %rdi	# tmp98,
.LEHB179:
	call	_Unwind_Resume	#
.L601:
	leaq	-17(%rbp), %rax	#, tmp115
	movq	%rax, %rdi	# tmp115,
	call	_ZNSaIcED1Ev	#
	jmp	.L589	#
.L594:
	movq	%rbx, %r12	# <result>, D.161830
	leaq	-80(%rbp), %rax	#, tmp116
	movq	%rax, %rdi	# tmp116,
	call	_ZNKSt17_Rb_tree_iteratorISt4pairIKSsSsEEptEv	#
	leaq	8(%rax), %rdx	#, D.161832
	movq	-88(%rbp), %rax	# this, tmp117
	addq	$16, %rax	#, D.161833
	movq	%rdx, %rsi	# D.161832,
	movq	%rax, %rdi	# D.161833,
	call	_ZNSt3mapISsS_ISs11LibraryGateSt4lessISsESaISt4pairIKSsS0_EEES2_SaIS3_IS4_S7_EEEixERS4_	#
	movq	-96(%rbp), %rdx	# gateName, tmp118
	movq	%rdx, %rsi	# tmp118,
	movq	%rax, %rdi	# D.161834,
	call	_ZNSt3mapISs11LibraryGateSt4lessISsESaISt4pairIKSsS0_EEEixERS4_	#
	addq	$16, %rax	#, D.161836
	movq	%rax, %rsi	# D.161836,
	movq	%r12, %rdi	# D.161830,
	call	_ZNSsC1ERKSs	#
.LEHE179:
.L589:
	movq	%rbx, %rax	# <result>,
	movq	%rbx, %rax	# <result>,
	addq	$80, %rsp	#,
	popq	%rbx	#
	popq	%r12	#
	leave
	ret
	.cfi_endproc
.LFE11185:
	.size	_ZN12LibraryParse14getGateGUITypeESs, .-_ZN12LibraryParse14getGateGUITypeESs
	.section	.gcc_except_table
.LLSDA11185:
	.byte	0xff
	.byte	0xff
	.byte	0x1
	.uleb128 .LLSDACSE11185-.LLSDACSB11185
.LLSDACSB11185:
	.uleb128 .LEHB175-.LFB11185
	.uleb128 .LEHE175-.LEHB175
	.uleb128 0x0
	.uleb128 0x0
	.uleb128 .LEHB176-.LFB11185
	.uleb128 .LEHE176-.LEHB176
	.uleb128 .L599-.LFB11185
	.uleb128 0x0
	.uleb128 .LEHB177-.LFB11185
	.uleb128 .LEHE177-.LEHB177
	.uleb128 0x0
	.uleb128 0x0
	.uleb128 .LEHB178-.LFB11185
	.uleb128 .LEHE178-.LEHB178
	.uleb128 .L598-.LFB11185
	.uleb128 0x0
	.uleb128 .LEHB179-.LFB11185
	.uleb128 .LEHE179-.LEHB179
	.uleb128 0x0
	.uleb128 0x0
.LLSDACSE11185:
	.text
	.section	.text._ZNSt3mapISsS_ISs11LibraryGateSt4lessISsESaISt4pairIKSsS0_EEES2_SaIS3_IS4_S7_EEEC1Ev,"axG",@progbits,_ZNSt3mapISsS_ISs11LibraryGateSt4lessISsESaISt4pairIKSsS0_EEES2_SaIS3_IS4_S7_EEEC1Ev,comdat
	.align 2
	.weak	_ZNSt3mapISsS_ISs11LibraryGateSt4lessISsESaISt4pairIKSsS0_EEES2_SaIS3_IS4_S7_EEEC1Ev
	.type	_ZNSt3mapISsS_ISs11LibraryGateSt4lessISsESaISt4pairIKSsS0_EEES2_SaIS3_IS4_S7_EEEC1Ev, @function
_ZNSt3mapISsS_ISs11LibraryGateSt4lessISsESaISt4pairIKSsS0_EEES2_SaIS3_IS4_S7_EEEC1Ev:
.LFB11309:
	.cfi_startproc
	.cfi_personality 0x3,__gxx_personality_v0
	pushq	%rbp	#
	.cfi_def_cfa_offset 16
	movq	%rsp, %rbp	#,
	.cfi_offset 6, -16
	.cfi_def_cfa_register 6
	subq	$16, %rsp	#,
	movq	%rdi, -8(%rbp)	# this, this
	movq	-8(%rbp), %rax	# this, D.163797
	movq	%rax, %rdi	# D.163797,
	call	_ZNSt8_Rb_treeISsSt4pairIKSsSt3mapISs11LibraryGateSt4lessISsESaIS0_IS1_S3_EEEESt10_Select1stIS9_ES5_SaIS9_EEC1Ev	#
	leave
	ret
	.cfi_endproc
.LFE11309:
	.size	_ZNSt3mapISsS_ISs11LibraryGateSt4lessISsESaISt4pairIKSsS0_EEES2_SaIS3_IS4_S7_EEEC1Ev, .-_ZNSt3mapISsS_ISs11LibraryGateSt4lessISsESaISt4pairIKSsS0_EEES2_SaIS3_IS4_S7_EEEC1Ev
	.section	.text._ZNSt8_Rb_treeISsSt4pairIKSsSt3mapISs11LibraryGateSt4lessISsESaIS0_IS1_S3_EEEESt10_Select1stIS9_ES5_SaIS9_EE13_Rb_tree_implIS5_Lb0EED1Ev,"axG",@progbits,_ZNSt8_Rb_treeISsSt4pairIKSsSt3mapISs11LibraryGateSt4lessISsESaIS0_IS1_S3_EEEESt10_Select1stIS9_ES5_SaIS9_EE13_Rb_tree_implIS5_Lb0EED1Ev,comdat
	.align 2
	.weak	_ZNSt8_Rb_treeISsSt4pairIKSsSt3mapISs11LibraryGateSt4lessISsESaIS0_IS1_S3_EEEESt10_Select1stIS9_ES5_SaIS9_EE13_Rb_tree_implIS5_Lb0EED1Ev
	.type	_ZNSt8_Rb_treeISsSt4pairIKSsSt3mapISs11LibraryGateSt4lessISsESaIS0_IS1_S3_EEEESt10_Select1stIS9_ES5_SaIS9_EE13_Rb_tree_implIS5_Lb0EED1Ev, @function
_ZNSt8_Rb_treeISsSt4pairIKSsSt3mapISs11LibraryGateSt4lessISsESaIS0_IS1_S3_EEEESt10_Select1stIS9_ES5_SaIS9_EE13_Rb_tree_implIS5_Lb0EED1Ev:
.LFB11313:
	.cfi_startproc
	.cfi_personality 0x3,__gxx_personality_v0
	pushq	%rbp	#
	.cfi_def_cfa_offset 16
	movq	%rsp, %rbp	#,
	.cfi_offset 6, -16
	.cfi_def_cfa_register 6
	subq	$16, %rsp	#,
	movq	%rdi, -8(%rbp)	# this, this
	movq	-8(%rbp), %rax	# this, this.2032
	movq	%rax, %rdi	# this.2032,
	call	_ZNSaISt13_Rb_tree_nodeISt4pairIKSsSt3mapISs11LibraryGateSt4lessISsESaIS0_IS1_S3_EEEEEED2Ev	#
	leave
	ret
	.cfi_endproc
.LFE11313:
	.size	_ZNSt8_Rb_treeISsSt4pairIKSsSt3mapISs11LibraryGateSt4lessISsESaIS0_IS1_S3_EEEESt10_Select1stIS9_ES5_SaIS9_EE13_Rb_tree_implIS5_Lb0EED1Ev, .-_ZNSt8_Rb_treeISsSt4pairIKSsSt3mapISs11LibraryGateSt4lessISsESaIS0_IS1_S3_EEEESt10_Select1stIS9_ES5_SaIS9_EE13_Rb_tree_implIS5_Lb0EED1Ev
	.section	.text._ZNSt8_Rb_treeISsSt4pairIKSsSt3mapISs11LibraryGateSt4lessISsESaIS0_IS1_S3_EEEESt10_Select1stIS9_ES5_SaIS9_EED1Ev,"axG",@progbits,_ZNSt8_Rb_treeISsSt4pairIKSsSt3mapISs11LibraryGateSt4lessISsESaIS0_IS1_S3_EEEESt10_Select1stIS9_ES5_SaIS9_EED1Ev,comdat
	.align 2
	.weak	_ZNSt8_Rb_treeISsSt4pairIKSsSt3mapISs11LibraryGateSt4lessISsESaIS0_IS1_S3_EEEESt10_Select1stIS9_ES5_SaIS9_EED1Ev
	.type	_ZNSt8_Rb_treeISsSt4pairIKSsSt3mapISs11LibraryGateSt4lessISsESaIS0_IS1_S3_EEEESt10_Select1stIS9_ES5_SaIS9_EED1Ev, @function
_ZNSt8_Rb_treeISsSt4pairIKSsSt3mapISs11LibraryGateSt4lessISsESaIS0_IS1_S3_EEEESt10_Select1stIS9_ES5_SaIS9_EED1Ev:
.LFB11315:
	.cfi_startproc
	.cfi_personality 0x3,__gxx_personality_v0
	.cfi_lsda 0x3,.LLSDA11315
	pushq	%rbp	#
	.cfi_def_cfa_offset 16
	movq	%rsp, %rbp	#,
	.cfi_offset 6, -16
	.cfi_def_cfa_register 6
	pushq	%r12	#
	pushq	%rbx	#
	subq	$16, %rsp	#,
	movq	%rdi, -24(%rbp)	# this, this
	movq	-24(%rbp), %rax	# this, tmp63
	movq	%rax, %rdi	# tmp63,
	.cfi_offset 3, -32
	.cfi_offset 12, -24
	call	_ZNSt8_Rb_treeISsSt4pairIKSsSt3mapISs11LibraryGateSt4lessISsESaIS0_IS1_S3_EEEESt10_Select1stIS9_ES5_SaIS9_EE8_M_beginEv	#
	movq	%rax, %rdx	#, D.163831
	movq	-24(%rbp), %rax	# this, tmp64
	movq	%rdx, %rsi	# D.163831,
	movq	%rax, %rdi	# tmp64,
.LEHB180:
	call	_ZNSt8_Rb_treeISsSt4pairIKSsSt3mapISs11LibraryGateSt4lessISsESaIS0_IS1_S3_EEEESt10_Select1stIS9_ES5_SaIS9_EE8_M_eraseEPSt13_Rb_tree_nodeIS9_E	#
.LEHE180:
	jmp	.L613	#
.L612:
.L609:
	movl	%edx, %ebx	# tmp65, save_filt.3144
	movq	%rax, %r12	# tmp66, save_eptr.3143
	movq	-24(%rbp), %rax	# this, temp.3268
	movq	%rax, %rdi	# temp.3268,
	call	_ZNSt8_Rb_treeISsSt4pairIKSsSt3mapISs11LibraryGateSt4lessISsESaIS0_IS1_S3_EEEESt10_Select1stIS9_ES5_SaIS9_EE13_Rb_tree_implIS5_Lb0EED1Ev	#
	movq	%r12, %rax	# save_eptr.3143, tmp66
	movslq	%ebx,%rdx	# save_filt.3144, tmp65
	movq	%rax, %rdi	# tmp66,
.LEHB181:
	call	_Unwind_Resume	#
.LEHE181:
.L613:
	movq	-24(%rbp), %rax	# this, D.163832
	movq	%rax, %rdi	# D.163832,
	call	_ZNSt8_Rb_treeISsSt4pairIKSsSt3mapISs11LibraryGateSt4lessISsESaIS0_IS1_S3_EEEESt10_Select1stIS9_ES5_SaIS9_EE13_Rb_tree_implIS5_Lb0EED1Ev	#
	addq	$16, %rsp	#,
	popq	%rbx	#
	popq	%r12	#
	leave
	ret
	.cfi_endproc
.LFE11315:
	.size	_ZNSt8_Rb_treeISsSt4pairIKSsSt3mapISs11LibraryGateSt4lessISsESaIS0_IS1_S3_EEEESt10_Select1stIS9_ES5_SaIS9_EED1Ev, .-_ZNSt8_Rb_treeISsSt4pairIKSsSt3mapISs11LibraryGateSt4lessISsESaIS0_IS1_S3_EEEESt10_Select1stIS9_ES5_SaIS9_EED1Ev
	.section	.gcc_except_table
.LLSDA11315:
	.byte	0xff
	.byte	0xff
	.byte	0x1
	.uleb128 .LLSDACSE11315-.LLSDACSB11315
.LLSDACSB11315:
	.uleb128 .LEHB180-.LFB11315
	.uleb128 .LEHE180-.LEHB180
	.uleb128 .L612-.LFB11315
	.uleb128 0x0
	.uleb128 .LEHB181-.LFB11315
	.uleb128 .LEHE181-.LEHB181
	.uleb128 0x0
	.uleb128 0x0
.LLSDACSE11315:
	.section	.text._ZNSt8_Rb_treeISsSt4pairIKSsSt3mapISs11LibraryGateSt4lessISsESaIS0_IS1_S3_EEEESt10_Select1stIS9_ES5_SaIS9_EED1Ev,"axG",@progbits,_ZNSt8_Rb_treeISsSt4pairIKSsSt3mapISs11LibraryGateSt4lessISsESaIS0_IS1_S3_EEEESt10_Select1stIS9_ES5_SaIS9_EED1Ev,comdat
	.section	.text._ZSteqIcSt11char_traitsIcESaIcEEbRKSbIT_T0_T1_EPKS3_,"axG",@progbits,_ZSteqIcSt11char_traitsIcESaIcEEbRKSbIT_T0_T1_EPKS3_,comdat
	.weak	_ZSteqIcSt11char_traitsIcESaIcEEbRKSbIT_T0_T1_EPKS3_
	.type	_ZSteqIcSt11char_traitsIcESaIcEEbRKSbIT_T0_T1_EPKS3_, @function
_ZSteqIcSt11char_traitsIcESaIcEEbRKSbIT_T0_T1_EPKS3_:
.LFB11324:
	.cfi_startproc
	.cfi_personality 0x3,__gxx_personality_v0
	pushq	%rbp	#
	.cfi_def_cfa_offset 16
	movq	%rsp, %rbp	#,
	.cfi_offset 6, -16
	.cfi_def_cfa_register 6
	subq	$16, %rsp	#,
	movq	%rdi, -8(%rbp)	# __lhs, __lhs
	movq	%rsi, -16(%rbp)	# __rhs, __rhs
	movq	-16(%rbp), %rdx	# __rhs, tmp61
	movq	-8(%rbp), %rax	# __lhs, tmp62
	movq	%rdx, %rsi	# tmp61,
	movq	%rax, %rdi	# tmp62,
	call	_ZNKSs7compareEPKc	#
	testl	%eax, %eax	# D.164234
	sete	%al	#, D.164233
	leave
	ret
	.cfi_endproc
.LFE11324:
	.size	_ZSteqIcSt11char_traitsIcESaIcEEbRKSbIT_T0_T1_EPKS3_, .-_ZSteqIcSt11char_traitsIcESaIcEEbRKSbIT_T0_T1_EPKS3_
	.section	.text._ZNSt6vectorI6lgLineSaIS0_EE9push_backERKS0_,"axG",@progbits,_ZNSt6vectorI6lgLineSaIS0_EE9push_backERKS0_,comdat
	.align 2
	.weak	_ZNSt6vectorI6lgLineSaIS0_EE9push_backERKS0_
	.type	_ZNSt6vectorI6lgLineSaIS0_EE9push_backERKS0_, @function
_ZNSt6vectorI6lgLineSaIS0_EE9push_backERKS0_:
.LFB11333:
	.cfi_startproc
	.cfi_personality 0x3,__gxx_personality_v0
	pushq	%rbp	#
	.cfi_def_cfa_offset 16
	movq	%rsp, %rbp	#,
	.cfi_offset 6, -16
	.cfi_def_cfa_register 6
	subq	$16, %rsp	#,
	movq	%rdi, -8(%rbp)	# this, this
	movq	%rsi, -16(%rbp)	# __x, __x
	movq	-8(%rbp), %rax	# this, tmp66
	movq	8(%rax), %rdx	# <variable>.D.35198._M_impl._M_finish, D.164681
	movq	-8(%rbp), %rax	# this, tmp67
	movq	16(%rax), %rax	# <variable>.D.35198._M_impl._M_end_of_storage, D.164682
	cmpq	%rax, %rdx	# D.164682, D.164681
	je	.L617	#,
	movq	-8(%rbp), %rax	# this, tmp68
	movq	8(%rax), %rcx	# <variable>.D.35198._M_impl._M_finish, D.164685
	movq	-8(%rbp), %rax	# this, D.164686
	movq	-16(%rbp), %rdx	# __x, tmp69
	movq	%rcx, %rsi	# D.164685,
	movq	%rax, %rdi	# D.164687,
	call	_ZN9__gnu_cxx13new_allocatorI6lgLineE9constructEPS1_RKS1_	#
	movq	-8(%rbp), %rax	# this, tmp70
	movq	8(%rax), %rax	# <variable>.D.35198._M_impl._M_finish, D.164688
	leaq	16(%rax), %rdx	#, D.164689
	movq	-8(%rbp), %rax	# this, tmp71
	movq	%rdx, 8(%rax)	# D.164689, <variable>.D.35198._M_impl._M_finish
	jmp	.L619	#
.L617:
	movq	-8(%rbp), %rax	# this, tmp72
	movq	%rax, %rdi	# tmp72,
	call	_ZNSt6vectorI6lgLineSaIS0_EE3endEv	#
	movq	%rax, %rcx	#, D.164680
	movq	-16(%rbp), %rdx	# __x, tmp73
	movq	-8(%rbp), %rax	# this, tmp74
	movq	%rcx, %rsi	# D.164680,
	movq	%rax, %rdi	# tmp74,
	call	_ZNSt6vectorI6lgLineSaIS0_EE13_M_insert_auxEN9__gnu_cxx17__normal_iteratorIPS0_S2_EERKS0_	#
.L619:
	leave
	ret
	.cfi_endproc
.LFE11333:
	.size	_ZNSt6vectorI6lgLineSaIS0_EE9push_backERKS0_, .-_ZNSt6vectorI6lgLineSaIS0_EE9push_backERKS0_
	.section	.text._ZStneIcSt11char_traitsIcESaIcEEbPKT_RKSbIS3_T0_T1_E,"axG",@progbits,_ZStneIcSt11char_traitsIcESaIcEEbPKT_RKSbIS3_T0_T1_E,comdat
	.weak	_ZStneIcSt11char_traitsIcESaIcEEbPKT_RKSbIS3_T0_T1_E
	.type	_ZStneIcSt11char_traitsIcESaIcEEbPKT_RKSbIS3_T0_T1_E, @function
_ZStneIcSt11char_traitsIcESaIcEEbPKT_RKSbIS3_T0_T1_E:
.LFB11336:
	.cfi_startproc
	.cfi_personality 0x3,__gxx_personality_v0
	pushq	%rbp	#
	.cfi_def_cfa_offset 16
	movq	%rsp, %rbp	#,
	.cfi_offset 6, -16
	.cfi_def_cfa_register 6
	subq	$16, %rsp	#,
	movq	%rdi, -8(%rbp)	# __lhs, __lhs
	movq	%rsi, -16(%rbp)	# __rhs, __rhs
	movq	-16(%rbp), %rdx	# __rhs, tmp61
	movq	-8(%rbp), %rax	# __lhs, tmp62
	movq	%rdx, %rsi	# tmp61,
	movq	%rax, %rdi	# tmp62,
	call	_ZSteqIcSt11char_traitsIcESaIcEEbPKT_RKSbIS3_T0_T1_E	#
	xorl	$1, %eax	#, D.164707
	leave
	ret
	.cfi_endproc
.LFE11336:
	.size	_ZStneIcSt11char_traitsIcESaIcEEbPKT_RKSbIS3_T0_T1_E, .-_ZStneIcSt11char_traitsIcESaIcEEbPKT_RKSbIS3_T0_T1_E
	.section	.text._ZNSt6vectorI9lgHotspotSaIS0_EEC1Ev,"axG",@progbits,_ZNSt6vectorI9lgHotspotSaIS0_EEC1Ev,comdat
	.align 2
	.weak	_ZNSt6vectorI9lgHotspotSaIS0_EEC1Ev
	.type	_ZNSt6vectorI9lgHotspotSaIS0_EEC1Ev, @function
_ZNSt6vectorI9lgHotspotSaIS0_EEC1Ev:
.LFB11339:
	.cfi_startproc
	.cfi_personality 0x3,__gxx_personality_v0
	pushq	%rbp	#
	.cfi_def_cfa_offset 16
	movq	%rsp, %rbp	#,
	.cfi_offset 6, -16
	.cfi_def_cfa_register 6
	subq	$16, %rsp	#,
	movq	%rdi, -8(%rbp)	# this, this
	movq	-8(%rbp), %rax	# this, D.164735
	movq	%rax, %rdi	# D.164735,
	call	_ZNSt12_Vector_baseI9lgHotspotSaIS0_EEC2Ev	#
	leave
	ret
	.cfi_endproc
.LFE11339:
	.size	_ZNSt6vectorI9lgHotspotSaIS0_EEC1Ev, .-_ZNSt6vectorI9lgHotspotSaIS0_EEC1Ev
	.section	.text._ZNSt6vectorI9lgHotspotSaIS0_EED1Ev,"axG",@progbits,_ZNSt6vectorI9lgHotspotSaIS0_EED1Ev,comdat
	.align 2
	.weak	_ZNSt6vectorI9lgHotspotSaIS0_EED1Ev
	.type	_ZNSt6vectorI9lgHotspotSaIS0_EED1Ev, @function
_ZNSt6vectorI9lgHotspotSaIS0_EED1Ev:
.LFB11342:
	.cfi_startproc
	.cfi_personality 0x3,__gxx_personality_v0
	.cfi_lsda 0x3,.LLSDA11342
	pushq	%rbp	#
	.cfi_def_cfa_offset 16
	movq	%rsp, %rbp	#,
	.cfi_offset 6, -16
	.cfi_def_cfa_register 6
	pushq	%r12	#
	pushq	%rbx	#
	subq	$16, %rsp	#,
	movq	%rdi, -24(%rbp)	# this, this
	movq	-24(%rbp), %rax	# this, D.164763
	movq	%rax, %rdi	# D.164763,
	.cfi_offset 3, -32
	.cfi_offset 12, -24
	call	_ZNSt12_Vector_baseI9lgHotspotSaIS0_EE19_M_get_Tp_allocatorEv	#
	movq	%rax, %rdx	#, D.164764
	movq	-24(%rbp), %rax	# this, tmp66
	movq	8(%rax), %rcx	# <variable>.D.34661._M_impl._M_finish, D.164765
	movq	-24(%rbp), %rax	# this, tmp67
	movq	(%rax), %rax	# <variable>.D.34661._M_impl._M_start, D.164766
	movq	%rcx, %rsi	# D.164765,
	movq	%rax, %rdi	# D.164766,
.LEHB182:
	call	_ZSt8_DestroyIP9lgHotspotS0_EvT_S2_RSaIT0_E	#
.LEHE182:
	jmp	.L630	#
.L629:
.L626:
	movl	%edx, %ebx	# tmp68, save_filt.2888
	movq	%rax, %r12	# tmp69, save_eptr.2887
	movq	-24(%rbp), %rax	# this, this.3269
	movq	%rax, %rdi	# this.3269,
	call	_ZNSt12_Vector_baseI9lgHotspotSaIS0_EED2Ev	#
	movq	%r12, %rax	# save_eptr.2887, tmp69
	movslq	%ebx,%rdx	# save_filt.2888, tmp68
	movq	%rax, %rdi	# tmp69,
.LEHB183:
	call	_Unwind_Resume	#
.L630:
	movq	-24(%rbp), %rax	# this, this.2072
	movq	%rax, %rdi	# this.2072,
	call	_ZNSt12_Vector_baseI9lgHotspotSaIS0_EED2Ev	#
.LEHE183:
	addq	$16, %rsp	#,
	popq	%rbx	#
	popq	%r12	#
	leave
	ret
	.cfi_endproc
.LFE11342:
	.size	_ZNSt6vectorI9lgHotspotSaIS0_EED1Ev, .-_ZNSt6vectorI9lgHotspotSaIS0_EED1Ev
	.section	.gcc_except_table
.LLSDA11342:
	.byte	0xff
	.byte	0xff
	.byte	0x1
	.uleb128 .LLSDACSE11342-.LLSDACSB11342
.LLSDACSB11342:
	.uleb128 .LEHB182-.LFB11342
	.uleb128 .LEHE182-.LEHB182
	.uleb128 .L629-.LFB11342
	.uleb128 0x0
	.uleb128 .LEHB183-.LFB11342
	.uleb128 .LEHE183-.LEHB183
	.uleb128 0x0
	.uleb128 0x0
.LLSDACSE11342:
	.section	.text._ZNSt6vectorI9lgHotspotSaIS0_EED1Ev,"axG",@progbits,_ZNSt6vectorI9lgHotspotSaIS0_EED1Ev,comdat
	.section	.text._ZNSt6vectorI6lgLineSaIS0_EEC1Ev,"axG",@progbits,_ZNSt6vectorI6lgLineSaIS0_EEC1Ev,comdat
	.align 2
	.weak	_ZNSt6vectorI6lgLineSaIS0_EEC1Ev
	.type	_ZNSt6vectorI6lgLineSaIS0_EEC1Ev, @function
_ZNSt6vectorI6lgLineSaIS0_EEC1Ev:
.LFB11345:
	.cfi_startproc
	.cfi_personality 0x3,__gxx_personality_v0
	pushq	%rbp	#
	.cfi_def_cfa_offset 16
	movq	%rsp, %rbp	#,
	.cfi_offset 6, -16
	.cfi_def_cfa_register 6
	subq	$16, %rsp	#,
	movq	%rdi, -8(%rbp)	# this, this
	movq	-8(%rbp), %rax	# this, D.164795
	movq	%rax, %rdi	# D.164795,
	call	_ZNSt12_Vector_baseI6lgLineSaIS0_EEC2Ev	#
	leave
	ret
	.cfi_endproc
.LFE11345:
	.size	_ZNSt6vectorI6lgLineSaIS0_EEC1Ev, .-_ZNSt6vectorI6lgLineSaIS0_EEC1Ev
	.section	.text._ZNSt6vectorI6lgLineSaIS0_EED1Ev,"axG",@progbits,_ZNSt6vectorI6lgLineSaIS0_EED1Ev,comdat
	.align 2
	.weak	_ZNSt6vectorI6lgLineSaIS0_EED1Ev
	.type	_ZNSt6vectorI6lgLineSaIS0_EED1Ev, @function
_ZNSt6vectorI6lgLineSaIS0_EED1Ev:
.LFB11348:
	.cfi_startproc
	.cfi_personality 0x3,__gxx_personality_v0
	.cfi_lsda 0x3,.LLSDA11348
	pushq	%rbp	#
	.cfi_def_cfa_offset 16
	movq	%rsp, %rbp	#,
	.cfi_offset 6, -16
	.cfi_def_cfa_register 6
	pushq	%r12	#
	pushq	%rbx	#
	subq	$16, %rsp	#,
	movq	%rdi, -24(%rbp)	# this, this
	movq	-24(%rbp), %rax	# this, D.164823
	movq	%rax, %rdi	# D.164823,
	.cfi_offset 3, -32
	.cfi_offset 12, -24
	call	_ZNSt12_Vector_baseI6lgLineSaIS0_EE19_M_get_Tp_allocatorEv	#
	movq	%rax, %rdx	#, D.164824
	movq	-24(%rbp), %rax	# this, tmp66
	movq	8(%rax), %rcx	# <variable>.D.35198._M_impl._M_finish, D.164825
	movq	-24(%rbp), %rax	# this, tmp67
	movq	(%rax), %rax	# <variable>.D.35198._M_impl._M_start, D.164826
	movq	%rcx, %rsi	# D.164825,
	movq	%rax, %rdi	# D.164826,
.LEHB184:
	call	_ZSt8_DestroyIP6lgLineS0_EvT_S2_RSaIT0_E	#
.LEHE184:
	jmp	.L639	#
.L638:
.L635:
	movl	%edx, %ebx	# tmp68, save_filt.2886
	movq	%rax, %r12	# tmp69, save_eptr.2885
	movq	-24(%rbp), %rax	# this, this.3270
	movq	%rax, %rdi	# this.3270,
	call	_ZNSt12_Vector_baseI6lgLineSaIS0_EED2Ev	#
	movq	%r12, %rax	# save_eptr.2885, tmp69
	movslq	%ebx,%rdx	# save_filt.2886, tmp68
	movq	%rax, %rdi	# tmp69,
.LEHB185:
	call	_Unwind_Resume	#
.L639:
	movq	-24(%rbp), %rax	# this, this.2074
	movq	%rax, %rdi	# this.2074,
	call	_ZNSt12_Vector_baseI6lgLineSaIS0_EED2Ev	#
.LEHE185:
	addq	$16, %rsp	#,
	popq	%rbx	#
	popq	%r12	#
	leave
	ret
	.cfi_endproc
.LFE11348:
	.size	_ZNSt6vectorI6lgLineSaIS0_EED1Ev, .-_ZNSt6vectorI6lgLineSaIS0_EED1Ev
	.section	.gcc_except_table
.LLSDA11348:
	.byte	0xff
	.byte	0xff
	.byte	0x1
	.uleb128 .LLSDACSE11348-.LLSDACSB11348
.LLSDACSB11348:
	.uleb128 .LEHB184-.LFB11348
	.uleb128 .LEHE184-.LEHB184
	.uleb128 .L638-.LFB11348
	.uleb128 0x0
	.uleb128 .LEHB185-.LFB11348
	.uleb128 .LEHE185-.LEHB185
	.uleb128 0x0
	.uleb128 0x0
.LLSDACSE11348:
	.section	.text._ZNSt6vectorI6lgLineSaIS0_EED1Ev,"axG",@progbits,_ZNSt6vectorI6lgLineSaIS0_EED1Ev,comdat
	.section	.text._ZNSt6vectorI10lgDlgParamSaIS0_EEC1Ev,"axG",@progbits,_ZNSt6vectorI10lgDlgParamSaIS0_EEC1Ev,comdat
	.align 2
	.weak	_ZNSt6vectorI10lgDlgParamSaIS0_EEC1Ev
	.type	_ZNSt6vectorI10lgDlgParamSaIS0_EEC1Ev, @function
_ZNSt6vectorI10lgDlgParamSaIS0_EEC1Ev:
.LFB11351:
	.cfi_startproc
	.cfi_personality 0x3,__gxx_personality_v0
	pushq	%rbp	#
	.cfi_def_cfa_offset 16
	movq	%rsp, %rbp	#,
	.cfi_offset 6, -16
	.cfi_def_cfa_register 6
	subq	$16, %rsp	#,
	movq	%rdi, -8(%rbp)	# this, this
	movq	-8(%rbp), %rax	# this, D.164855
	movq	%rax, %rdi	# D.164855,
	call	_ZNSt12_Vector_baseI10lgDlgParamSaIS0_EEC2Ev	#
	leave
	ret
	.cfi_endproc
.LFE11351:
	.size	_ZNSt6vectorI10lgDlgParamSaIS0_EEC1Ev, .-_ZNSt6vectorI10lgDlgParamSaIS0_EEC1Ev
	.section	.text._ZNSt6vectorI10lgDlgParamSaIS0_EED1Ev,"axG",@progbits,_ZNSt6vectorI10lgDlgParamSaIS0_EED1Ev,comdat
	.align 2
	.weak	_ZNSt6vectorI10lgDlgParamSaIS0_EED1Ev
	.type	_ZNSt6vectorI10lgDlgParamSaIS0_EED1Ev, @function
_ZNSt6vectorI10lgDlgParamSaIS0_EED1Ev:
.LFB11354:
	.cfi_startproc
	.cfi_personality 0x3,__gxx_personality_v0
	.cfi_lsda 0x3,.LLSDA11354
	pushq	%rbp	#
	.cfi_def_cfa_offset 16
	movq	%rsp, %rbp	#,
	.cfi_offset 6, -16
	.cfi_def_cfa_register 6
	pushq	%r12	#
	pushq	%rbx	#
	subq	$16, %rsp	#,
	movq	%rdi, -24(%rbp)	# this, this
	movq	-24(%rbp), %rax	# this, D.164883
	movq	%rax, %rdi	# D.164883,
	.cfi_offset 3, -32
	.cfi_offset 12, -24
	call	_ZNSt12_Vector_baseI10lgDlgParamSaIS0_EE19_M_get_Tp_allocatorEv	#
	movq	%rax, %rdx	#, D.164884
	movq	-24(%rbp), %rax	# this, tmp66
	movq	8(%rax), %rcx	# <variable>.D.35735._M_impl._M_finish, D.164885
	movq	-24(%rbp), %rax	# this, tmp67
	movq	(%rax), %rax	# <variable>.D.35735._M_impl._M_start, D.164886
	movq	%rcx, %rsi	# D.164885,
	movq	%rax, %rdi	# D.164886,
.LEHB186:
	call	_ZSt8_DestroyIP10lgDlgParamS0_EvT_S2_RSaIT0_E	#
.LEHE186:
	jmp	.L648	#
.L647:
.L644:
	movl	%edx, %ebx	# tmp68, save_filt.2884
	movq	%rax, %r12	# tmp69, save_eptr.2883
	movq	-24(%rbp), %rax	# this, this.3271
	movq	%rax, %rdi	# this.3271,
	call	_ZNSt12_Vector_baseI10lgDlgParamSaIS0_EED2Ev	#
	movq	%r12, %rax	# save_eptr.2883, tmp69
	movslq	%ebx,%rdx	# save_filt.2884, tmp68
	movq	%rax, %rdi	# tmp69,
.LEHB187:
	call	_Unwind_Resume	#
.L648:
	movq	-24(%rbp), %rax	# this, this.2076
	movq	%rax, %rdi	# this.2076,
	call	_ZNSt12_Vector_baseI10lgDlgParamSaIS0_EED2Ev	#
.LEHE187:
	addq	$16, %rsp	#,
	popq	%rbx	#
	popq	%r12	#
	leave
	ret
	.cfi_endproc
.LFE11354:
	.size	_ZNSt6vectorI10lgDlgParamSaIS0_EED1Ev, .-_ZNSt6vectorI10lgDlgParamSaIS0_EED1Ev
	.section	.gcc_except_table
.LLSDA11354:
	.byte	0xff
	.byte	0xff
	.byte	0x1
	.uleb128 .LLSDACSE11354-.LLSDACSB11354
.LLSDACSB11354:
	.uleb128 .LEHB186-.LFB11354
	.uleb128 .LEHE186-.LEHB186
	.uleb128 .L647-.LFB11354
	.uleb128 0x0
	.uleb128 .LEHB187-.LFB11354
	.uleb128 .LEHE187-.LEHB187
	.uleb128 0x0
	.uleb128 0x0
.LLSDACSE11354:
	.section	.text._ZNSt6vectorI10lgDlgParamSaIS0_EED1Ev,"axG",@progbits,_ZNSt6vectorI10lgDlgParamSaIS0_EED1Ev,comdat
	.section	.text._ZNSt3mapISsSsSt4lessISsESaISt4pairIKSsSsEEEC1Ev,"axG",@progbits,_ZNSt3mapISsSsSt4lessISsESaISt4pairIKSsSsEEEC1Ev,comdat
	.align 2
	.weak	_ZNSt3mapISsSsSt4lessISsESaISt4pairIKSsSsEEEC1Ev
	.type	_ZNSt3mapISsSsSt4lessISsESaISt4pairIKSsSsEEEC1Ev, @function
_ZNSt3mapISsSsSt4lessISsESaISt4pairIKSsSsEEEC1Ev:
.LFB11357:
	.cfi_startproc
	.cfi_personality 0x3,__gxx_personality_v0
	pushq	%rbp	#
	.cfi_def_cfa_offset 16
	movq	%rsp, %rbp	#,
	.cfi_offset 6, -16
	.cfi_def_cfa_register 6
	subq	$16, %rsp	#,
	movq	%rdi, -8(%rbp)	# this, this
	movq	-8(%rbp), %rax	# this, D.164898
	movq	%rax, %rdi	# D.164898,
	call	_ZNSt8_Rb_treeISsSt4pairIKSsSsESt10_Select1stIS2_ESt4lessISsESaIS2_EEC1Ev	#
	leave
	ret
	.cfi_endproc
.LFE11357:
	.size	_ZNSt3mapISsSsSt4lessISsESaISt4pairIKSsSsEEEC1Ev, .-_ZNSt3mapISsSsSt4lessISsESaISt4pairIKSsSsEEEC1Ev
	.section	.text._ZNSt8_Rb_treeISsSt4pairIKSsSsESt10_Select1stIS2_ESt4lessISsESaIS2_EE13_Rb_tree_implIS6_Lb0EED1Ev,"axG",@progbits,_ZNSt8_Rb_treeISsSt4pairIKSsSsESt10_Select1stIS2_ESt4lessISsESaIS2_EE13_Rb_tree_implIS6_Lb0EED1Ev,comdat
	.align 2
	.weak	_ZNSt8_Rb_treeISsSt4pairIKSsSsESt10_Select1stIS2_ESt4lessISsESaIS2_EE13_Rb_tree_implIS6_Lb0EED1Ev
	.type	_ZNSt8_Rb_treeISsSt4pairIKSsSsESt10_Select1stIS2_ESt4lessISsESaIS2_EE13_Rb_tree_implIS6_Lb0EED1Ev, @function
_ZNSt8_Rb_treeISsSt4pairIKSsSsESt10_Select1stIS2_ESt4lessISsESaIS2_EE13_Rb_tree_implIS6_Lb0EED1Ev:
.LFB11361:
	.cfi_startproc
	.cfi_personality 0x3,__gxx_personality_v0
	pushq	%rbp	#
	.cfi_def_cfa_offset 16
	movq	%rsp, %rbp	#,
	.cfi_offset 6, -16
	.cfi_def_cfa_register 6
	subq	$16, %rsp	#,
	movq	%rdi, -8(%rbp)	# this, this
	movq	-8(%rbp), %rax	# this, this.2077
	movq	%rax, %rdi	# this.2077,
	call	_ZNSaISt13_Rb_tree_nodeISt4pairIKSsSsEEED2Ev	#
	leave
	ret
	.cfi_endproc
.LFE11361:
	.size	_ZNSt8_Rb_treeISsSt4pairIKSsSsESt10_Select1stIS2_ESt4lessISsESaIS2_EE13_Rb_tree_implIS6_Lb0EED1Ev, .-_ZNSt8_Rb_treeISsSt4pairIKSsSsESt10_Select1stIS2_ESt4lessISsESaIS2_EE13_Rb_tree_implIS6_Lb0EED1Ev
	.section	.text._ZNSt8_Rb_treeISsSt4pairIKSsSsESt10_Select1stIS2_ESt4lessISsESaIS2_EED1Ev,"axG",@progbits,_ZNSt8_Rb_treeISsSt4pairIKSsSsESt10_Select1stIS2_ESt4lessISsESaIS2_EED1Ev,comdat
	.align 2
	.weak	_ZNSt8_Rb_treeISsSt4pairIKSsSsESt10_Select1stIS2_ESt4lessISsESaIS2_EED1Ev
	.type	_ZNSt8_Rb_treeISsSt4pairIKSsSsESt10_Select1stIS2_ESt4lessISsESaIS2_EED1Ev, @function
_ZNSt8_Rb_treeISsSt4pairIKSsSsESt10_Select1stIS2_ESt4lessISsESaIS2_EED1Ev:
.LFB11363:
	.cfi_startproc
	.cfi_personality 0x3,__gxx_personality_v0
	.cfi_lsda 0x3,.LLSDA11363
	pushq	%rbp	#
	.cfi_def_cfa_offset 16
	movq	%rsp, %rbp	#,
	.cfi_offset 6, -16
	.cfi_def_cfa_register 6
	pushq	%r12	#
	pushq	%rbx	#
	subq	$16, %rsp	#,
	movq	%rdi, -24(%rbp)	# this, this
	movq	-24(%rbp), %rax	# this, tmp63
	movq	%rax, %rdi	# tmp63,
	.cfi_offset 3, -32
	.cfi_offset 12, -24
	call	_ZNSt8_Rb_treeISsSt4pairIKSsSsESt10_Select1stIS2_ESt4lessISsESaIS2_EE8_M_beginEv	#
	movq	%rax, %rdx	#, D.164932
	movq	-24(%rbp), %rax	# this, tmp64
	movq	%rdx, %rsi	# D.164932,
	movq	%rax, %rdi	# tmp64,
.LEHB188:
	call	_ZNSt8_Rb_treeISsSt4pairIKSsSsESt10_Select1stIS2_ESt4lessISsESaIS2_EE8_M_eraseEPSt13_Rb_tree_nodeIS2_E	#
.LEHE188:
	jmp	.L660	#
.L659:
.L656:
	movl	%edx, %ebx	# tmp65, save_filt.2882
	movq	%rax, %r12	# tmp66, save_eptr.2881
	movq	-24(%rbp), %rax	# this, temp.3272
	movq	%rax, %rdi	# temp.3272,
	call	_ZNSt8_Rb_treeISsSt4pairIKSsSsESt10_Select1stIS2_ESt4lessISsESaIS2_EE13_Rb_tree_implIS6_Lb0EED1Ev	#
	movq	%r12, %rax	# save_eptr.2881, tmp66
	movslq	%ebx,%rdx	# save_filt.2882, tmp65
	movq	%rax, %rdi	# tmp66,
.LEHB189:
	call	_Unwind_Resume	#
.LEHE189:
.L660:
	movq	-24(%rbp), %rax	# this, D.164933
	movq	%rax, %rdi	# D.164933,
	call	_ZNSt8_Rb_treeISsSt4pairIKSsSsESt10_Select1stIS2_ESt4lessISsESaIS2_EE13_Rb_tree_implIS6_Lb0EED1Ev	#
	addq	$16, %rsp	#,
	popq	%rbx	#
	popq	%r12	#
	leave
	ret
	.cfi_endproc
.LFE11363:
	.size	_ZNSt8_Rb_treeISsSt4pairIKSsSsESt10_Select1stIS2_ESt4lessISsESaIS2_EED1Ev, .-_ZNSt8_Rb_treeISsSt4pairIKSsSsESt10_Select1stIS2_ESt4lessISsESaIS2_EED1Ev
	.section	.gcc_except_table
.LLSDA11363:
	.byte	0xff
	.byte	0xff
	.byte	0x1
	.uleb128 .LLSDACSE11363-.LLSDACSB11363
.LLSDACSB11363:
	.uleb128 .LEHB188-.LFB11363
	.uleb128 .LEHE188-.LEHB188
	.uleb128 .L659-.LFB11363
	.uleb128 0x0
	.uleb128 .LEHB189-.LFB11363
	.uleb128 .LEHE189-.LEHB189
	.uleb128 0x0
	.uleb128 0x0
.LLSDACSE11363:
	.section	.text._ZNSt8_Rb_treeISsSt4pairIKSsSsESt10_Select1stIS2_ESt4lessISsESaIS2_EED1Ev,"axG",@progbits,_ZNSt8_Rb_treeISsSt4pairIKSsSsESt10_Select1stIS2_ESt4lessISsESaIS2_EED1Ev,comdat
	.section	.text._ZNSt4pairIKSsSsED1Ev,"axG",@progbits,_ZNSt4pairIKSsSsED1Ev,comdat
	.align 2
	.weak	_ZNSt4pairIKSsSsED1Ev
	.type	_ZNSt4pairIKSsSsED1Ev, @function
_ZNSt4pairIKSsSsED1Ev:
.LFB11367:
	.cfi_startproc
	.cfi_personality 0x3,__gxx_personality_v0
	.cfi_lsda 0x3,.LLSDA11367
	pushq	%rbp	#
	.cfi_def_cfa_offset 16
	movq	%rsp, %rbp	#,
	.cfi_offset 6, -16
	.cfi_def_cfa_register 6
	pushq	%r12	#
	pushq	%rbx	#
	subq	$16, %rsp	#,
	movq	%rdi, -24(%rbp)	# this, this
	movq	-24(%rbp), %rax	# this, tmp63
	addq	$8, %rax	#, D.164973
	movq	%rax, %rdi	# D.164973,
.LEHB190:
	.cfi_offset 3, -32
	.cfi_offset 12, -24
	call	_ZNSsD1Ev	#
.LEHE190:
	jmp	.L667	#
.L666:
.L663:
	movl	%edx, %ebx	# tmp64, save_filt.2880
	movq	%rax, %r12	# tmp65, save_eptr.2879
	movq	-24(%rbp), %rax	# this, D.164974
	movq	%rax, %rdi	# D.164974,
	call	_ZNSsD1Ev	#
	movq	%r12, %rax	# save_eptr.2879, tmp65
	movslq	%ebx,%rdx	# save_filt.2880, tmp64
	movq	%rax, %rdi	# tmp65,
.LEHB191:
	call	_Unwind_Resume	#
.L667:
	movq	-24(%rbp), %rax	# this, temp.3273
	movq	%rax, %rdi	# temp.3273,
	call	_ZNSsD1Ev	#
.LEHE191:
	addq	$16, %rsp	#,
	popq	%rbx	#
	popq	%r12	#
	leave
	ret
	.cfi_endproc
.LFE11367:
	.size	_ZNSt4pairIKSsSsED1Ev, .-_ZNSt4pairIKSsSsED1Ev
	.section	.gcc_except_table
.LLSDA11367:
	.byte	0xff
	.byte	0xff
	.byte	0x1
	.uleb128 .LLSDACSE11367-.LLSDACSB11367
.LLSDACSB11367:
	.uleb128 .LEHB190-.LFB11367
	.uleb128 .LEHE190-.LEHB190
	.uleb128 .L666-.LFB11367
	.uleb128 0x0
	.uleb128 .LEHB191-.LFB11367
	.uleb128 .LEHE191-.LEHB191
	.uleb128 0x0
	.uleb128 0x0
.LLSDACSE11367:
	.section	.text._ZNSt4pairIKSsSsED1Ev,"axG",@progbits,_ZNSt4pairIKSsSsED1Ev,comdat
	.section	.text._ZNSt3mapISsSsSt4lessISsESaISt4pairIKSsSsEEEixERS3_,"axG",@progbits,_ZNSt3mapISsSsSt4lessISsESaISt4pairIKSsSsEEEixERS3_,comdat
	.align 2
	.weak	_ZNSt3mapISsSsSt4lessISsESaISt4pairIKSsSsEEEixERS3_
	.type	_ZNSt3mapISsSsSt4lessISsESaISt4pairIKSsSsEEEixERS3_, @function
_ZNSt3mapISsSsSt4lessISsESaISt4pairIKSsSsEEEixERS3_:
.LFB11364:
	.cfi_startproc
	.cfi_personality 0x3,__gxx_personality_v0
	.cfi_lsda 0x3,.LLSDA11364
	pushq	%rbp	#
	.cfi_def_cfa_offset 16
	movq	%rsp, %rbp	#,
	.cfi_offset 6, -16
	.cfi_def_cfa_register 6
	pushq	%r12	#
	pushq	%rbx	#
	subq	$80, %rsp	#,
	movq	%rdi, -88(%rbp)	# this, this
	movq	%rsi, -96(%rbp)	# __k, __k
	movq	-96(%rbp), %rdx	# __k, tmp71
	movq	-88(%rbp), %rax	# this, tmp72
	movq	%rdx, %rsi	# tmp71,
	movq	%rax, %rdi	# tmp72,
.LEHB192:
	.cfi_offset 3, -32
	.cfi_offset 12, -24
	call	_ZNSt3mapISsSsSt4lessISsESaISt4pairIKSsSsEEE11lower_boundERS3_	#
	movq	%rax, -80(%rbp)	# tmp74, __i
	movq	-88(%rbp), %rax	# this, tmp75
	movq	%rax, %rdi	# tmp75,
	call	_ZNSt3mapISsSsSt4lessISsESaISt4pairIKSsSsEEE3endEv	#
	movq	%rax, -64(%rbp)	# tmp77, D.164941
	leaq	-64(%rbp), %rdx	#, tmp78
	leaq	-80(%rbp), %rax	#, tmp79
	movq	%rdx, %rsi	# tmp78,
	movq	%rax, %rdi	# tmp79,
	call	_ZNKSt17_Rb_tree_iteratorISt4pairIKSsSsEEeqERKS3_	#
	testb	%al, %al	# D.164985
	jne	.L669	#,
	leaq	-80(%rbp), %rax	#, tmp80
	movq	%rax, %rdi	# tmp80,
	call	_ZNKSt17_Rb_tree_iteratorISt4pairIKSsSsEEdeEv	#
	movq	%rax, %rbx	# D.164987, D.164988
	movq	-88(%rbp), %rax	# this, tmp81
	movq	%rax, %rdi	# tmp81,
	call	_ZNKSt3mapISsSsSt4lessISsESaISt4pairIKSsSsEEE8key_compEv	#
	movb	%al, -49(%rbp)	# tmp83, D.164940
	movq	-96(%rbp), %rcx	# __k, tmp84
	leaq	-49(%rbp), %rax	#, tmp85
	movq	%rbx, %rdx	# D.164988,
	movq	%rcx, %rsi	# tmp84,
	movq	%rax, %rdi	# tmp85,
	call	_ZNKSt4lessISsEclERKSsS2_	#
	testb	%al, %al	# D.164989
	je	.L670	#,
.L669:
	movl	$1, %eax	#, iftmp.2079
	jmp	.L671	#
.L670:
	movl	$0, %eax	#, iftmp.2079
.L671:
	testb	%al, %al	# retval.2078
	je	.L672	#,
	leaq	-32(%rbp), %rax	#, tmp86
	movq	%rax, %rdi	# tmp86,
	call	_ZNSsC1Ev	#
.LEHE192:
	leaq	-32(%rbp), %rdx	#, tmp87
	movq	-96(%rbp), %rcx	# __k, tmp88
	leaq	-48(%rbp), %rax	#, tmp89
	movq	%rcx, %rsi	# tmp88,
	movq	%rax, %rdi	# tmp89,
.LEHB193:
	call	_ZNSt4pairIKSsSsEC1ERS0_S2_	#
.LEHE193:
	leaq	-48(%rbp), %rdx	#, tmp90
	movq	-80(%rbp), %rcx	# __i, tmp91
	movq	-88(%rbp), %rax	# this, tmp92
	movq	%rcx, %rsi	# tmp91,
	movq	%rax, %rdi	# tmp92,
.LEHB194:
	call	_ZNSt3mapISsSsSt4lessISsESaISt4pairIKSsSsEEE6insertESt17_Rb_tree_iteratorIS4_ERKS4_	#
.LEHE194:
	movq	%rax, -80(%rbp)	# tmp94, __i
	leaq	-48(%rbp), %rax	#, tmp98
	movq	%rax, %rdi	# tmp98,
.LEHB195:
	call	_ZNSt4pairIKSsSsED1Ev	#
.LEHE195:
	jmp	.L680	#
.L678:
.L674:
	movl	%edx, %ebx	# tmp95, save_filt.3070
	movq	%rax, %r12	# tmp96, save_eptr.3069
	leaq	-48(%rbp), %rax	#, tmp97
	movq	%rax, %rdi	# tmp97,
	call	_ZNSt4pairIKSsSsED1Ev	#
	movq	%r12, %rax	# save_eptr.3069, tmp96
	movslq	%ebx,%rdx	# save_filt.3070, tmp95
	jmp	.L676	#
.L679:
.L676:
	movl	%edx, %ebx	# tmp95, save_filt.3072
	movq	%rax, %r12	# tmp96, save_eptr.3071
	leaq	-32(%rbp), %rax	#, tmp99
	movq	%rax, %rdi	# tmp99,
	call	_ZNSsD1Ev	#
	movq	%r12, %rax	# save_eptr.3071, tmp96
	movslq	%ebx,%rdx	# save_filt.3072, tmp95
	movq	%rax, %rdi	# tmp96,
.LEHB196:
	call	_Unwind_Resume	#
.L680:
	leaq	-32(%rbp), %rax	#, tmp100
	movq	%rax, %rdi	# tmp100,
	call	_ZNSsD1Ev	#
.LEHE196:
.L672:
	leaq	-80(%rbp), %rax	#, tmp101
	movq	%rax, %rdi	# tmp101,
	call	_ZNKSt17_Rb_tree_iteratorISt4pairIKSsSsEEdeEv	#
	addq	$8, %rax	#, D.164993
	addq	$80, %rsp	#,
	popq	%rbx	#
	popq	%r12	#
	leave
	ret
	.cfi_endproc
.LFE11364:
	.size	_ZNSt3mapISsSsSt4lessISsESaISt4pairIKSsSsEEEixERS3_, .-_ZNSt3mapISsSsSt4lessISsESaISt4pairIKSsSsEEEixERS3_
	.section	.gcc_except_table
.LLSDA11364:
	.byte	0xff
	.byte	0xff
	.byte	0x1
	.uleb128 .LLSDACSE11364-.LLSDACSB11364
.LLSDACSB11364:
	.uleb128 .LEHB192-.LFB11364
	.uleb128 .LEHE192-.LEHB192
	.uleb128 0x0
	.uleb128 0x0
	.uleb128 .LEHB193-.LFB11364
	.uleb128 .LEHE193-.LEHB193
	.uleb128 .L679-.LFB11364
	.uleb128 0x0
	.uleb128 .LEHB194-.LFB11364
	.uleb128 .LEHE194-.LEHB194
	.uleb128 .L678-.LFB11364
	.uleb128 0x0
	.uleb128 .LEHB195-.LFB11364
	.uleb128 .LEHE195-.LEHB195
	.uleb128 .L679-.LFB11364
	.uleb128 0x0
	.uleb128 .LEHB196-.LFB11364
	.uleb128 .LEHE196-.LEHB196
	.uleb128 0x0
	.uleb128 0x0
.LLSDACSE11364:
	.section	.text._ZNSt3mapISsSsSt4lessISsESaISt4pairIKSsSsEEEixERS3_,"axG",@progbits,_ZNSt3mapISsSsSt4lessISsESaISt4pairIKSsSsEEEixERS3_,comdat
	.section	.text._ZNSt6vectorI9lgHotspotSaIS0_EE9push_backERKS0_,"axG",@progbits,_ZNSt6vectorI9lgHotspotSaIS0_EE9push_backERKS0_,comdat
	.align 2
	.weak	_ZNSt6vectorI9lgHotspotSaIS0_EE9push_backERKS0_
	.type	_ZNSt6vectorI9lgHotspotSaIS0_EE9push_backERKS0_, @function
_ZNSt6vectorI9lgHotspotSaIS0_EE9push_backERKS0_:
.LFB11368:
	.cfi_startproc
	.cfi_personality 0x3,__gxx_personality_v0
	pushq	%rbp	#
	.cfi_def_cfa_offset 16
	movq	%rsp, %rbp	#,
	.cfi_offset 6, -16
	.cfi_def_cfa_register 6
	subq	$16, %rsp	#,
	movq	%rdi, -8(%rbp)	# this, this
	movq	%rsi, -16(%rbp)	# __x, __x
	movq	-8(%rbp), %rax	# this, tmp66
	movq	8(%rax), %rdx	# <variable>.D.34661._M_impl._M_finish, D.165084
	movq	-8(%rbp), %rax	# this, tmp67
	movq	16(%rax), %rax	# <variable>.D.34661._M_impl._M_end_of_storage, D.165085
	cmpq	%rax, %rdx	# D.165085, D.165084
	je	.L682	#,
	movq	-8(%rbp), %rax	# this, tmp68
	movq	8(%rax), %rcx	# <variable>.D.34661._M_impl._M_finish, D.165088
	movq	-8(%rbp), %rax	# this, D.165089
	movq	-16(%rbp), %rdx	# __x, tmp69
	movq	%rcx, %rsi	# D.165088,
	movq	%rax, %rdi	# D.165090,
	call	_ZN9__gnu_cxx13new_allocatorI9lgHotspotE9constructEPS1_RKS1_	#
	movq	-8(%rbp), %rax	# this, tmp70
	movq	8(%rax), %rax	# <variable>.D.34661._M_impl._M_finish, D.165091
	leaq	32(%rax), %rdx	#, D.165092
	movq	-8(%rbp), %rax	# this, tmp71
	movq	%rdx, 8(%rax)	# D.165092, <variable>.D.34661._M_impl._M_finish
	jmp	.L684	#
.L682:
	movq	-8(%rbp), %rax	# this, tmp72
	movq	%rax, %rdi	# tmp72,
	call	_ZNSt6vectorI9lgHotspotSaIS0_EE3endEv	#
	movq	%rax, %rcx	#, D.165083
	movq	-16(%rbp), %rdx	# __x, tmp73
	movq	-8(%rbp), %rax	# this, tmp74
	movq	%rcx, %rsi	# D.165083,
	movq	%rax, %rdi	# tmp74,
	call	_ZNSt6vectorI9lgHotspotSaIS0_EE13_M_insert_auxEN9__gnu_cxx17__normal_iteratorIPS0_S2_EERKS0_	#
.L684:
	leave
	ret
	.cfi_endproc
.LFE11368:
	.size	_ZNSt6vectorI9lgHotspotSaIS0_EE9push_backERKS0_, .-_ZNSt6vectorI9lgHotspotSaIS0_EE9push_backERKS0_
	.section	.text._ZNSt3mapISs11LibraryGateSt4lessISsESaISt4pairIKSsS0_EEED1Ev,"axG",@progbits,_ZNSt3mapISs11LibraryGateSt4lessISsESaISt4pairIKSsS0_EEED1Ev,comdat
	.align 2
	.weak	_ZNSt3mapISs11LibraryGateSt4lessISsESaISt4pairIKSsS0_EEED1Ev
	.type	_ZNSt3mapISs11LibraryGateSt4lessISsESaISt4pairIKSsS0_EEED1Ev, @function
_ZNSt3mapISs11LibraryGateSt4lessISsESaISt4pairIKSsS0_EEED1Ev:
.LFB11372:
	.cfi_startproc
	.cfi_personality 0x3,__gxx_personality_v0
	pushq	%rbp	#
	.cfi_def_cfa_offset 16
	movq	%rsp, %rbp	#,
	.cfi_offset 6, -16
	.cfi_def_cfa_register 6
	subq	$16, %rsp	#,
	movq	%rdi, -8(%rbp)	# this, this
	movq	-8(%rbp), %rax	# this, D.165218
	movq	%rax, %rdi	# D.165218,
	call	_ZNSt8_Rb_treeISsSt4pairIKSs11LibraryGateESt10_Select1stIS3_ESt4lessISsESaIS3_EED1Ev	#
	leave
	ret
	.cfi_endproc
.LFE11372:
	.size	_ZNSt3mapISs11LibraryGateSt4lessISsESaISt4pairIKSsS0_EEED1Ev, .-_ZNSt3mapISs11LibraryGateSt4lessISsESaISt4pairIKSsS0_EEED1Ev
	.section	.text._ZNSt4pairIKSsSt3mapISs11LibraryGateSt4lessISsESaIS_IS0_S2_EEEED1Ev,"axG",@progbits,_ZNSt4pairIKSsSt3mapISs11LibraryGateSt4lessISsESaIS_IS0_S2_EEEED1Ev,comdat
	.align 2
	.weak	_ZNSt4pairIKSsSt3mapISs11LibraryGateSt4lessISsESaIS_IS0_S2_EEEED1Ev
	.type	_ZNSt4pairIKSsSt3mapISs11LibraryGateSt4lessISsESaIS_IS0_S2_EEEED1Ev, @function
_ZNSt4pairIKSsSt3mapISs11LibraryGateSt4lessISsESaIS_IS0_S2_EEEED1Ev:
.LFB11375:
	.cfi_startproc
	.cfi_personality 0x3,__gxx_personality_v0
	.cfi_lsda 0x3,.LLSDA11375
	pushq	%rbp	#
	.cfi_def_cfa_offset 16
	movq	%rsp, %rbp	#,
	.cfi_offset 6, -16
	.cfi_def_cfa_register 6
	pushq	%r12	#
	pushq	%rbx	#
	subq	$16, %rsp	#,
	movq	%rdi, -24(%rbp)	# this, this
	movq	-24(%rbp), %rax	# this, tmp63
	addq	$8, %rax	#, D.165250
	movq	%rax, %rdi	# D.165250,
.LEHB197:
	.cfi_offset 3, -32
	.cfi_offset 12, -24
	call	_ZNSt3mapISs11LibraryGateSt4lessISsESaISt4pairIKSsS0_EEED1Ev	#
.LEHE197:
	jmp	.L694	#
.L693:
.L690:
	movl	%edx, %ebx	# tmp64, save_filt.2922
	movq	%rax, %r12	# tmp65, save_eptr.2921
	movq	-24(%rbp), %rax	# this, D.165251
	movq	%rax, %rdi	# D.165251,
	call	_ZNSsD1Ev	#
	movq	%r12, %rax	# save_eptr.2921, tmp65
	movslq	%ebx,%rdx	# save_filt.2922, tmp64
	movq	%rax, %rdi	# tmp65,
.LEHB198:
	call	_Unwind_Resume	#
.L694:
	movq	-24(%rbp), %rax	# this, temp.3274
	movq	%rax, %rdi	# temp.3274,
	call	_ZNSsD1Ev	#
.LEHE198:
	addq	$16, %rsp	#,
	popq	%rbx	#
	popq	%r12	#
	leave
	ret
	.cfi_endproc
.LFE11375:
	.size	_ZNSt4pairIKSsSt3mapISs11LibraryGateSt4lessISsESaIS_IS0_S2_EEEED1Ev, .-_ZNSt4pairIKSsSt3mapISs11LibraryGateSt4lessISsESaIS_IS0_S2_EEEED1Ev
	.section	.gcc_except_table
.LLSDA11375:
	.byte	0xff
	.byte	0xff
	.byte	0x1
	.uleb128 .LLSDACSE11375-.LLSDACSB11375
.LLSDACSB11375:
	.uleb128 .LEHB197-.LFB11375
	.uleb128 .LEHE197-.LEHB197
	.uleb128 .L693-.LFB11375
	.uleb128 0x0
	.uleb128 .LEHB198-.LFB11375
	.uleb128 .LEHE198-.LEHB198
	.uleb128 0x0
	.uleb128 0x0
.LLSDACSE11375:
	.section	.text._ZNSt4pairIKSsSt3mapISs11LibraryGateSt4lessISsESaIS_IS0_S2_EEEED1Ev,"axG",@progbits,_ZNSt4pairIKSsSt3mapISs11LibraryGateSt4lessISsESaIS_IS0_S2_EEEED1Ev,comdat
	.section	.text._ZNSt3mapISsS_ISs11LibraryGateSt4lessISsESaISt4pairIKSsS0_EEES2_SaIS3_IS4_S7_EEEixERS4_,"axG",@progbits,_ZNSt3mapISsS_ISs11LibraryGateSt4lessISsESaISt4pairIKSsS0_EEES2_SaIS3_IS4_S7_EEEixERS4_,comdat
	.align 2
	.weak	_ZNSt3mapISsS_ISs11LibraryGateSt4lessISsESaISt4pairIKSsS0_EEES2_SaIS3_IS4_S7_EEEixERS4_
	.type	_ZNSt3mapISsS_ISs11LibraryGateSt4lessISsESaISt4pairIKSsS0_EEES2_SaIS3_IS4_S7_EEEixERS4_, @function
_ZNSt3mapISsS_ISs11LibraryGateSt4lessISsESaISt4pairIKSsS0_EEES2_SaIS3_IS4_S7_EEEixERS4_:
.LFB11369:
	.cfi_startproc
	.cfi_personality 0x3,__gxx_personality_v0
	.cfi_lsda 0x3,.LLSDA11369
	pushq	%rbp	#
	.cfi_def_cfa_offset 16
	movq	%rsp, %rbp	#,
	.cfi_offset 6, -16
	.cfi_def_cfa_register 6
	pushq	%r12	#
	pushq	%rbx	#
	subq	$160, %rsp	#,
	movq	%rdi, -168(%rbp)	# this, this
	movq	%rsi, -176(%rbp)	# __k, __k
	movq	-176(%rbp), %rdx	# __k, tmp71
	movq	-168(%rbp), %rax	# this, tmp72
	movq	%rdx, %rsi	# tmp71,
	movq	%rax, %rdi	# tmp72,
.LEHB199:
	.cfi_offset 3, -32
	.cfi_offset 12, -24
	call	_ZNSt3mapISsS_ISs11LibraryGateSt4lessISsESaISt4pairIKSsS0_EEES2_SaIS3_IS4_S7_EEE11lower_boundERS4_	#
	movq	%rax, -160(%rbp)	# tmp74, __i
	movq	-168(%rbp), %rax	# this, tmp75
	movq	%rax, %rdi	# tmp75,
	call	_ZNSt3mapISsS_ISs11LibraryGateSt4lessISsESaISt4pairIKSsS0_EEES2_SaIS3_IS4_S7_EEE3endEv	#
	movq	%rax, -144(%rbp)	# tmp77, D.165198
	leaq	-144(%rbp), %rdx	#, tmp78
	leaq	-160(%rbp), %rax	#, tmp79
	movq	%rdx, %rsi	# tmp78,
	movq	%rax, %rdi	# tmp79,
	call	_ZNKSt17_Rb_tree_iteratorISt4pairIKSsSt3mapISs11LibraryGateSt4lessISsESaIS0_IS1_S3_EEEEEeqERKSA_	#
	testb	%al, %al	# D.165262
	jne	.L696	#,
	leaq	-160(%rbp), %rax	#, tmp80
	movq	%rax, %rdi	# tmp80,
	call	_ZNKSt17_Rb_tree_iteratorISt4pairIKSsSt3mapISs11LibraryGateSt4lessISsESaIS0_IS1_S3_EEEEEdeEv	#
	movq	%rax, %rbx	# D.165264, D.165265
	movq	-168(%rbp), %rax	# this, tmp81
	movq	%rax, %rdi	# tmp81,
	call	_ZNKSt3mapISsS_ISs11LibraryGateSt4lessISsESaISt4pairIKSsS0_EEES2_SaIS3_IS4_S7_EEE8key_compEv	#
	movb	%al, -129(%rbp)	# tmp83, D.165154
	movq	-176(%rbp), %rcx	# __k, tmp84
	leaq	-129(%rbp), %rax	#, tmp85
	movq	%rbx, %rdx	# D.165265,
	movq	%rcx, %rsi	# tmp84,
	movq	%rax, %rdi	# tmp85,
	call	_ZNKSt4lessISsEclERKSsS2_	#
	testb	%al, %al	# D.165266
	je	.L697	#,
.L696:
	movl	$1, %eax	#, iftmp.2081
	jmp	.L698	#
.L697:
	movl	$0, %eax	#, iftmp.2081
.L698:
	testb	%al, %al	# retval.2080
	je	.L699	#,
	leaq	-64(%rbp), %rax	#, tmp86
	movq	%rax, %rdi	# tmp86,
	call	_ZNSt3mapISs11LibraryGateSt4lessISsESaISt4pairIKSsS0_EEEC1Ev	#
.LEHE199:
	leaq	-64(%rbp), %rdx	#, tmp87
	movq	-176(%rbp), %rcx	# __k, tmp88
	leaq	-128(%rbp), %rax	#, tmp89
	movq	%rcx, %rsi	# tmp88,
	movq	%rax, %rdi	# tmp89,
.LEHB200:
	call	_ZNSt4pairIKSsSt3mapISs11LibraryGateSt4lessISsESaIS_IS0_S2_EEEEC1ERS0_RKS7_	#
.LEHE200:
	leaq	-128(%rbp), %rdx	#, tmp90
	movq	-160(%rbp), %rcx	# __i, tmp91
	movq	-168(%rbp), %rax	# this, tmp92
	movq	%rcx, %rsi	# tmp91,
	movq	%rax, %rdi	# tmp92,
.LEHB201:
	call	_ZNSt3mapISsS_ISs11LibraryGateSt4lessISsESaISt4pairIKSsS0_EEES2_SaIS3_IS4_S7_EEE6insertESt17_Rb_tree_iteratorIS8_ERKS8_	#
.LEHE201:
	movq	%rax, -160(%rbp)	# tmp94, __i
	leaq	-128(%rbp), %rax	#, tmp98
	movq	%rax, %rdi	# tmp98,
.LEHB202:
	call	_ZNSt4pairIKSsSt3mapISs11LibraryGateSt4lessISsESaIS_IS0_S2_EEEED1Ev	#
.LEHE202:
	jmp	.L707	#
.L705:
.L701:
	movl	%edx, %ebx	# tmp95, save_filt.2786
	movq	%rax, %r12	# tmp96, save_eptr.2785
	leaq	-128(%rbp), %rax	#, tmp97
	movq	%rax, %rdi	# tmp97,
	call	_ZNSt4pairIKSsSt3mapISs11LibraryGateSt4lessISsESaIS_IS0_S2_EEEED1Ev	#
	movq	%r12, %rax	# save_eptr.2785, tmp96
	movslq	%ebx,%rdx	# save_filt.2786, tmp95
	jmp	.L703	#
.L706:
.L703:
	movl	%edx, %ebx	# tmp95, save_filt.2788
	movq	%rax, %r12	# tmp96, save_eptr.2787
	leaq	-64(%rbp), %rax	#, tmp99
	movq	%rax, %rdi	# tmp99,
	call	_ZNSt3mapISs11LibraryGateSt4lessISsESaISt4pairIKSsS0_EEED1Ev	#
	movq	%r12, %rax	# save_eptr.2787, tmp96
	movslq	%ebx,%rdx	# save_filt.2788, tmp95
	movq	%rax, %rdi	# tmp96,
.LEHB203:
	call	_Unwind_Resume	#
.L707:
	leaq	-64(%rbp), %rax	#, tmp100
	movq	%rax, %rdi	# tmp100,
	call	_ZNSt3mapISs11LibraryGateSt4lessISsESaISt4pairIKSsS0_EEED1Ev	#
.LEHE203:
.L699:
	leaq	-160(%rbp), %rax	#, tmp101
	movq	%rax, %rdi	# tmp101,
	call	_ZNKSt17_Rb_tree_iteratorISt4pairIKSsSt3mapISs11LibraryGateSt4lessISsESaIS0_IS1_S3_EEEEEdeEv	#
	addq	$8, %rax	#, D.165270
	addq	$160, %rsp	#,
	popq	%rbx	#
	popq	%r12	#
	leave
	ret
	.cfi_endproc
.LFE11369:
	.size	_ZNSt3mapISsS_ISs11LibraryGateSt4lessISsESaISt4pairIKSsS0_EEES2_SaIS3_IS4_S7_EEEixERS4_, .-_ZNSt3mapISsS_ISs11LibraryGateSt4lessISsESaISt4pairIKSsS0_EEES2_SaIS3_IS4_S7_EEEixERS4_
	.section	.gcc_except_table
.LLSDA11369:
	.byte	0xff
	.byte	0xff
	.byte	0x1
	.uleb128 .LLSDACSE11369-.LLSDACSB11369
.LLSDACSB11369:
	.uleb128 .LEHB199-.LFB11369
	.uleb128 .LEHE199-.LEHB199
	.uleb128 0x0
	.uleb128 0x0
	.uleb128 .LEHB200-.LFB11369
	.uleb128 .LEHE200-.LEHB200
	.uleb128 .L706-.LFB11369
	.uleb128 0x0
	.uleb128 .LEHB201-.LFB11369
	.uleb128 .LEHE201-.LEHB201
	.uleb128 .L705-.LFB11369
	.uleb128 0x0
	.uleb128 .LEHB202-.LFB11369
	.uleb128 .LEHE202-.LEHB202
	.uleb128 .L706-.LFB11369
	.uleb128 0x0
	.uleb128 .LEHB203-.LFB11369
	.uleb128 .LEHE203-.LEHB203
	.uleb128 0x0
	.uleb128 0x0
.LLSDACSE11369:
	.section	.text._ZNSt3mapISsS_ISs11LibraryGateSt4lessISsESaISt4pairIKSsS0_EEES2_SaIS3_IS4_S7_EEEixERS4_,"axG",@progbits,_ZNSt3mapISsS_ISs11LibraryGateSt4lessISsESaISt4pairIKSsS0_EEES2_SaIS3_IS4_S7_EEEixERS4_,comdat
	.section	.text._ZNSt4pairIKSs11LibraryGateED1Ev,"axG",@progbits,_ZNSt4pairIKSs11LibraryGateED1Ev,comdat
	.align 2
	.weak	_ZNSt4pairIKSs11LibraryGateED1Ev
	.type	_ZNSt4pairIKSs11LibraryGateED1Ev, @function
_ZNSt4pairIKSs11LibraryGateED1Ev:
.LFB11379:
	.cfi_startproc
	.cfi_personality 0x3,__gxx_personality_v0
	.cfi_lsda 0x3,.LLSDA11379
	pushq	%rbp	#
	.cfi_def_cfa_offset 16
	movq	%rsp, %rbp	#,
	.cfi_offset 6, -16
	.cfi_def_cfa_register 6
	pushq	%r12	#
	pushq	%rbx	#
	subq	$16, %rsp	#,
	movq	%rdi, -24(%rbp)	# this, this
	movq	-24(%rbp), %rax	# this, tmp63
	addq	$8, %rax	#, D.165310
	movq	%rax, %rdi	# D.165310,
.LEHB204:
	.cfi_offset 3, -32
	.cfi_offset 12, -24
	call	_ZN11LibraryGateD1Ev	#
.LEHE204:
	jmp	.L714	#
.L713:
.L710:
	movl	%edx, %ebx	# tmp64, save_filt.2892
	movq	%rax, %r12	# tmp65, save_eptr.2891
	movq	-24(%rbp), %rax	# this, D.165311
	movq	%rax, %rdi	# D.165311,
	call	_ZNSsD1Ev	#
	movq	%r12, %rax	# save_eptr.2891, tmp65
	movslq	%ebx,%rdx	# save_filt.2892, tmp64
	movq	%rax, %rdi	# tmp65,
.LEHB205:
	call	_Unwind_Resume	#
.L714:
	movq	-24(%rbp), %rax	# this, temp.3275
	movq	%rax, %rdi	# temp.3275,
	call	_ZNSsD1Ev	#
.LEHE205:
	addq	$16, %rsp	#,
	popq	%rbx	#
	popq	%r12	#
	leave
	ret
	.cfi_endproc
.LFE11379:
	.size	_ZNSt4pairIKSs11LibraryGateED1Ev, .-_ZNSt4pairIKSs11LibraryGateED1Ev
	.section	.gcc_except_table
.LLSDA11379:
	.byte	0xff
	.byte	0xff
	.byte	0x1
	.uleb128 .LLSDACSE11379-.LLSDACSB11379
.LLSDACSB11379:
	.uleb128 .LEHB204-.LFB11379
	.uleb128 .LEHE204-.LEHB204
	.uleb128 .L713-.LFB11379
	.uleb128 0x0
	.uleb128 .LEHB205-.LFB11379
	.uleb128 .LEHE205-.LEHB205
	.uleb128 0x0
	.uleb128 0x0
.LLSDACSE11379:
	.section	.text._ZNSt4pairIKSs11LibraryGateED1Ev,"axG",@progbits,_ZNSt4pairIKSs11LibraryGateED1Ev,comdat
	.section	.text._ZNSt3mapISs11LibraryGateSt4lessISsESaISt4pairIKSsS0_EEEixERS4_,"axG",@progbits,_ZNSt3mapISs11LibraryGateSt4lessISsESaISt4pairIKSsS0_EEEixERS4_,comdat
	.align 2
	.weak	_ZNSt3mapISs11LibraryGateSt4lessISsESaISt4pairIKSsS0_EEEixERS4_
	.type	_ZNSt3mapISs11LibraryGateSt4lessISsESaISt4pairIKSsS0_EEEixERS4_, @function
_ZNSt3mapISs11LibraryGateSt4lessISsESaISt4pairIKSsS0_EEEixERS4_:
.LFB11376:
	.cfi_startproc
	.cfi_personality 0x3,__gxx_personality_v0
	.cfi_lsda 0x3,.LLSDA11376
	pushq	%rbp	#
	.cfi_def_cfa_offset 16
	movq	%rsp, %rbp	#,
	.cfi_offset 6, -16
	.cfi_def_cfa_register 6
	pushq	%r12	#
	pushq	%rbx	#
	subq	$464, %rsp	#,
	movq	%rdi, -472(%rbp)	# this, this
	movq	%rsi, -480(%rbp)	# __k, __k
	movq	-480(%rbp), %rdx	# __k, tmp71
	movq	-472(%rbp), %rax	# this, tmp72
	movq	%rdx, %rsi	# tmp71,
	movq	%rax, %rdi	# tmp72,
.LEHB206:
	.cfi_offset 3, -32
	.cfi_offset 12, -24
	call	_ZNSt3mapISs11LibraryGateSt4lessISsESaISt4pairIKSsS0_EEE11lower_boundERS4_	#
	movq	%rax, -464(%rbp)	# tmp74, __i
	movq	-472(%rbp), %rax	# this, tmp75
	movq	%rax, %rdi	# tmp75,
	call	_ZNSt3mapISs11LibraryGateSt4lessISsESaISt4pairIKSsS0_EEE3endEv	#
	movq	%rax, -448(%rbp)	# tmp77, D.165278
	leaq	-448(%rbp), %rdx	#, tmp78
	leaq	-464(%rbp), %rax	#, tmp79
	movq	%rdx, %rsi	# tmp78,
	movq	%rax, %rdi	# tmp79,
	call	_ZNKSt17_Rb_tree_iteratorISt4pairIKSs11LibraryGateEEeqERKS4_	#
	testb	%al, %al	# D.165322
	jne	.L716	#,
	leaq	-464(%rbp), %rax	#, tmp80
	movq	%rax, %rdi	# tmp80,
	call	_ZNKSt17_Rb_tree_iteratorISt4pairIKSs11LibraryGateEEdeEv	#
	movq	%rax, %rbx	# D.165324, D.165325
	movq	-472(%rbp), %rax	# this, tmp81
	movq	%rax, %rdi	# tmp81,
	call	_ZNKSt3mapISs11LibraryGateSt4lessISsESaISt4pairIKSsS0_EEE8key_compEv	#
	movb	%al, -433(%rbp)	# tmp83, D.165277
	movq	-480(%rbp), %rcx	# __k, tmp84
	leaq	-433(%rbp), %rax	#, tmp85
	movq	%rbx, %rdx	# D.165325,
	movq	%rcx, %rsi	# tmp84,
	movq	%rax, %rdi	# tmp85,
	call	_ZNKSt4lessISsEclERKSsS2_	#
	testb	%al, %al	# D.165326
	je	.L717	#,
.L716:
	movl	$1, %eax	#, iftmp.2083
	jmp	.L718	#
.L717:
	movl	$0, %eax	#, iftmp.2083
.L718:
	testb	%al, %al	# retval.2082
	je	.L719	#,
	leaq	-224(%rbp), %rbx	#, tmp86
	movl	$0, %eax	#, tmp87
	movl	$25, %edx	#, tmp88
	movq	%rbx, %rdi	# tmp86,
	movq	%rdx, %rcx	# tmp88,
	rep stosq
	leaq	-224(%rbp), %rax	#, tmp89
	movq	%rax, %rdi	# tmp89,
	call	_ZN11LibraryGateC1Ev	#
.LEHE206:
	leaq	-224(%rbp), %rdx	#, tmp90
	movq	-480(%rbp), %rcx	# __k, tmp91
	leaq	-432(%rbp), %rax	#, tmp92
	movq	%rcx, %rsi	# tmp91,
	movq	%rax, %rdi	# tmp92,
.LEHB207:
	call	_ZNSt4pairIKSs11LibraryGateEC1ERS0_RKS1_	#
.LEHE207:
	leaq	-432(%rbp), %rdx	#, tmp93
	movq	-464(%rbp), %rcx	# __i, tmp94
	movq	-472(%rbp), %rax	# this, tmp95
	movq	%rcx, %rsi	# tmp94,
	movq	%rax, %rdi	# tmp95,
.LEHB208:
	call	_ZNSt3mapISs11LibraryGateSt4lessISsESaISt4pairIKSsS0_EEE6insertESt17_Rb_tree_iteratorIS5_ERKS5_	#
.LEHE208:
	movq	%rax, -464(%rbp)	# tmp97, __i
	leaq	-432(%rbp), %rax	#, tmp101
	movq	%rax, %rdi	# tmp101,
.LEHB209:
	call	_ZNSt4pairIKSs11LibraryGateED1Ev	#
.LEHE209:
	jmp	.L727	#
.L725:
.L721:
	movl	%edx, %ebx	# tmp98, save_filt.2926
	movq	%rax, %r12	# tmp99, save_eptr.2925
	leaq	-432(%rbp), %rax	#, tmp100
	movq	%rax, %rdi	# tmp100,
	call	_ZNSt4pairIKSs11LibraryGateED1Ev	#
	movq	%r12, %rax	# save_eptr.2925, tmp99
	movslq	%ebx,%rdx	# save_filt.2926, tmp98
	jmp	.L723	#
.L726:
.L723:
	movl	%edx, %ebx	# tmp98, save_filt.2928
	movq	%rax, %r12	# tmp99, save_eptr.2927
	leaq	-224(%rbp), %rax	#, tmp102
	movq	%rax, %rdi	# tmp102,
	call	_ZN11LibraryGateD1Ev	#
	movq	%r12, %rax	# save_eptr.2927, tmp99
	movslq	%ebx,%rdx	# save_filt.2928, tmp98
	movq	%rax, %rdi	# tmp99,
.LEHB210:
	call	_Unwind_Resume	#
.L727:
	leaq	-224(%rbp), %rax	#, tmp103
	movq	%rax, %rdi	# tmp103,
	call	_ZN11LibraryGateD1Ev	#
.LEHE210:
.L719:
	leaq	-464(%rbp), %rax	#, tmp104
	movq	%rax, %rdi	# tmp104,
	call	_ZNKSt17_Rb_tree_iteratorISt4pairIKSs11LibraryGateEEdeEv	#
	addq	$8, %rax	#, D.165330
	addq	$464, %rsp	#,
	popq	%rbx	#
	popq	%r12	#
	leave
	ret
	.cfi_endproc
.LFE11376:
	.size	_ZNSt3mapISs11LibraryGateSt4lessISsESaISt4pairIKSsS0_EEEixERS4_, .-_ZNSt3mapISs11LibraryGateSt4lessISsESaISt4pairIKSsS0_EEEixERS4_
	.section	.gcc_except_table
.LLSDA11376:
	.byte	0xff
	.byte	0xff
	.byte	0x1
	.uleb128 .LLSDACSE11376-.LLSDACSB11376
.LLSDACSB11376:
	.uleb128 .LEHB206-.LFB11376
	.uleb128 .LEHE206-.LEHB206
	.uleb128 0x0
	.uleb128 0x0
	.uleb128 .LEHB207-.LFB11376
	.uleb128 .LEHE207-.LEHB207
	.uleb128 .L726-.LFB11376
	.uleb128 0x0
	.uleb128 .LEHB208-.LFB11376
	.uleb128 .LEHE208-.LEHB208
	.uleb128 .L725-.LFB11376
	.uleb128 0x0
	.uleb128 .LEHB209-.LFB11376
	.uleb128 .LEHE209-.LEHB209
	.uleb128 .L726-.LFB11376
	.uleb128 0x0
	.uleb128 .LEHB210-.LFB11376
	.uleb128 .LEHE210-.LEHB210
	.uleb128 0x0
	.uleb128 0x0
.LLSDACSE11376:
	.section	.text._ZNSt3mapISs11LibraryGateSt4lessISsESaISt4pairIKSsS0_EEEixERS4_,"axG",@progbits,_ZNSt3mapISs11LibraryGateSt4lessISsESaISt4pairIKSsS0_EEEixERS4_,comdat
	.section	.text._ZNSt6vectorI9lgHotspotSaIS0_EEaSERKS2_,"axG",@progbits,_ZNSt6vectorI9lgHotspotSaIS0_EEaSERKS2_,comdat
	.align 2
	.weak	_ZNSt6vectorI9lgHotspotSaIS0_EEaSERKS2_
	.type	_ZNSt6vectorI9lgHotspotSaIS0_EEaSERKS2_, @function
_ZNSt6vectorI9lgHotspotSaIS0_EEaSERKS2_:
.LFB11380:
	.cfi_startproc
	.cfi_personality 0x3,__gxx_personality_v0
	pushq	%rbp	#
	.cfi_def_cfa_offset 16
	movq	%rsp, %rbp	#,
	.cfi_offset 6, -16
	.cfi_def_cfa_register 6
	pushq	%r14	#
	pushq	%r13	#
	pushq	%r12	#
	pushq	%rbx	#
	subq	$32, %rsp	#,
	movq	%rdi, -56(%rbp)	# this, this
	movq	%rsi, -64(%rbp)	# __x, __x
	movq	-64(%rbp), %rax	# __x, tmp108
	cmpq	-56(%rbp), %rax	# this, tmp108
	je	.L729	#,
	.cfi_offset 3, -48
	.cfi_offset 12, -40
	.cfi_offset 13, -32
	.cfi_offset 14, -24
	movq	-64(%rbp), %rax	# __x, tmp109
	movq	%rax, %rdi	# tmp109,
	call	_ZNKSt6vectorI9lgHotspotSaIS0_EE4sizeEv	#
	movq	%rax, -48(%rbp)	# __xlen.2084, __xlen
	movq	-56(%rbp), %rax	# this, tmp110
	movq	%rax, %rdi	# tmp110,
	call	_ZNKSt6vectorI9lgHotspotSaIS0_EE8capacityEv	#
	cmpq	-48(%rbp), %rax	# __xlen, D.165460
	setb	%al	#, retval.2085
	testb	%al, %al	# retval.2085
	je	.L730	#,
	movq	-64(%rbp), %rax	# __x, tmp111
	movq	%rax, %rdi	# tmp111,
	call	_ZNKSt6vectorI9lgHotspotSaIS0_EE3endEv	#
	movq	%rax, %r12	#, D.165419
	movq	-64(%rbp), %rax	# __x, tmp112
	movq	%rax, %rdi	# tmp112,
	call	_ZNKSt6vectorI9lgHotspotSaIS0_EE5beginEv	#
	movq	%rax, %rdx	#, D.165418
	movq	-48(%rbp), %rbx	# __xlen, tmp113
	movq	-56(%rbp), %rax	# this, tmp114
	movq	%r12, %rcx	# D.165419,
	movq	%rbx, %rsi	# tmp113,
	movq	%rax, %rdi	# tmp114,
	call	_ZNSt6vectorI9lgHotspotSaIS0_EE20_M_allocate_and_copyIN9__gnu_cxx17__normal_iteratorIPKS0_S2_EEEEPS0_mT_SA_	#
	movq	%rax, -40(%rbp)	# __tmp.2086, __tmp
	movq	-56(%rbp), %rax	# this, D.165464
	movq	%rax, %rdi	# D.165464,
	call	_ZNSt12_Vector_baseI9lgHotspotSaIS0_EE19_M_get_Tp_allocatorEv	#
	movq	%rax, %rdx	#, D.165465
	movq	-56(%rbp), %rax	# this, tmp115
	movq	8(%rax), %rcx	# <variable>.D.34661._M_impl._M_finish, D.165466
	movq	-56(%rbp), %rax	# this, tmp116
	movq	(%rax), %rax	# <variable>.D.34661._M_impl._M_start, D.165467
	movq	%rcx, %rsi	# D.165466,
	movq	%rax, %rdi	# D.165467,
	call	_ZSt8_DestroyIP9lgHotspotS0_EvT_S2_RSaIT0_E	#
	movq	-56(%rbp), %rax	# this, tmp117
	movq	16(%rax), %rax	# <variable>.D.34661._M_impl._M_end_of_storage, D.165468
	movq	%rax, %rdx	# D.165468, D.165469
	movq	-56(%rbp), %rax	# this, tmp118
	movq	(%rax), %rax	# <variable>.D.34661._M_impl._M_start, D.165470
	movq	%rdx, %rcx	# D.165469,
	subq	%rax, %rcx	# D.165471,
	movq	%rcx, %rax	#, D.165472
	sarq	$5, %rax	#, tmp119
	movq	%rax, %rdx	# D.165473, D.165474
	movq	-56(%rbp), %rax	# this, tmp120
	movq	(%rax), %rcx	# <variable>.D.34661._M_impl._M_start, D.165475
	movq	-56(%rbp), %rax	# this, D.165476
	movq	%rcx, %rsi	# D.165475,
	movq	%rax, %rdi	# D.165476,
	call	_ZNSt12_Vector_baseI9lgHotspotSaIS0_EE13_M_deallocateEPS0_m	#
	movq	-56(%rbp), %rax	# this, tmp121
	movq	-40(%rbp), %rdx	# __tmp, tmp122
	movq	%rdx, (%rax)	# tmp122, <variable>.D.34661._M_impl._M_start
	movq	-56(%rbp), %rax	# this, tmp123
	movq	(%rax), %rax	# <variable>.D.34661._M_impl._M_start, D.165477
	movq	-48(%rbp), %rdx	# __xlen, tmp124
	salq	$5, %rdx	#, D.165478
	leaq	(%rax,%rdx), %rdx	#, D.165479
	movq	-56(%rbp), %rax	# this, tmp125
	movq	%rdx, 16(%rax)	# D.165479, <variable>.D.34661._M_impl._M_end_of_storage
	jmp	.L731	#
.L730:
	movq	-56(%rbp), %rax	# this, tmp126
	movq	%rax, %rdi	# tmp126,
	call	_ZNKSt6vectorI9lgHotspotSaIS0_EE4sizeEv	#
	cmpq	-48(%rbp), %rax	# __xlen, D.165482
	setae	%al	#, retval.2087
	testb	%al, %al	# retval.2087
	je	.L732	#,
	movq	-56(%rbp), %rax	# this, D.165485
	movq	%rax, %rdi	# D.165485,
	call	_ZNSt12_Vector_baseI9lgHotspotSaIS0_EE19_M_get_Tp_allocatorEv	#
	movq	%rax, %r12	#, D.165486
	movq	-56(%rbp), %rax	# this, tmp127
	movq	%rax, %rdi	# tmp127,
	call	_ZNSt6vectorI9lgHotspotSaIS0_EE3endEv	#
	movq	%rax, %rbx	#, D.165433
	movq	-56(%rbp), %rax	# this, tmp128
	movq	%rax, %rdi	# tmp128,
	call	_ZNSt6vectorI9lgHotspotSaIS0_EE5beginEv	#
	movq	%rax, %r14	#, D.165427
	movq	-64(%rbp), %rax	# __x, tmp129
	movq	%rax, %rdi	# tmp129,
	call	_ZNKSt6vectorI9lgHotspotSaIS0_EE3endEv	#
	movq	%rax, %r13	#, D.165426
	movq	-64(%rbp), %rax	# __x, tmp130
	movq	%rax, %rdi	# tmp130,
	call	_ZNKSt6vectorI9lgHotspotSaIS0_EE5beginEv	#
	movq	%r14, %rdx	# D.165427,
	movq	%r13, %rsi	# D.165426,
	movq	%rax, %rdi	# D.165425,
	call	_ZSt4copyIN9__gnu_cxx17__normal_iteratorIPK9lgHotspotSt6vectorIS2_SaIS2_EEEENS1_IPS2_S7_EEET0_T_SC_SB_	#
	movq	%r12, %rdx	# D.165486,
	movq	%rbx, %rsi	# D.165433,
	movq	%rax, %rdi	# D.165432,
	call	_ZSt8_DestroyIN9__gnu_cxx17__normal_iteratorIP9lgHotspotSt6vectorIS2_SaIS2_EEEES2_EvT_S8_RSaIT0_E	#
	jmp	.L731	#
.L732:
	movq	-56(%rbp), %rax	# this, tmp131
	movq	(%rax), %rbx	# <variable>.D.34661._M_impl._M_start, D.165488
	movq	-64(%rbp), %rax	# __x, tmp132
	movq	(%rax), %r12	# <variable>.D.34661._M_impl._M_start, D.165489
	movq	-56(%rbp), %rax	# this, tmp133
	movq	%rax, %rdi	# tmp133,
	call	_ZNKSt6vectorI9lgHotspotSaIS0_EE4sizeEv	#
	salq	$5, %rax	#, D.165491
	leaq	(%r12,%rax), %rcx	#, D.165492
	movq	-64(%rbp), %rax	# __x, tmp134
	movq	(%rax), %rax	# <variable>.D.34661._M_impl._M_start, D.165493
	movq	%rbx, %rdx	# D.165488,
	movq	%rcx, %rsi	# D.165492,
	movq	%rax, %rdi	# D.165493,
	call	_ZSt4copyIP9lgHotspotS1_ET0_T_S3_S2_	#
	movq	-56(%rbp), %rax	# this, D.165494
	movq	%rax, %rdi	# D.165494,
	call	_ZNSt12_Vector_baseI9lgHotspotSaIS0_EE19_M_get_Tp_allocatorEv	#
	movq	%rax, %r13	#, D.165495
	movq	-56(%rbp), %rax	# this, tmp135
	movq	8(%rax), %r12	# <variable>.D.34661._M_impl._M_finish, D.165496
	movq	-64(%rbp), %rax	# __x, tmp136
	movq	8(%rax), %rbx	# <variable>.D.34661._M_impl._M_finish, D.165497
	movq	-64(%rbp), %rax	# __x, tmp137
	movq	(%rax), %r14	# <variable>.D.34661._M_impl._M_start, D.165498
	movq	-56(%rbp), %rax	# this, tmp138
	movq	%rax, %rdi	# tmp138,
	call	_ZNKSt6vectorI9lgHotspotSaIS0_EE4sizeEv	#
	salq	$5, %rax	#, D.165500
	leaq	(%r14,%rax), %rax	#, D.165501
	movq	%r13, %rcx	# D.165495,
	movq	%r12, %rdx	# D.165496,
	movq	%rbx, %rsi	# D.165497,
	movq	%rax, %rdi	# D.165501,
	call	_ZSt22__uninitialized_copy_aIP9lgHotspotS1_S0_ET0_T_S3_S2_RSaIT1_E	#
.L731:
	movq	-56(%rbp), %rax	# this, tmp139
	movq	(%rax), %rax	# <variable>.D.34661._M_impl._M_start, D.165502
	movq	-48(%rbp), %rdx	# __xlen, tmp140
	salq	$5, %rdx	#, D.165503
	leaq	(%rax,%rdx), %rdx	#, D.165504
	movq	-56(%rbp), %rax	# this, tmp141
	movq	%rdx, 8(%rax)	# D.165504, <variable>.D.34661._M_impl._M_finish
.L729:
	movq	-56(%rbp), %rax	# this, D.165506
	addq	$32, %rsp	#,
	popq	%rbx	#
	popq	%r12	#
	popq	%r13	#
	popq	%r14	#
	leave
	ret
	.cfi_endproc
.LFE11380:
	.size	_ZNSt6vectorI9lgHotspotSaIS0_EEaSERKS2_, .-_ZNSt6vectorI9lgHotspotSaIS0_EEaSERKS2_
	.section	.text._ZNSt6vectorI6lgLineSaIS0_EEaSERKS2_,"axG",@progbits,_ZNSt6vectorI6lgLineSaIS0_EEaSERKS2_,comdat
	.align 2
	.weak	_ZNSt6vectorI6lgLineSaIS0_EEaSERKS2_
	.type	_ZNSt6vectorI6lgLineSaIS0_EEaSERKS2_, @function
_ZNSt6vectorI6lgLineSaIS0_EEaSERKS2_:
.LFB11381:
	.cfi_startproc
	.cfi_personality 0x3,__gxx_personality_v0
	pushq	%rbp	#
	.cfi_def_cfa_offset 16
	movq	%rsp, %rbp	#,
	.cfi_offset 6, -16
	.cfi_def_cfa_register 6
	pushq	%r14	#
	pushq	%r13	#
	pushq	%r12	#
	pushq	%rbx	#
	subq	$32, %rsp	#,
	movq	%rdi, -56(%rbp)	# this, this
	movq	%rsi, -64(%rbp)	# __x, __x
	movq	-64(%rbp), %rax	# __x, tmp108
	cmpq	-56(%rbp), %rax	# this, tmp108
	je	.L735	#,
	.cfi_offset 3, -48
	.cfi_offset 12, -40
	.cfi_offset 13, -32
	.cfi_offset 14, -24
	movq	-64(%rbp), %rax	# __x, tmp109
	movq	%rax, %rdi	# tmp109,
	call	_ZNKSt6vectorI6lgLineSaIS0_EE4sizeEv	#
	movq	%rax, -48(%rbp)	# __xlen.2088, __xlen
	movq	-56(%rbp), %rax	# this, tmp110
	movq	%rax, %rdi	# tmp110,
	call	_ZNKSt6vectorI6lgLineSaIS0_EE8capacityEv	#
	cmpq	-48(%rbp), %rax	# __xlen, D.165635
	setb	%al	#, retval.2089
	testb	%al, %al	# retval.2089
	je	.L736	#,
	movq	-64(%rbp), %rax	# __x, tmp111
	movq	%rax, %rdi	# tmp111,
	call	_ZNKSt6vectorI6lgLineSaIS0_EE3endEv	#
	movq	%rax, %r12	#, D.165594
	movq	-64(%rbp), %rax	# __x, tmp112
	movq	%rax, %rdi	# tmp112,
	call	_ZNKSt6vectorI6lgLineSaIS0_EE5beginEv	#
	movq	%rax, %rdx	#, D.165593
	movq	-48(%rbp), %rbx	# __xlen, tmp113
	movq	-56(%rbp), %rax	# this, tmp114
	movq	%r12, %rcx	# D.165594,
	movq	%rbx, %rsi	# tmp113,
	movq	%rax, %rdi	# tmp114,
	call	_ZNSt6vectorI6lgLineSaIS0_EE20_M_allocate_and_copyIN9__gnu_cxx17__normal_iteratorIPKS0_S2_EEEEPS0_mT_SA_	#
	movq	%rax, -40(%rbp)	# __tmp.2090, __tmp
	movq	-56(%rbp), %rax	# this, D.165639
	movq	%rax, %rdi	# D.165639,
	call	_ZNSt12_Vector_baseI6lgLineSaIS0_EE19_M_get_Tp_allocatorEv	#
	movq	%rax, %rdx	#, D.165640
	movq	-56(%rbp), %rax	# this, tmp115
	movq	8(%rax), %rcx	# <variable>.D.35198._M_impl._M_finish, D.165641
	movq	-56(%rbp), %rax	# this, tmp116
	movq	(%rax), %rax	# <variable>.D.35198._M_impl._M_start, D.165642
	movq	%rcx, %rsi	# D.165641,
	movq	%rax, %rdi	# D.165642,
	call	_ZSt8_DestroyIP6lgLineS0_EvT_S2_RSaIT0_E	#
	movq	-56(%rbp), %rax	# this, tmp117
	movq	16(%rax), %rax	# <variable>.D.35198._M_impl._M_end_of_storage, D.165643
	movq	%rax, %rdx	# D.165643, D.165644
	movq	-56(%rbp), %rax	# this, tmp118
	movq	(%rax), %rax	# <variable>.D.35198._M_impl._M_start, D.165645
	movq	%rdx, %rcx	# D.165644,
	subq	%rax, %rcx	# D.165646,
	movq	%rcx, %rax	#, D.165647
	sarq	$4, %rax	#, tmp119
	movq	%rax, %rdx	# D.165648, D.165649
	movq	-56(%rbp), %rax	# this, tmp120
	movq	(%rax), %rcx	# <variable>.D.35198._M_impl._M_start, D.165650
	movq	-56(%rbp), %rax	# this, D.165651
	movq	%rcx, %rsi	# D.165650,
	movq	%rax, %rdi	# D.165651,
	call	_ZNSt12_Vector_baseI6lgLineSaIS0_EE13_M_deallocateEPS0_m	#
	movq	-56(%rbp), %rax	# this, tmp121
	movq	-40(%rbp), %rdx	# __tmp, tmp122
	movq	%rdx, (%rax)	# tmp122, <variable>.D.35198._M_impl._M_start
	movq	-56(%rbp), %rax	# this, tmp123
	movq	(%rax), %rax	# <variable>.D.35198._M_impl._M_start, D.165652
	movq	-48(%rbp), %rdx	# __xlen, tmp124
	salq	$4, %rdx	#, D.165653
	leaq	(%rax,%rdx), %rdx	#, D.165654
	movq	-56(%rbp), %rax	# this, tmp125
	movq	%rdx, 16(%rax)	# D.165654, <variable>.D.35198._M_impl._M_end_of_storage
	jmp	.L737	#
.L736:
	movq	-56(%rbp), %rax	# this, tmp126
	movq	%rax, %rdi	# tmp126,
	call	_ZNKSt6vectorI6lgLineSaIS0_EE4sizeEv	#
	cmpq	-48(%rbp), %rax	# __xlen, D.165657
	setae	%al	#, retval.2091
	testb	%al, %al	# retval.2091
	je	.L738	#,
	movq	-56(%rbp), %rax	# this, D.165660
	movq	%rax, %rdi	# D.165660,
	call	_ZNSt12_Vector_baseI6lgLineSaIS0_EE19_M_get_Tp_allocatorEv	#
	movq	%rax, %r12	#, D.165661
	movq	-56(%rbp), %rax	# this, tmp127
	movq	%rax, %rdi	# tmp127,
	call	_ZNSt6vectorI6lgLineSaIS0_EE3endEv	#
	movq	%rax, %rbx	#, D.165608
	movq	-56(%rbp), %rax	# this, tmp128
	movq	%rax, %rdi	# tmp128,
	call	_ZNSt6vectorI6lgLineSaIS0_EE5beginEv	#
	movq	%rax, %r14	#, D.165602
	movq	-64(%rbp), %rax	# __x, tmp129
	movq	%rax, %rdi	# tmp129,
	call	_ZNKSt6vectorI6lgLineSaIS0_EE3endEv	#
	movq	%rax, %r13	#, D.165601
	movq	-64(%rbp), %rax	# __x, tmp130
	movq	%rax, %rdi	# tmp130,
	call	_ZNKSt6vectorI6lgLineSaIS0_EE5beginEv	#
	movq	%r14, %rdx	# D.165602,
	movq	%r13, %rsi	# D.165601,
	movq	%rax, %rdi	# D.165600,
	call	_ZSt4copyIN9__gnu_cxx17__normal_iteratorIPK6lgLineSt6vectorIS2_SaIS2_EEEENS1_IPS2_S7_EEET0_T_SC_SB_	#
	movq	%r12, %rdx	# D.165661,
	movq	%rbx, %rsi	# D.165608,
	movq	%rax, %rdi	# D.165607,
	call	_ZSt8_DestroyIN9__gnu_cxx17__normal_iteratorIP6lgLineSt6vectorIS2_SaIS2_EEEES2_EvT_S8_RSaIT0_E	#
	jmp	.L737	#
.L738:
	movq	-56(%rbp), %rax	# this, tmp131
	movq	(%rax), %rbx	# <variable>.D.35198._M_impl._M_start, D.165663
	movq	-64(%rbp), %rax	# __x, tmp132
	movq	(%rax), %r12	# <variable>.D.35198._M_impl._M_start, D.165664
	movq	-56(%rbp), %rax	# this, tmp133
	movq	%rax, %rdi	# tmp133,
	call	_ZNKSt6vectorI6lgLineSaIS0_EE4sizeEv	#
	salq	$4, %rax	#, D.165666
	leaq	(%r12,%rax), %rcx	#, D.165667
	movq	-64(%rbp), %rax	# __x, tmp134
	movq	(%rax), %rax	# <variable>.D.35198._M_impl._M_start, D.165668
	movq	%rbx, %rdx	# D.165663,
	movq	%rcx, %rsi	# D.165667,
	movq	%rax, %rdi	# D.165668,
	call	_ZSt4copyIP6lgLineS1_ET0_T_S3_S2_	#
	movq	-56(%rbp), %rax	# this, D.165669
	movq	%rax, %rdi	# D.165669,
	call	_ZNSt12_Vector_baseI6lgLineSaIS0_EE19_M_get_Tp_allocatorEv	#
	movq	%rax, %r13	#, D.165670
	movq	-56(%rbp), %rax	# this, tmp135
	movq	8(%rax), %r12	# <variable>.D.35198._M_impl._M_finish, D.165671
	movq	-64(%rbp), %rax	# __x, tmp136
	movq	8(%rax), %rbx	# <variable>.D.35198._M_impl._M_finish, D.165672
	movq	-64(%rbp), %rax	# __x, tmp137
	movq	(%rax), %r14	# <variable>.D.35198._M_impl._M_start, D.165673
	movq	-56(%rbp), %rax	# this, tmp138
	movq	%rax, %rdi	# tmp138,
	call	_ZNKSt6vectorI6lgLineSaIS0_EE4sizeEv	#
	salq	$4, %rax	#, D.165675
	leaq	(%r14,%rax), %rax	#, D.165676
	movq	%r13, %rcx	# D.165670,
	movq	%r12, %rdx	# D.165671,
	movq	%rbx, %rsi	# D.165672,
	movq	%rax, %rdi	# D.165676,
	call	_ZSt22__uninitialized_copy_aIP6lgLineS1_S0_ET0_T_S3_S2_RSaIT1_E	#
.L737:
	movq	-56(%rbp), %rax	# this, tmp139
	movq	(%rax), %rax	# <variable>.D.35198._M_impl._M_start, D.165677
	movq	-48(%rbp), %rdx	# __xlen, tmp140
	salq	$4, %rdx	#, D.165678
	leaq	(%rax,%rdx), %rdx	#, D.165679
	movq	-56(%rbp), %rax	# this, tmp141
	movq	%rdx, 8(%rax)	# D.165679, <variable>.D.35198._M_impl._M_finish
.L735:
	movq	-56(%rbp), %rax	# this, D.165681
	addq	$32, %rsp	#,
	popq	%rbx	#
	popq	%r12	#
	popq	%r13	#
	popq	%r14	#
	leave
	ret
	.cfi_endproc
.LFE11381:
	.size	_ZNSt6vectorI6lgLineSaIS0_EEaSERKS2_, .-_ZNSt6vectorI6lgLineSaIS0_EEaSERKS2_
	.section	.text._ZNSt6vectorI10lgDlgParamSaIS0_EEaSERKS2_,"axG",@progbits,_ZNSt6vectorI10lgDlgParamSaIS0_EEaSERKS2_,comdat
	.align 2
	.weak	_ZNSt6vectorI10lgDlgParamSaIS0_EEaSERKS2_
	.type	_ZNSt6vectorI10lgDlgParamSaIS0_EEaSERKS2_, @function
_ZNSt6vectorI10lgDlgParamSaIS0_EEaSERKS2_:
.LFB11382:
	.cfi_startproc
	.cfi_personality 0x3,__gxx_personality_v0
	pushq	%rbp	#
	.cfi_def_cfa_offset 16
	movq	%rsp, %rbp	#,
	.cfi_offset 6, -16
	.cfi_def_cfa_register 6
	pushq	%r14	#
	pushq	%r13	#
	pushq	%r12	#
	pushq	%rbx	#
	subq	$32, %rsp	#,
	movq	%rdi, -56(%rbp)	# this, this
	movq	%rsi, -64(%rbp)	# __x, __x
	movq	-64(%rbp), %rax	# __x, tmp108
	cmpq	-56(%rbp), %rax	# this, tmp108
	je	.L741	#,
	.cfi_offset 3, -48
	.cfi_offset 12, -40
	.cfi_offset 13, -32
	.cfi_offset 14, -24
	movq	-64(%rbp), %rax	# __x, tmp109
	movq	%rax, %rdi	# tmp109,
	call	_ZNKSt6vectorI10lgDlgParamSaIS0_EE4sizeEv	#
	movq	%rax, -48(%rbp)	# __xlen.2092, __xlen
	movq	-56(%rbp), %rax	# this, tmp110
	movq	%rax, %rdi	# tmp110,
	call	_ZNKSt6vectorI10lgDlgParamSaIS0_EE8capacityEv	#
	cmpq	-48(%rbp), %rax	# __xlen, D.165895
	setb	%al	#, retval.2093
	testb	%al, %al	# retval.2093
	je	.L742	#,
	movq	-64(%rbp), %rax	# __x, tmp111
	movq	%rax, %rdi	# tmp111,
	call	_ZNKSt6vectorI10lgDlgParamSaIS0_EE3endEv	#
	movq	%rax, %r12	#, D.165773
	movq	-64(%rbp), %rax	# __x, tmp112
	movq	%rax, %rdi	# tmp112,
	call	_ZNKSt6vectorI10lgDlgParamSaIS0_EE5beginEv	#
	movq	%rax, %rdx	#, D.165772
	movq	-48(%rbp), %rbx	# __xlen, tmp113
	movq	-56(%rbp), %rax	# this, tmp114
	movq	%r12, %rcx	# D.165773,
	movq	%rbx, %rsi	# tmp113,
	movq	%rax, %rdi	# tmp114,
	call	_ZNSt6vectorI10lgDlgParamSaIS0_EE20_M_allocate_and_copyIN9__gnu_cxx17__normal_iteratorIPKS0_S2_EEEEPS0_mT_SA_	#
	movq	%rax, -40(%rbp)	# __tmp.2094, __tmp
	movq	-56(%rbp), %rax	# this, D.165899
	movq	%rax, %rdi	# D.165899,
	call	_ZNSt12_Vector_baseI10lgDlgParamSaIS0_EE19_M_get_Tp_allocatorEv	#
	movq	%rax, %rdx	#, D.165900
	movq	-56(%rbp), %rax	# this, tmp115
	movq	8(%rax), %rcx	# <variable>.D.35735._M_impl._M_finish, D.165901
	movq	-56(%rbp), %rax	# this, tmp116
	movq	(%rax), %rax	# <variable>.D.35735._M_impl._M_start, D.165902
	movq	%rcx, %rsi	# D.165901,
	movq	%rax, %rdi	# D.165902,
	call	_ZSt8_DestroyIP10lgDlgParamS0_EvT_S2_RSaIT0_E	#
	movq	-56(%rbp), %rax	# this, tmp117
	movq	16(%rax), %rax	# <variable>.D.35735._M_impl._M_end_of_storage, D.165903
	movq	%rax, %rdx	# D.165903, D.165904
	movq	-56(%rbp), %rax	# this, tmp118
	movq	(%rax), %rax	# <variable>.D.35735._M_impl._M_start, D.165905
	movq	%rdx, %rcx	# D.165904,
	subq	%rax, %rcx	# D.165906,
	movq	%rcx, %rax	#, D.165907
	movq	%rax, %rdx	# D.165907, tmp119
	sarq	$3, %rdx	#, tmp119
	movabsq	$-3689348814741910323, %rax	#, tmp121
	imulq	%rdx, %rax	# tmp119, tmp120
	movq	%rax, %rdx	# D.165908, D.165909
	movq	-56(%rbp), %rax	# this, tmp122
	movq	(%rax), %rcx	# <variable>.D.35735._M_impl._M_start, D.165910
	movq	-56(%rbp), %rax	# this, D.165911
	movq	%rcx, %rsi	# D.165910,
	movq	%rax, %rdi	# D.165911,
	call	_ZNSt12_Vector_baseI10lgDlgParamSaIS0_EE13_M_deallocateEPS0_m	#
	movq	-56(%rbp), %rax	# this, tmp123
	movq	-40(%rbp), %rdx	# __tmp, tmp124
	movq	%rdx, (%rax)	# tmp124, <variable>.D.35735._M_impl._M_start
	movq	-56(%rbp), %rax	# this, tmp125
	movq	(%rax), %rcx	# <variable>.D.35735._M_impl._M_start, D.165912
	movq	-48(%rbp), %rdx	# __xlen, tmp126
	movq	%rdx, %rax	# tmp126, tmp127
	salq	$2, %rax	#, tmp127
	addq	%rdx, %rax	# tmp126, tmp127
	salq	$3, %rax	#, tmp128
	leaq	(%rcx,%rax), %rdx	#, D.165914
	movq	-56(%rbp), %rax	# this, tmp129
	movq	%rdx, 16(%rax)	# D.165914, <variable>.D.35735._M_impl._M_end_of_storage
	jmp	.L743	#
.L742:
	movq	-56(%rbp), %rax	# this, tmp130
	movq	%rax, %rdi	# tmp130,
	call	_ZNKSt6vectorI10lgDlgParamSaIS0_EE4sizeEv	#
	cmpq	-48(%rbp), %rax	# __xlen, D.165917
	setae	%al	#, retval.2095
	testb	%al, %al	# retval.2095
	je	.L744	#,
	movq	-56(%rbp), %rax	# this, D.165920
	movq	%rax, %rdi	# D.165920,
	call	_ZNSt12_Vector_baseI10lgDlgParamSaIS0_EE19_M_get_Tp_allocatorEv	#
	movq	%rax, %r12	#, D.165921
	movq	-56(%rbp), %rax	# this, tmp131
	movq	%rax, %rdi	# tmp131,
	call	_ZNSt6vectorI10lgDlgParamSaIS0_EE3endEv	#
	movq	%rax, %rbx	#, D.165868
	movq	-56(%rbp), %rax	# this, tmp132
	movq	%rax, %rdi	# tmp132,
	call	_ZNSt6vectorI10lgDlgParamSaIS0_EE5beginEv	#
	movq	%rax, %r14	#, D.165862
	movq	-64(%rbp), %rax	# __x, tmp133
	movq	%rax, %rdi	# tmp133,
	call	_ZNKSt6vectorI10lgDlgParamSaIS0_EE3endEv	#
	movq	%rax, %r13	#, D.165780
	movq	-64(%rbp), %rax	# __x, tmp134
	movq	%rax, %rdi	# tmp134,
	call	_ZNKSt6vectorI10lgDlgParamSaIS0_EE5beginEv	#
	movq	%r14, %rdx	# D.165862,
	movq	%r13, %rsi	# D.165780,
	movq	%rax, %rdi	# D.165779,
	call	_ZSt4copyIN9__gnu_cxx17__normal_iteratorIPK10lgDlgParamSt6vectorIS2_SaIS2_EEEENS1_IPS2_S7_EEET0_T_SC_SB_	#
	movq	%r12, %rdx	# D.165921,
	movq	%rbx, %rsi	# D.165868,
	movq	%rax, %rdi	# D.165867,
	call	_ZSt8_DestroyIN9__gnu_cxx17__normal_iteratorIP10lgDlgParamSt6vectorIS2_SaIS2_EEEES2_EvT_S8_RSaIT0_E	#
	jmp	.L743	#
.L744:
	movq	-56(%rbp), %rax	# this, tmp135
	movq	(%rax), %rbx	# <variable>.D.35735._M_impl._M_start, D.165923
	movq	-64(%rbp), %rax	# __x, tmp136
	movq	(%rax), %r12	# <variable>.D.35735._M_impl._M_start, D.165924
	movq	-56(%rbp), %rax	# this, tmp137
	movq	%rax, %rdi	# tmp137,
	call	_ZNKSt6vectorI10lgDlgParamSaIS0_EE4sizeEv	#
	movq	%rax, %rdx	#, D.165925
	movq	%rdx, %rax	# D.165925, tmp138
	salq	$2, %rax	#, tmp138
	addq	%rdx, %rax	# D.165925, tmp138
	salq	$3, %rax	#, tmp139
	leaq	(%r12,%rax), %rcx	#, D.165927
	movq	-64(%rbp), %rax	# __x, tmp140
	movq	(%rax), %rax	# <variable>.D.35735._M_impl._M_start, D.165928
	movq	%rbx, %rdx	# D.165923,
	movq	%rcx, %rsi	# D.165927,
	movq	%rax, %rdi	# D.165928,
	call	_ZSt4copyIP10lgDlgParamS1_ET0_T_S3_S2_	#
	movq	-56(%rbp), %rax	# this, D.165929
	movq	%rax, %rdi	# D.165929,
	call	_ZNSt12_Vector_baseI10lgDlgParamSaIS0_EE19_M_get_Tp_allocatorEv	#
	movq	%rax, %r13	#, D.165930
	movq	-56(%rbp), %rax	# this, tmp141
	movq	8(%rax), %r12	# <variable>.D.35735._M_impl._M_finish, D.165931
	movq	-64(%rbp), %rax	# __x, tmp142
	movq	8(%rax), %rbx	# <variable>.D.35735._M_impl._M_finish, D.165932
	movq	-64(%rbp), %rax	# __x, tmp143
	movq	(%rax), %r14	# <variable>.D.35735._M_impl._M_start, D.165933
	movq	-56(%rbp), %rax	# this, tmp144
	movq	%rax, %rdi	# tmp144,
	call	_ZNKSt6vectorI10lgDlgParamSaIS0_EE4sizeEv	#
	movq	%rax, %rdx	#, D.165934
	movq	%rdx, %rax	# D.165934, tmp145
	salq	$2, %rax	#, tmp145
	addq	%rdx, %rax	# D.165934, tmp145
	salq	$3, %rax	#, tmp146
	leaq	(%r14,%rax), %rax	#, D.165936
	movq	%r13, %rcx	# D.165930,
	movq	%r12, %rdx	# D.165931,
	movq	%rbx, %rsi	# D.165932,
	movq	%rax, %rdi	# D.165936,
	call	_ZSt22__uninitialized_copy_aIP10lgDlgParamS1_S0_ET0_T_S3_S2_RSaIT1_E	#
.L743:
	movq	-56(%rbp), %rax	# this, tmp147
	movq	(%rax), %rcx	# <variable>.D.35735._M_impl._M_start, D.165937
	movq	-48(%rbp), %rdx	# __xlen, tmp148
	movq	%rdx, %rax	# tmp148, tmp149
	salq	$2, %rax	#, tmp149
	addq	%rdx, %rax	# tmp148, tmp149
	salq	$3, %rax	#, tmp150
	leaq	(%rcx,%rax), %rdx	#, D.165939
	movq	-56(%rbp), %rax	# this, tmp151
	movq	%rdx, 8(%rax)	# D.165939, <variable>.D.35735._M_impl._M_finish
.L741:
	movq	-56(%rbp), %rax	# this, D.165941
	addq	$32, %rsp	#,
	popq	%rbx	#
	popq	%r12	#
	popq	%r13	#
	popq	%r14	#
	leave
	ret
	.cfi_endproc
.LFE11382:
	.size	_ZNSt6vectorI10lgDlgParamSaIS0_EEaSERKS2_, .-_ZNSt6vectorI10lgDlgParamSaIS0_EEaSERKS2_
	.section	.text._ZNSt3mapISsSsSt4lessISsESaISt4pairIKSsSsEEEaSERKS6_,"axG",@progbits,_ZNSt3mapISsSsSt4lessISsESaISt4pairIKSsSsEEEaSERKS6_,comdat
	.align 2
	.weak	_ZNSt3mapISsSsSt4lessISsESaISt4pairIKSsSsEEEaSERKS6_
	.type	_ZNSt3mapISsSsSt4lessISsESaISt4pairIKSsSsEEEaSERKS6_, @function
_ZNSt3mapISsSsSt4lessISsESaISt4pairIKSsSsEEEaSERKS6_:
.LFB11383:
	.cfi_startproc
	.cfi_personality 0x3,__gxx_personality_v0
	pushq	%rbp	#
	.cfi_def_cfa_offset 16
	movq	%rsp, %rbp	#,
	.cfi_offset 6, -16
	.cfi_def_cfa_register 6
	subq	$16, %rsp	#,
	movq	%rdi, -8(%rbp)	# this, this
	movq	%rsi, -16(%rbp)	# __x, __x
	movq	-16(%rbp), %rdx	# __x, D.165945
	movq	-8(%rbp), %rax	# this, D.165946
	movq	%rdx, %rsi	# D.165945,
	movq	%rax, %rdi	# D.165946,
	call	_ZNSt8_Rb_treeISsSt4pairIKSsSsESt10_Select1stIS2_ESt4lessISsESaIS2_EEaSERKS8_	#
	movq	-8(%rbp), %rax	# this, D.165947
	leave
	ret
	.cfi_endproc
.LFE11383:
	.size	_ZNSt3mapISsSsSt4lessISsESaISt4pairIKSsSsEEEaSERKS6_, .-_ZNSt3mapISsSsSt4lessISsESaISt4pairIKSsSsEEEaSERKS6_
	.section	.text._ZNSt3mapISsSsSt4lessISsESaISt4pairIKSsSsEEE4findERS3_,"axG",@progbits,_ZNSt3mapISsSsSt4lessISsESaISt4pairIKSsSsEEE4findERS3_,comdat
	.align 2
	.weak	_ZNSt3mapISsSsSt4lessISsESaISt4pairIKSsSsEEE4findERS3_
	.type	_ZNSt3mapISsSsSt4lessISsESaISt4pairIKSsSsEEE4findERS3_, @function
_ZNSt3mapISsSsSt4lessISsESaISt4pairIKSsSsEEE4findERS3_:
.LFB11384:
	.cfi_startproc
	.cfi_personality 0x3,__gxx_personality_v0
	pushq	%rbp	#
	.cfi_def_cfa_offset 16
	movq	%rsp, %rbp	#,
	.cfi_offset 6, -16
	.cfi_def_cfa_register 6
	subq	$16, %rsp	#,
	movq	%rdi, -8(%rbp)	# this, this
	movq	%rsi, -16(%rbp)	# __x, __x
	movq	-8(%rbp), %rax	# this, D.165953
	movq	-16(%rbp), %rdx	# __x, tmp61
	movq	%rdx, %rsi	# tmp61,
	movq	%rax, %rdi	# D.165953,
	call	_ZNSt8_Rb_treeISsSt4pairIKSsSsESt10_Select1stIS2_ESt4lessISsESaIS2_EE4findERS1_	#
	leave
	ret
	.cfi_endproc
.LFE11384:
	.size	_ZNSt3mapISsSsSt4lessISsESaISt4pairIKSsSsEEE4findERS3_, .-_ZNSt3mapISsSsSt4lessISsESaISt4pairIKSsSsEEE4findERS3_
	.section	.text._ZNSt3mapISsSsSt4lessISsESaISt4pairIKSsSsEEE3endEv,"axG",@progbits,_ZNSt3mapISsSsSt4lessISsESaISt4pairIKSsSsEEE3endEv,comdat
	.align 2
	.weak	_ZNSt3mapISsSsSt4lessISsESaISt4pairIKSsSsEEE3endEv
	.type	_ZNSt3mapISsSsSt4lessISsESaISt4pairIKSsSsEEE3endEv, @function
_ZNSt3mapISsSsSt4lessISsESaISt4pairIKSsSsEEE3endEv:
.LFB11385:
	.cfi_startproc
	.cfi_personality 0x3,__gxx_personality_v0
	pushq	%rbp	#
	.cfi_def_cfa_offset 16
	movq	%rsp, %rbp	#,
	.cfi_offset 6, -16
	.cfi_def_cfa_register 6
	subq	$16, %rsp	#,
	movq	%rdi, -8(%rbp)	# this, this
	movq	-8(%rbp), %rax	# this, D.165958
	movq	%rax, %rdi	# D.165958,
	call	_ZNSt8_Rb_treeISsSt4pairIKSsSsESt10_Select1stIS2_ESt4lessISsESaIS2_EE3endEv	#
	leave
	ret
	.cfi_endproc
.LFE11385:
	.size	_ZNSt3mapISsSsSt4lessISsESaISt4pairIKSsSsEEE3endEv, .-_ZNSt3mapISsSsSt4lessISsESaISt4pairIKSsSsEEE3endEv
	.section	.text._ZNKSt17_Rb_tree_iteratorISt4pairIKSsSsEEeqERKS3_,"axG",@progbits,_ZNKSt17_Rb_tree_iteratorISt4pairIKSsSsEEeqERKS3_,comdat
	.align 2
	.weak	_ZNKSt17_Rb_tree_iteratorISt4pairIKSsSsEEeqERKS3_
	.type	_ZNKSt17_Rb_tree_iteratorISt4pairIKSsSsEEeqERKS3_, @function
_ZNKSt17_Rb_tree_iteratorISt4pairIKSsSsEEeqERKS3_:
.LFB11386:
	.cfi_startproc
	.cfi_personality 0x3,__gxx_personality_v0
	pushq	%rbp	#
	.cfi_def_cfa_offset 16
	movq	%rsp, %rbp	#,
	.cfi_offset 6, -16
	.cfi_def_cfa_register 6
	movq	%rdi, -8(%rbp)	# this, this
	movq	%rsi, -16(%rbp)	# __x, __x
	movq	-8(%rbp), %rax	# this, tmp62
	movq	(%rax), %rdx	# <variable>._M_node, D.165963
	movq	-16(%rbp), %rax	# __x, tmp63
	movq	(%rax), %rax	# <variable>._M_node, D.165964
	cmpq	%rax, %rdx	# D.165964, D.165963
	sete	%al	#, D.165962
	leave
	ret
	.cfi_endproc
.LFE11386:
	.size	_ZNKSt17_Rb_tree_iteratorISt4pairIKSsSsEEeqERKS3_, .-_ZNKSt17_Rb_tree_iteratorISt4pairIKSsSsEEeqERKS3_
	.section	.text._ZNKSt17_Rb_tree_iteratorISt4pairIKSsSsEEptEv,"axG",@progbits,_ZNKSt17_Rb_tree_iteratorISt4pairIKSsSsEEptEv,comdat
	.align 2
	.weak	_ZNKSt17_Rb_tree_iteratorISt4pairIKSsSsEEptEv
	.type	_ZNKSt17_Rb_tree_iteratorISt4pairIKSsSsEEptEv, @function
_ZNKSt17_Rb_tree_iteratorISt4pairIKSsSsEEptEv:
.LFB11387:
	.cfi_startproc
	.cfi_personality 0x3,__gxx_personality_v0
	pushq	%rbp	#
	.cfi_def_cfa_offset 16
	movq	%rsp, %rbp	#,
	.cfi_offset 6, -16
	.cfi_def_cfa_register 6
	movq	%rdi, -8(%rbp)	# this, this
	movq	-8(%rbp), %rax	# this, tmp62
	movq	(%rax), %rax	# <variable>._M_node, D.165974
	addq	$32, %rax	#, D.165973
	leave
	ret
	.cfi_endproc
.LFE11387:
	.size	_ZNKSt17_Rb_tree_iteratorISt4pairIKSsSsEEptEv, .-_ZNKSt17_Rb_tree_iteratorISt4pairIKSsSsEEptEv
	.section	.text._ZNSt3mapISs11LibraryGateSt4lessISsESaISt4pairIKSsS0_EEE4findERS4_,"axG",@progbits,_ZNSt3mapISs11LibraryGateSt4lessISsESaISt4pairIKSsS0_EEE4findERS4_,comdat
	.align 2
	.weak	_ZNSt3mapISs11LibraryGateSt4lessISsESaISt4pairIKSsS0_EEE4findERS4_
	.type	_ZNSt3mapISs11LibraryGateSt4lessISsESaISt4pairIKSsS0_EEE4findERS4_, @function
_ZNSt3mapISs11LibraryGateSt4lessISsESaISt4pairIKSsS0_EEE4findERS4_:
.LFB11388:
	.cfi_startproc
	.cfi_personality 0x3,__gxx_personality_v0
	pushq	%rbp	#
	.cfi_def_cfa_offset 16
	movq	%rsp, %rbp	#,
	.cfi_offset 6, -16
	.cfi_def_cfa_register 6
	subq	$16, %rsp	#,
	movq	%rdi, -8(%rbp)	# this, this
	movq	%rsi, -16(%rbp)	# __x, __x
	movq	-8(%rbp), %rax	# this, D.165981
	movq	-16(%rbp), %rdx	# __x, tmp61
	movq	%rdx, %rsi	# tmp61,
	movq	%rax, %rdi	# D.165981,
	call	_ZNSt8_Rb_treeISsSt4pairIKSs11LibraryGateESt10_Select1stIS3_ESt4lessISsESaIS3_EE4findERS1_	#
	leave
	ret
	.cfi_endproc
.LFE11388:
	.size	_ZNSt3mapISs11LibraryGateSt4lessISsESaISt4pairIKSsS0_EEE4findERS4_, .-_ZNSt3mapISs11LibraryGateSt4lessISsESaISt4pairIKSsS0_EEE4findERS4_
	.section	.text._ZNSt3mapISs11LibraryGateSt4lessISsESaISt4pairIKSsS0_EEE3endEv,"axG",@progbits,_ZNSt3mapISs11LibraryGateSt4lessISsESaISt4pairIKSsS0_EEE3endEv,comdat
	.align 2
	.weak	_ZNSt3mapISs11LibraryGateSt4lessISsESaISt4pairIKSsS0_EEE3endEv
	.type	_ZNSt3mapISs11LibraryGateSt4lessISsESaISt4pairIKSsS0_EEE3endEv, @function
_ZNSt3mapISs11LibraryGateSt4lessISsESaISt4pairIKSsS0_EEE3endEv:
.LFB11389:
	.cfi_startproc
	.cfi_personality 0x3,__gxx_personality_v0
	pushq	%rbp	#
	.cfi_def_cfa_offset 16
	movq	%rsp, %rbp	#,
	.cfi_offset 6, -16
	.cfi_def_cfa_register 6
	subq	$16, %rsp	#,
