	.file	"MainFrame.cpp"
# GNU C++ (Gentoo 4.4.6-r1 p1.0, pie-0.4.5) version 4.4.6 (x86_64-pc-linux-gnu)
#	compiled by GNU C version 4.4.6, GMP version 5.0.2, MPFR version 3.0.1-p4.
# GGC heuristics: --param ggc-min-expand=100 --param ggc-min-heapsize=131072
# переданы ключи: 
# -I/usr/lib64/wx/include/gtk2-unicode-release-2.8 -I/usr/include/wx-2.8
# -I/usr/include/boost -I../tinyxml2 -I/usr/include/gtk-2.0
# -I/usr/lib64/gtk-2.0/include -I/usr/include/pango-1.0
# -I/usr/include/gdk-pixbuf-2.0 -I/usr/include/glib-2.0
# -I/usr/lib64/glib-2.0/include -I/usr/include/cairo
# -I/usr/include/pixman-1 -I/usr/include/freetype2 -I/usr/include/libpng15
# -I/usr/include/libdrm -D_GNU_SOURCE -D_REENTRANT -D_FILE_OFFSET_BITS=64
# -D_LARGE_FILES -D__WXGTK__ MainFrame.cpp -D_FORTIFY_SOURCE=2
# -mtune=generic -fverbose-asm
# активные ключи:  -falign-loops -fargument-alias
# -fasynchronous-unwind-tables -fauto-inc-dec -fbranch-count-reg -fcommon
# -fdwarf2-cfi-asm -fearly-inlining -feliminate-unused-debug-types
# -fexceptions -ffunction-cse -fgcse-lm -fident
# -finline-functions-called-once -fira-share-save-slots
# -fira-share-spill-slots -fivopts -fkeep-static-consts
# -fleading-underscore -fmath-errno -fmerge-debug-strings
# -fmove-loop-invariants -fpeephole -freg-struct-return -fsched-interblock
# -fsched-spec -fsched-stalled-insns-dep -fsigned-zeros
# -fsplit-ivs-in-unroller -ftrapping-math -ftree-cselim -ftree-loop-im
# -ftree-loop-ivcanon -ftree-loop-optimize -ftree-parallelize-loops=
# -ftree-reassoc -ftree-scev-cprop -ftree-switch-conversion
# -ftree-vect-loop-version -funit-at-a-time -funwind-tables
# -fvect-cost-model -fverbose-asm -fzero-initialized-in-bss
# -m128bit-long-double -m64 -m80387 -maccumulate-outgoing-args
# -malign-stringops -mfancy-math-387 -mfp-ret-in-387 -mfused-madd -mglibc
# -mieee-fp -mmmx -mno-sse4 -mpush-args -mred-zone -msse -msse2
# -mtls-direct-seg-refs

# Compiler executable checksum: 363aafb4cd300d5b1f3bf0986a19fd91

	.section	.text._ZN12wxCharBufferD1Ev,"axG",@progbits,_ZN12wxCharBufferD1Ev,comdat
	.align 2
	.weak	_ZN12wxCharBufferD1Ev
	.type	_ZN12wxCharBufferD1Ev, @function
_ZN12wxCharBufferD1Ev:
.LFB19:
	.cfi_startproc
	.cfi_personality 0x3,__gxx_personality_v0
	pushq	%rbp	#
	.cfi_def_cfa_offset 16
	movq	%rsp, %rbp	#,
	.cfi_offset 6, -16
	.cfi_def_cfa_register 6
	subq	$16, %rsp	#,
	movq	%rdi, -8(%rbp)	# this, this
	movq	-8(%rbp), %rax	# this, tmp59
	movq	(%rax), %rax	# <variable>.m_str, D.5080
	movq	%rax, %rdi	# D.5080,
	call	free	#
	leave
	ret
	.cfi_endproc
.LFE19:
	.size	_ZN12wxCharBufferD1Ev, .-_ZN12wxCharBufferD1Ev
	.section	.text._ZNK12wxCharBuffercvPKcEv,"axG",@progbits,_ZNK12wxCharBuffercvPKcEv,comdat
	.align 2
	.weak	_ZNK12wxCharBuffercvPKcEv
	.type	_ZNK12wxCharBuffercvPKcEv, @function
_ZNK12wxCharBuffercvPKcEv:
.LFB30:
	.cfi_startproc
	.cfi_personality 0x3,__gxx_personality_v0
	pushq	%rbp	#
	.cfi_def_cfa_offset 16
	movq	%rsp, %rbp	#,
	.cfi_offset 6, -16
	.cfi_def_cfa_register 6
	movq	%rdi, -8(%rbp)	# this, this
	movq	-8(%rbp), %rax	# this, tmp60
	movq	(%rax), %rax	# <variable>.m_str, D.5118
	leave
	ret
	.cfi_endproc
.LFE30:
	.size	_ZNK12wxCharBuffercvPKcEv, .-_ZNK12wxCharBuffercvPKcEv
	.section	.text._ZnwmPv,"axG",@progbits,_ZnwmPv,comdat
	.weak	_ZnwmPv
	.type	_ZnwmPv, @function
_ZnwmPv:
.LFB378:
	.cfi_startproc
	.cfi_personality 0x3,__gxx_personality_v0
	pushq	%rbp	#
	.cfi_def_cfa_offset 16
	movq	%rsp, %rbp	#,
	.cfi_offset 6, -16
	.cfi_def_cfa_register 6
	movq	%rdi, -8(%rbp)	# D.9473, D.9473
	movq	%rsi, -16(%rbp)	# __p, __p
	movq	-16(%rbp), %rax	# __p, D.9477
	leave
	ret
	.cfi_endproc
.LFE378:
	.size	_ZnwmPv, .-_ZnwmPv
	.section	.text._ZdlPvS_,"axG",@progbits,_ZdlPvS_,comdat
	.weak	_ZdlPvS_
	.type	_ZdlPvS_, @function
_ZdlPvS_:
.LFB380:
	.cfi_startproc
	.cfi_personality 0x3,__gxx_personality_v0
	pushq	%rbp	#
	.cfi_def_cfa_offset 16
	movq	%rsp, %rbp	#,
	.cfi_offset 6, -16
	.cfi_def_cfa_register 6
	movq	%rdi, -8(%rbp)	# D.9483, D.9483
	movq	%rsi, -16(%rbp)	# D.9484, D.9484
	leave
	ret
	.cfi_endproc
.LFE380:
	.size	_ZdlPvS_, .-_ZdlPvS_
	.section	.text._ZNK12wxStringData7IsEmptyEv,"axG",@progbits,_ZNK12wxStringData7IsEmptyEv,comdat
	.align 2
	.weak	_ZNK12wxStringData7IsEmptyEv
	.type	_ZNK12wxStringData7IsEmptyEv, @function
_ZNK12wxStringData7IsEmptyEv:
.LFB711:
	.cfi_startproc
	.cfi_personality 0x3,__gxx_personality_v0
	pushq	%rbp	#
	.cfi_def_cfa_offset 16
	movq	%rsp, %rbp	#,
	.cfi_offset 6, -16
	.cfi_def_cfa_register 6
	movq	%rdi, -8(%rbp)	# this, this
	movq	-8(%rbp), %rax	# this, tmp61
	movl	(%rax), %eax	# <variable>.nRefs, D.16359
	cmpl	$-1, %eax	#, D.16359
	sete	%al	#, D.16358
	leave
	ret
	.cfi_endproc
.LFE711:
	.size	_ZNK12wxStringData7IsEmptyEv, .-_ZNK12wxStringData7IsEmptyEv
	.section	.text._ZN12wxStringData4LockEv,"axG",@progbits,_ZN12wxStringData4LockEv,comdat
	.align 2
	.weak	_ZN12wxStringData4LockEv
	.type	_ZN12wxStringData4LockEv, @function
_ZN12wxStringData4LockEv:
.LFB713:
	.cfi_startproc
	.cfi_personality 0x3,__gxx_personality_v0
	pushq	%rbp	#
	.cfi_def_cfa_offset 16
	movq	%rsp, %rbp	#,
	.cfi_offset 6, -16
	.cfi_def_cfa_register 6
	subq	$16, %rsp	#,
	movq	%rdi, -8(%rbp)	# this, this
	movq	-8(%rbp), %rax	# this, tmp62
	movq	%rax, %rdi	# tmp62,
	call	_ZNK12wxStringData7IsEmptyEv	#
	xorl	$1, %eax	#, retval.50
	testb	%al, %al	# retval.50
	je	.L14	#,
	movq	-8(%rbp), %rax	# this, tmp63
	movl	(%rax), %eax	# <variable>.nRefs, D.16368
	leal	1(%rax), %edx	#, D.16369
	movq	-8(%rbp), %rax	# this, tmp64
	movl	%edx, (%rax)	# D.16369, <variable>.nRefs
.L14:
	leave
	ret
	.cfi_endproc
.LFE713:
	.size	_ZN12wxStringData4LockEv, .-_ZN12wxStringData4LockEv
	.section	.text._ZN12wxStringData6UnlockEv,"axG",@progbits,_ZN12wxStringData6UnlockEv,comdat
	.align 2
	.weak	_ZN12wxStringData6UnlockEv
	.type	_ZN12wxStringData6UnlockEv, @function
_ZN12wxStringData6UnlockEv:
.LFB714:
	.cfi_startproc
	.cfi_personality 0x3,__gxx_personality_v0
	pushq	%rbp	#
	.cfi_def_cfa_offset 16
	movq	%rsp, %rbp	#,
	.cfi_offset 6, -16
	.cfi_def_cfa_register 6
	subq	$16, %rsp	#,
	movq	%rdi, -8(%rbp)	# this, this
	movq	-8(%rbp), %rax	# this, tmp65
	movq	%rax, %rdi	# tmp65,
	call	_ZNK12wxStringData7IsEmptyEv	#
	xorl	$1, %eax	#, D.16377
	testb	%al, %al	# D.16377
	je	.L16	#,
	movq	-8(%rbp), %rax	# this, tmp66
	movl	(%rax), %eax	# <variable>.nRefs, D.16379
	leal	-1(%rax), %edx	#, D.16380
	movq	-8(%rbp), %rax	# this, tmp67
	movl	%edx, (%rax)	# D.16380, <variable>.nRefs
	movq	-8(%rbp), %rax	# this, tmp68
	movl	(%rax), %eax	# <variable>.nRefs, D.16381
	testl	%eax, %eax	# D.16381
	jne	.L16	#,
	movl	$1, %eax	#, iftmp.52
	jmp	.L17	#
.L16:
	movl	$0, %eax	#, iftmp.52
.L17:
	testb	%al, %al	# retval.51
	je	.L19	#,
	movq	-8(%rbp), %rax	# this, tmp69
	movq	%rax, %rdi	# tmp69,
	call	free	#
.L19:
	leave
	ret
	.cfi_endproc
.LFE714:
	.size	_ZN12wxStringData6UnlockEv, .-_ZN12wxStringData6UnlockEv
	.section	.text._ZNK12wxStringBase13GetStringDataEv,"axG",@progbits,_ZNK12wxStringBase13GetStringDataEv,comdat
	.align 2
	.weak	_ZNK12wxStringBase13GetStringDataEv
	.type	_ZNK12wxStringBase13GetStringDataEv, @function
_ZNK12wxStringBase13GetStringDataEv:
.LFB717:
	.cfi_startproc
	.cfi_personality 0x3,__gxx_personality_v0
	pushq	%rbp	#
	.cfi_def_cfa_offset 16
	movq	%rsp, %rbp	#,
	.cfi_offset 6, -16
	.cfi_def_cfa_register 6
	movq	%rdi, -8(%rbp)	# this, this
	movq	-8(%rbp), %rax	# this, tmp62
	movq	(%rax), %rax	# <variable>.m_pchData, D.16983
	subq	$24, %rax	#, D.16982
	leave
	ret
	.cfi_endproc
.LFE717:
	.size	_ZNK12wxStringBase13GetStringDataEv, .-_ZNK12wxStringBase13GetStringDataEv
	.section	.text._ZN12wxStringBase4InitEv,"axG",@progbits,_ZN12wxStringBase4InitEv,comdat
	.align 2
	.weak	_ZN12wxStringBase4InitEv
	.type	_ZN12wxStringBase4InitEv, @function
_ZN12wxStringBase4InitEv:
.LFB718:
	.cfi_startproc
	.cfi_personality 0x3,__gxx_personality_v0
	pushq	%rbp	#
	.cfi_def_cfa_offset 16
	movq	%rsp, %rbp	#,
	.cfi_offset 6, -16
	.cfi_def_cfa_register 6
	movq	%rdi, -8(%rbp)	# this, this
	movq	wxEmptyString(%rip), %rdx	# wxEmptyString, wxEmptyString.54
	movq	-8(%rbp), %rax	# this, tmp59
	movq	%rdx, (%rax)	# wxEmptyString.54, <variable>.m_pchData
	leave
	ret
	.cfi_endproc
.LFE718:
	.size	_ZN12wxStringBase4InitEv, .-_ZN12wxStringBase4InitEv
	.section	.text._ZN12wxStringBaseC2Ev,"axG",@progbits,_ZN12wxStringBaseC2Ev,comdat
	.align 2
	.weak	_ZN12wxStringBaseC2Ev
	.type	_ZN12wxStringBaseC2Ev, @function
_ZN12wxStringBaseC2Ev:
.LFB750:
	.cfi_startproc
	.cfi_personality 0x3,__gxx_personality_v0
	pushq	%rbp	#
	.cfi_def_cfa_offset 16
	movq	%rsp, %rbp	#,
	.cfi_offset 6, -16
	.cfi_def_cfa_register 6
	subq	$16, %rsp	#,
	movq	%rdi, -8(%rbp)	# this, this
	movq	-8(%rbp), %rax	# this, tmp58
	movq	%rax, %rdi	# tmp58,
	call	_ZN12wxStringBase4InitEv	#
	leave
	ret
	.cfi_endproc
.LFE750:
	.size	_ZN12wxStringBaseC2Ev, .-_ZN12wxStringBaseC2Ev
	.section	.text._ZN12wxStringBaseC2ERKS_,"axG",@progbits,_ZN12wxStringBaseC2ERKS_,comdat
	.align 2
	.weak	_ZN12wxStringBaseC2ERKS_
	.type	_ZN12wxStringBaseC2ERKS_, @function
_ZN12wxStringBaseC2ERKS_:
.LFB753:
	.cfi_startproc
	.cfi_personality 0x3,__gxx_personality_v0
	pushq	%rbp	#
	.cfi_def_cfa_offset 16
	movq	%rsp, %rbp	#,
	.cfi_offset 6, -16
	.cfi_def_cfa_register 6
	subq	$16, %rsp	#,
	movq	%rdi, -8(%rbp)	# this, this
	movq	%rsi, -16(%rbp)	# stringSrc, stringSrc
	movq	-16(%rbp), %rax	# stringSrc, tmp62
	movq	%rax, %rdi	# tmp62,
	call	_ZNK12wxStringBase5emptyEv	#
	testb	%al, %al	# retval.59
	je	.L27	#,
	movq	-8(%rbp), %rax	# this, tmp63
	movq	%rax, %rdi	# tmp63,
	call	_ZN12wxStringBase4InitEv	#
	jmp	.L29	#
.L27:
	movq	-16(%rbp), %rax	# stringSrc, tmp64
	movq	(%rax), %rdx	# <variable>.m_pchData, D.17101
	movq	-8(%rbp), %rax	# this, tmp65
	movq	%rdx, (%rax)	# D.17101, <variable>.m_pchData
	movq	-8(%rbp), %rax	# this, tmp66
	movq	%rax, %rdi	# tmp66,
	call	_ZNK12wxStringBase13GetStringDataEv	#
	movq	%rax, %rdi	# D.17102,
	call	_ZN12wxStringData4LockEv	#
.L29:
	leave
	ret
	.cfi_endproc
.LFE753:
	.size	_ZN12wxStringBaseC2ERKS_, .-_ZN12wxStringBaseC2ERKS_
	.section	.text._ZN12wxStringBaseC2EPKw,"axG",@progbits,_ZN12wxStringBaseC2EPKw,comdat
	.align 2
	.weak	_ZN12wxStringBaseC2EPKw
	.type	_ZN12wxStringBaseC2EPKw, @function
_ZN12wxStringBaseC2EPKw:
.LFB756:
	.cfi_startproc
	.cfi_personality 0x3,__gxx_personality_v0
	pushq	%rbp	#
	.cfi_def_cfa_offset 16
	movq	%rsp, %rbp	#,
	.cfi_offset 6, -16
	.cfi_def_cfa_register 6
	pushq	%rbx	#
	subq	$24, %rsp	#,
	movq	%rdi, -24(%rbp)	# this, this
	movq	%rsi, -32(%rbp)	# psz, psz
	movq	_ZN12wxStringBase4nposE(%rip), %rdx	# npos, npos.60
	movq	-32(%rbp), %rbx	# psz, tmp59
	.cfi_offset 3, -24
	movq	-24(%rbp), %rax	# this, tmp60
	movq	%rdx, %rcx	# npos.60,
	movl	$0, %edx	#,
	movq	%rbx, %rsi	# tmp59,
	movq	%rax, %rdi	# tmp60,
	call	_ZN12wxStringBase8InitWithEPKwmm	#
	addq	$24, %rsp	#,
	popq	%rbx	#
	leave
	ret
	.cfi_endproc
.LFE756:
	.size	_ZN12wxStringBaseC2EPKw, .-_ZN12wxStringBaseC2EPKw
	.section	.text._ZN12wxStringBaseD2Ev,"axG",@progbits,_ZN12wxStringBaseD2Ev,comdat
	.align 2
	.weak	_ZN12wxStringBaseD2Ev
	.type	_ZN12wxStringBaseD2Ev, @function
_ZN12wxStringBaseD2Ev:
.LFB768:
	.cfi_startproc
	.cfi_personality 0x3,__gxx_personality_v0
	pushq	%rbp	#
	.cfi_def_cfa_offset 16
	movq	%rsp, %rbp	#,
	.cfi_offset 6, -16
	.cfi_def_cfa_register 6
	subq	$16, %rsp	#,
	movq	%rdi, -8(%rbp)	# this, this
	movq	-8(%rbp), %rax	# this, tmp59
	movq	%rax, %rdi	# tmp59,
	call	_ZNK12wxStringBase13GetStringDataEv	#
	movq	%rax, %rdi	# D.17152,
	call	_ZN12wxStringData6UnlockEv	#
	leave
	ret
	.cfi_endproc
.LFE768:
	.size	_ZN12wxStringBaseD2Ev, .-_ZN12wxStringBaseD2Ev
	.section	.text._ZNK12wxStringBase6lengthEv,"axG",@progbits,_ZNK12wxStringBase6lengthEv,comdat
	.align 2
	.weak	_ZNK12wxStringBase6lengthEv
	.type	_ZNK12wxStringBase6lengthEv, @function
_ZNK12wxStringBase6lengthEv:
.LFB770:
	.cfi_startproc
	.cfi_personality 0x3,__gxx_personality_v0
	pushq	%rbp	#
	.cfi_def_cfa_offset 16
	movq	%rsp, %rbp	#,
	.cfi_offset 6, -16
	.cfi_def_cfa_register 6
	subq	$16, %rsp	#,
	movq	%rdi, -8(%rbp)	# this, this
	movq	-8(%rbp), %rax	# this, tmp61
	movq	%rax, %rdi	# tmp61,
	call	_ZNK12wxStringBase13GetStringDataEv	#
	movq	8(%rax), %rax	# <variable>.nDataLength, D.17159
	leave
	ret
	.cfi_endproc
.LFE770:
	.size	_ZNK12wxStringBase6lengthEv, .-_ZNK12wxStringBase6lengthEv
	.section	.text._ZNK12wxStringBase4sizeEv,"axG",@progbits,_ZNK12wxStringBase4sizeEv,comdat
	.align 2
	.weak	_ZNK12wxStringBase4sizeEv
	.type	_ZNK12wxStringBase4sizeEv, @function
_ZNK12wxStringBase4sizeEv:
.LFB771:
	.cfi_startproc
	.cfi_personality 0x3,__gxx_personality_v0
	pushq	%rbp	#
	.cfi_def_cfa_offset 16
	movq	%rsp, %rbp	#,
	.cfi_offset 6, -16
	.cfi_def_cfa_register 6
	subq	$16, %rsp	#,
	movq	%rdi, -8(%rbp)	# this, this
	movq	-8(%rbp), %rax	# this, tmp61
	movq	%rax, %rdi	# tmp61,
	call	_ZNK12wxStringBase6lengthEv	#
	leave
	ret
	.cfi_endproc
.LFE771:
	.size	_ZNK12wxStringBase4sizeEv, .-_ZNK12wxStringBase4sizeEv
	.section	.text._ZNK12wxStringBase5emptyEv,"axG",@progbits,_ZNK12wxStringBase5emptyEv,comdat
	.align 2
	.weak	_ZNK12wxStringBase5emptyEv
	.type	_ZNK12wxStringBase5emptyEv, @function
_ZNK12wxStringBase5emptyEv:
.LFB774:
	.cfi_startproc
	.cfi_personality 0x3,__gxx_personality_v0
	pushq	%rbp	#
	.cfi_def_cfa_offset 16
	movq	%rsp, %rbp	#,
	.cfi_offset 6, -16
	.cfi_def_cfa_register 6
	subq	$16, %rsp	#,
	movq	%rdi, -8(%rbp)	# this, this
	movq	-8(%rbp), %rax	# this, tmp61
	movq	%rax, %rdi	# tmp61,
	call	_ZNK12wxStringBase6lengthEv	#
	testq	%rax, %rax	# D.17170
	sete	%al	#, D.17169
	leave
	ret
	.cfi_endproc
.LFE774:
	.size	_ZNK12wxStringBase5emptyEv, .-_ZNK12wxStringBase5emptyEv
	.section	.text._ZNK12wxStringBase5c_strEv,"axG",@progbits,_ZNK12wxStringBase5c_strEv,comdat
	.align 2
	.weak	_ZNK12wxStringBase5c_strEv
	.type	_ZNK12wxStringBase5c_strEv, @function
_ZNK12wxStringBase5c_strEv:
.LFB803:
	.cfi_startproc
	.cfi_personality 0x3,__gxx_personality_v0
	pushq	%rbp	#
	.cfi_def_cfa_offset 16
	movq	%rsp, %rbp	#,
	.cfi_offset 6, -16
	.cfi_def_cfa_register 6
	movq	%rdi, -8(%rbp)	# this, this
	movq	-8(%rbp), %rax	# this, tmp60
	movq	(%rax), %rax	# <variable>.m_pchData, D.17319
	leave
	ret
	.cfi_endproc
.LFE803:
	.size	_ZNK12wxStringBase5c_strEv, .-_ZNK12wxStringBase5c_strEv
	.section	.text._ZN8wxStringC1Ev,"axG",@progbits,_ZN8wxStringC1Ev,comdat
	.align 2
	.weak	_ZN8wxStringC1Ev
	.type	_ZN8wxStringC1Ev, @function
_ZN8wxStringC1Ev:
.LFB822:
	.cfi_startproc
	.cfi_personality 0x3,__gxx_personality_v0
	pushq	%rbp	#
	.cfi_def_cfa_offset 16
	movq	%rsp, %rbp	#,
	.cfi_offset 6, -16
	.cfi_def_cfa_register 6
	subq	$16, %rsp	#,
	movq	%rdi, -8(%rbp)	# this, this
	movq	-8(%rbp), %rax	# this, D.18127
	movq	%rax, %rdi	# D.18127,
	call	_ZN12wxStringBaseC2Ev	#
	leave
	ret
	.cfi_endproc
.LFE822:
	.size	_ZN8wxStringC1Ev, .-_ZN8wxStringC1Ev
	.section	.text._ZN8wxStringC1ERKS_,"axG",@progbits,_ZN8wxStringC1ERKS_,comdat
	.align 2
	.weak	_ZN8wxStringC1ERKS_
	.type	_ZN8wxStringC1ERKS_, @function
_ZN8wxStringC1ERKS_:
.LFB828:
	.cfi_startproc
	.cfi_personality 0x3,__gxx_personality_v0
	pushq	%rbp	#
	.cfi_def_cfa_offset 16
	movq	%rsp, %rbp	#,
	.cfi_offset 6, -16
	.cfi_def_cfa_register 6
	subq	$16, %rsp	#,
	movq	%rdi, -8(%rbp)	# this, this
	movq	%rsi, -16(%rbp)	# stringSrc, stringSrc
	movq	-16(%rbp), %rdx	# stringSrc, D.18147
	movq	-8(%rbp), %rax	# this, D.18148
	movq	%rdx, %rsi	# D.18147,
	movq	%rax, %rdi	# D.18148,
	call	_ZN12wxStringBaseC2ERKS_	#
	leave
	ret
	.cfi_endproc
.LFE828:
	.size	_ZN8wxStringC1ERKS_, .-_ZN8wxStringC1ERKS_
	.section	.rodata
	.align 4
.LC0:
	.string	""
	.string	""
	.string	""
	.string	""
	.section	.text._ZN8wxStringC1EPKw,"axG",@progbits,_ZN8wxStringC1EPKw,comdat
	.align 2
	.weak	_ZN8wxStringC1EPKw
	.type	_ZN8wxStringC1EPKw, @function
_ZN8wxStringC1EPKw:
.LFB837:
	.cfi_startproc
	.cfi_personality 0x3,__gxx_personality_v0
	pushq	%rbp	#
	.cfi_def_cfa_offset 16
	movq	%rsp, %rbp	#,
	.cfi_offset 6, -16
	.cfi_def_cfa_register 6
	subq	$16, %rsp	#,
	movq	%rdi, -8(%rbp)	# this, this
	movq	%rsi, -16(%rbp)	# psz, psz
	cmpq	$0, -16(%rbp)	#, psz
	je	.L48	#,
	movq	-16(%rbp), %rax	# psz, iftmp.96
	jmp	.L49	#
.L48:
	movl	$.LC0, %eax	#, iftmp.96
.L49:
	movq	-8(%rbp), %rdx	# this, D.18187
	movq	%rax, %rsi	# iftmp.96,
	movq	%rdx, %rdi	# D.18187,
	call	_ZN12wxStringBaseC2EPKw	#
	leave
	ret
	.cfi_endproc
.LFE837:
	.size	_ZN8wxStringC1EPKw, .-_ZN8wxStringC1EPKw
	.section	.text._ZNK8wxString3LenEv,"axG",@progbits,_ZNK8wxString3LenEv,comdat
	.align 2
	.weak	_ZNK8wxString3LenEv
	.type	_ZNK8wxString3LenEv, @function
_ZNK8wxString3LenEv:
.LFB850:
	.cfi_startproc
	.cfi_personality 0x3,__gxx_personality_v0
	pushq	%rbp	#
	.cfi_def_cfa_offset 16
	movq	%rsp, %rbp	#,
	.cfi_offset 6, -16
	.cfi_def_cfa_register 6
	subq	$16, %rsp	#,
	movq	%rdi, -8(%rbp)	# this, this
	movq	-8(%rbp), %rax	# this, D.18251
	movq	%rax, %rdi	# D.18251,
	call	_ZNK12wxStringBase6lengthEv	#
	leave
	ret
	.cfi_endproc
.LFE850:
	.size	_ZNK8wxString3LenEv, .-_ZNK8wxString3LenEv
	.section	.text._ZN8wxStringD1Ev,"axG",@progbits,_ZN8wxStringD1Ev,comdat
	.align 2
	.weak	_ZN8wxStringD1Ev
	.type	_ZN8wxStringD1Ev, @function
_ZN8wxStringD1Ev:
.LFB857:
	.cfi_startproc
	.cfi_personality 0x3,__gxx_personality_v0
	pushq	%rbp	#
	.cfi_def_cfa_offset 16
	movq	%rsp, %rbp	#,
	.cfi_offset 6, -16
	.cfi_def_cfa_register 6
	subq	$16, %rsp	#,
	movq	%rdi, -8(%rbp)	# this, this
	movq	-8(%rbp), %rax	# this, this.104
	movq	%rax, %rdi	# this.104,
	call	_ZN12wxStringBaseD2Ev	#
	leave
	ret
	.cfi_endproc
.LFE857:
	.size	_ZN8wxStringD1Ev, .-_ZN8wxStringD1Ev
	.section	.text._ZNK8wxStringcvPKwEv,"axG",@progbits,_ZNK8wxStringcvPKwEv,comdat
	.align 2
	.weak	_ZNK8wxStringcvPKwEv
	.type	_ZNK8wxStringcvPKwEv, @function
_ZNK8wxStringcvPKwEv:
.LFB866:
	.cfi_startproc
	.cfi_personality 0x3,__gxx_personality_v0
	pushq	%rbp	#
	.cfi_def_cfa_offset 16
	movq	%rsp, %rbp	#,
	.cfi_offset 6, -16
	.cfi_def_cfa_register 6
	subq	$16, %rsp	#,
	movq	%rdi, -8(%rbp)	# this, this
	movq	-8(%rbp), %rax	# this, D.18327
	movq	%rax, %rdi	# D.18327,
	call	_ZNK12wxStringBase5c_strEv	#
	leave
	ret
	.cfi_endproc
.LFE866:
	.size	_ZNK8wxStringcvPKwEv, .-_ZNK8wxStringcvPKwEv
	.section	.text._ZN8wxString8FromUTF8EPKc,"axG",@progbits,_ZN8wxString8FromUTF8EPKc,comdat
	.weak	_ZN8wxString8FromUTF8EPKc
	.type	_ZN8wxString8FromUTF8EPKc, @function
_ZN8wxString8FromUTF8EPKc:
.LFB883:
	.cfi_startproc
	.cfi_personality 0x3,__gxx_personality_v0
	pushq	%rbp	#
	.cfi_def_cfa_offset 16
	movq	%rsp, %rbp	#,
	.cfi_offset 6, -16
	.cfi_def_cfa_register 6
	pushq	%rbx	#
	subq	$24, %rsp	#,
	movq	%rdi, %rbx	# D.246137, <result>
	.cfi_offset 3, -24
	movq	%rsi, -24(%rbp)	# utf8, utf8
	movq	%rbx, %rax	# <result>, D.18433
	movq	_ZN12wxStringBase4nposE(%rip), %rcx	# npos, npos.111
	movq	wxConvUTF8(%rip), %rdx	# wxConvUTF8, wxConvUTF8.112
	movq	-24(%rbp), %rsi	# utf8, tmp63
	movq	%rax, %rdi	# D.18433,
	call	_ZN8wxStringC1EPKcRK8wxMBConvm	#
	movq	%rbx, %rax	# <result>,
	movq	%rbx, %rax	# <result>,
	addq	$24, %rsp	#,
	popq	%rbx	#
	leave
	ret
	.cfi_endproc
.LFE883:
	.size	_ZN8wxString8FromUTF8EPKc, .-_ZN8wxString8FromUTF8EPKc
	.section	.text._ZNK8wxString8utf8_strEv,"axG",@progbits,_ZNK8wxString8utf8_strEv,comdat
	.align 2
	.weak	_ZNK8wxString8utf8_strEv
	.type	_ZNK8wxString8utf8_strEv, @function
_ZNK8wxString8utf8_strEv:
.LFB885:
	.cfi_startproc
	.cfi_personality 0x3,__gxx_personality_v0
	pushq	%rbp	#
	.cfi_def_cfa_offset 16
	movq	%rsp, %rbp	#,
	.cfi_offset 6, -16
	.cfi_def_cfa_register 6
	pushq	%rbx	#
	subq	$24, %rsp	#,
	movq	%rdi, %rbx	# D.246138, <result>
	.cfi_offset 3, -24
	movq	%rsi, -24(%rbp)	# this, this
	movq	%rbx, %rax	# <result>, D.18446
	movq	wxConvUTF8(%rip), %rdx	# wxConvUTF8, wxConvUTF8.114
	movq	-24(%rbp), %rcx	# this, tmp62
	movq	%rcx, %rsi	# tmp62,
	movq	%rax, %rdi	# D.18446,
	call	_ZNK8wxString6mb_strERK8wxMBConv	#
	movq	%rbx, %rax	# <result>,
	movq	%rbx, %rax	# <result>,
	addq	$24, %rsp	#,
	popq	%rbx	#
	leave
	ret
	.cfi_endproc
.LFE885:
	.size	_ZNK8wxString8utf8_strEv, .-_ZNK8wxString8utf8_strEv
	.section	.text._ZN8wxStringaSERKS_,"axG",@progbits,_ZN8wxStringaSERKS_,comdat
	.align 2
	.weak	_ZN8wxStringaSERKS_
	.type	_ZN8wxStringaSERKS_, @function
_ZN8wxStringaSERKS_:
.LFB904:
	.cfi_startproc
	.cfi_personality 0x3,__gxx_personality_v0
	pushq	%rbp	#
	.cfi_def_cfa_offset 16
	movq	%rsp, %rbp	#,
	.cfi_offset 6, -16
	.cfi_def_cfa_register 6
	subq	$16, %rsp	#,
	movq	%rdi, -8(%rbp)	# this, this
	movq	%rsi, -16(%rbp)	# D.18504, D.18504
	movq	-16(%rbp), %rdx	# D.18504, D.18521
	movq	-8(%rbp), %rax	# this, D.18522
	movq	%rdx, %rsi	# D.18521,
	movq	%rax, %rdi	# D.18522,
	call	_ZN12wxStringBaseaSERKS_	#
	movq	-8(%rbp), %rax	# this, D.18523
	leave
	ret
	.cfi_endproc
.LFE904:
	.size	_ZN8wxStringaSERKS_, .-_ZN8wxStringaSERKS_
	.section	.text._ZeqRK8wxStringS1_,"axG",@progbits,_ZeqRK8wxStringS1_,comdat
	.weak	_ZeqRK8wxStringS1_
	.type	_ZeqRK8wxStringS1_, @function
_ZeqRK8wxStringS1_:
.LFB997:
	.cfi_startproc
	.cfi_personality 0x3,__gxx_personality_v0
	pushq	%rbp	#
	.cfi_def_cfa_offset 16
	movq	%rsp, %rbp	#,
	.cfi_offset 6, -16
	.cfi_def_cfa_register 6
	pushq	%rbx	#
	subq	$24, %rsp	#,
	movq	%rdi, -24(%rbp)	# s1, s1
	movq	%rsi, -32(%rbp)	# s2, s2
	movq	-24(%rbp), %rax	# s1, tmp64
	movq	%rax, %rdi	# tmp64,
	.cfi_offset 3, -24
	call	_ZNK8wxString3LenEv	#
	movq	%rax, %rbx	#, D.19017
	movq	-32(%rbp), %rax	# s2, tmp65
	movq	%rax, %rdi	# tmp65,
	call	_ZNK8wxString3LenEv	#
	cmpq	%rax, %rbx	# D.19018, D.19017
	jne	.L65	#,
	movq	-32(%rbp), %rdx	# s2, tmp66
	movq	-24(%rbp), %rax	# s1, tmp67
	movq	%rdx, %rsi	# tmp66,
	movq	%rax, %rdi	# tmp67,
	call	_ZNK8wxString3CmpERKS_	#
	testl	%eax, %eax	# D.19020
	jne	.L65	#,
	movl	$1, %eax	#, iftmp.131
	jmp	.L66	#
.L65:
	movl	$0, %eax	#, iftmp.131
.L66:
	addq	$24, %rsp	#,
	popq	%rbx	#
	leave
	ret
	.cfi_endproc
.LFE997:
	.size	_ZeqRK8wxStringS1_, .-_ZeqRK8wxStringS1_
	.section	.text._ZN8wxObjectC2Ev,"axG",@progbits,_ZN8wxObjectC2Ev,comdat
	.align 2
	.weak	_ZN8wxObjectC2Ev
	.type	_ZN8wxObjectC2Ev, @function
_ZN8wxObjectC2Ev:
.LFB1071:
	.cfi_startproc
	.cfi_personality 0x3,__gxx_personality_v0
	pushq	%rbp	#
	.cfi_def_cfa_offset 16
	movq	%rsp, %rbp	#,
	.cfi_offset 6, -16
	.cfi_def_cfa_register 6
	movq	%rdi, -8(%rbp)	# this, this
	movq	-8(%rbp), %rax	# this, tmp58
	movq	$_ZTV8wxObject+16, (%rax)	#, <variable>._vptr.wxObject
	movq	-8(%rbp), %rax	# this, tmp59
	movq	$0, 8(%rax)	#, <variable>.m_refData
	leave
	ret
	.cfi_endproc
.LFE1071:
	.size	_ZN8wxObjectC2Ev, .-_ZN8wxObjectC2Ev
	.section	.text._ZN8wxObjectD2Ev,"axG",@progbits,_ZN8wxObjectD2Ev,comdat
	.align 2
	.weak	_ZN8wxObjectD2Ev
	.type	_ZN8wxObjectD2Ev, @function
_ZN8wxObjectD2Ev:
.LFB1074:
	.cfi_startproc
	.cfi_personality 0x3,__gxx_personality_v0
	pushq	%rbp	#
	.cfi_def_cfa_offset 16
	movq	%rsp, %rbp	#,
	.cfi_offset 6, -16
	.cfi_def_cfa_register 6
	subq	$16, %rsp	#,
	movq	%rdi, -8(%rbp)	# this, this
	movq	-8(%rbp), %rax	# this, tmp60
	movq	$_ZTV8wxObject+16, (%rax)	#, <variable>._vptr.wxObject
	movq	-8(%rbp), %rax	# this, tmp61
	movq	%rax, %rdi	# tmp61,
	call	_ZN8wxObject5UnRefEv	#
	movl	$0, %eax	#, D.19760
	testb	%al, %al	# D.19761
	je	.L73	#,
	movq	-8(%rbp), %rax	# this, tmp62
	movq	%rax, %rdi	# tmp62,
	call	_ZdlPv	#
.L73:
	leave
	ret
	.cfi_endproc
.LFE1074:
	.size	_ZN8wxObjectD2Ev, .-_ZN8wxObjectD2Ev
	.section	.text._ZN8wxObjectaSERKS_,"axG",@progbits,_ZN8wxObjectaSERKS_,comdat
	.align 2
	.weak	_ZN8wxObjectaSERKS_
	.type	_ZN8wxObjectaSERKS_, @function
_ZN8wxObjectaSERKS_:
.LFB1080:
	.cfi_startproc
	.cfi_personality 0x3,__gxx_personality_v0
	pushq	%rbp	#
	.cfi_def_cfa_offset 16
	movq	%rsp, %rbp	#,
	.cfi_offset 6, -16
	.cfi_def_cfa_register 6
	subq	$16, %rsp	#,
	movq	%rdi, -8(%rbp)	# this, this
	movq	%rsi, -16(%rbp)	# other, other
	movq	-8(%rbp), %rax	# this, tmp60
	cmpq	-16(%rbp), %rax	# other, tmp60
	je	.L75	#,
	movq	-16(%rbp), %rdx	# other, tmp61
	movq	-8(%rbp), %rax	# this, tmp62
	movq	%rdx, %rsi	# tmp61,
	movq	%rax, %rdi	# tmp62,
	call	_ZN8wxObject3RefERKS_	#
.L75:
	movq	-8(%rbp), %rax	# this, D.19812
	leave
	ret
	.cfi_endproc
.LFE1080:
	.size	_ZN8wxObjectaSERKS_, .-_ZN8wxObjectaSERKS_
.globl _Unwind_Resume
	.section	.text._ZN10wxListBaseC2E9wxKeyType,"axG",@progbits,_ZN10wxListBaseC2E9wxKeyType,comdat
	.align 2
	.weak	_ZN10wxListBaseC2E9wxKeyType
	.type	_ZN10wxListBaseC2E9wxKeyType, @function
_ZN10wxListBaseC2E9wxKeyType:
.LFB1718:
	.cfi_startproc
	.cfi_personality 0x3,__gxx_personality_v0
	.cfi_lsda 0x3,.LLSDA1718
	pushq	%rbp	#
	.cfi_def_cfa_offset 16
	movq	%rsp, %rbp	#,
	.cfi_offset 6, -16
	.cfi_def_cfa_register 6
	pushq	%r12	#
	pushq	%rbx	#
	subq	$16, %rsp	#,
	movq	%rdi, -24(%rbp)	# this, this
	movl	%esi, -28(%rbp)	# keyType, keyType
	movq	-24(%rbp), %rax	# this, D.25154
	movq	%rax, %rdi	# D.25154,
	.cfi_offset 3, -32
	.cfi_offset 12, -24
	call	_ZN8wxObjectC2Ev	#
	movq	-24(%rbp), %rax	# this, tmp62
	movq	$_ZTV10wxListBase+16, (%rax)	#, <variable>.D.25141._vptr.wxObject
	movl	-28(%rbp), %edx	# keyType, tmp63
	movq	-24(%rbp), %rax	# this, tmp64
	movl	%edx, %esi	# tmp63,
	movq	%rax, %rdi	# tmp64,
.LEHB0:
	call	_ZN10wxListBase4InitE9wxKeyType	#
.LEHE0:
	jmp	.L82	#
.L81:
.L79:
	movl	%edx, %ebx	# tmp65, save_filt.3984
	movq	%rax, %r12	# tmp66, save_eptr.3983
	movq	-24(%rbp), %rax	# this, this.229
	movq	%rax, %rdi	# this.229,
	call	_ZN8wxObjectD2Ev	#
	movq	%r12, %rax	# save_eptr.3983, tmp66
	movslq	%ebx,%rdx	# save_filt.3984, tmp65
	movq	%rax, %rdi	# tmp66,
.LEHB1:
	call	_Unwind_Resume	#
.LEHE1:
.L82:
	addq	$16, %rsp	#,
	popq	%rbx	#
	popq	%r12	#
	leave
	ret
	.cfi_endproc
.LFE1718:
	.size	_ZN10wxListBaseC2E9wxKeyType, .-_ZN10wxListBaseC2E9wxKeyType
.globl __gxx_personality_v0
	.section	.gcc_except_table,"a",@progbits
.LLSDA1718:
	.byte	0xff
	.byte	0xff
	.byte	0x1
	.uleb128 .LLSDACSE1718-.LLSDACSB1718
.LLSDACSB1718:
	.uleb128 .LEHB0-.LFB1718
	.uleb128 .LEHE0-.LEHB0
	.uleb128 .L81-.LFB1718
	.uleb128 0x0
	.uleb128 .LEHB1-.LFB1718
	.uleb128 .LEHE1-.LEHB1
	.uleb128 0x0
	.uleb128 0x0
.LLSDACSE1718:
	.section	.text._ZN10wxListBaseC2E9wxKeyType,"axG",@progbits,_ZN10wxListBaseC2E9wxKeyType,comdat
	.section	.text._ZNK10wxListBase8GetCountEv,"axG",@progbits,_ZNK10wxListBase8GetCountEv,comdat
	.align 2
	.weak	_ZNK10wxListBase8GetCountEv
	.type	_ZNK10wxListBase8GetCountEv, @function
_ZNK10wxListBase8GetCountEv:
.LFB1720:
	.cfi_startproc
	.cfi_personality 0x3,__gxx_personality_v0
	pushq	%rbp	#
	.cfi_def_cfa_offset 16
	movq	%rsp, %rbp	#,
	.cfi_offset 6, -16
	.cfi_def_cfa_register 6
	movq	%rdi, -8(%rbp)	# this, this
	movq	-8(%rbp), %rax	# this, tmp60
	movq	16(%rax), %rax	# <variable>.m_count, D.25160
	leave
	ret
	.cfi_endproc
.LFE1720:
	.size	_ZNK10wxListBase8GetCountEv, .-_ZNK10wxListBase8GetCountEv
	.section	.text._ZN6wxSizeC1Ev,"axG",@progbits,_ZN6wxSizeC1Ev,comdat
	.align 2
	.weak	_ZN6wxSizeC1Ev
	.type	_ZN6wxSizeC1Ev, @function
_ZN6wxSizeC1Ev:
.LFB2671:
	.cfi_startproc
	.cfi_personality 0x3,__gxx_personality_v0
	pushq	%rbp	#
	.cfi_def_cfa_offset 16
	movq	%rsp, %rbp	#,
	.cfi_offset 6, -16
	.cfi_def_cfa_register 6
	movq	%rdi, -8(%rbp)	# this, this
	movq	-8(%rbp), %rax	# this, tmp58
	movl	$0, (%rax)	#, <variable>.x
	movq	-8(%rbp), %rax	# this, tmp59
	movl	$0, 4(%rax)	#, <variable>.y
	leave
	ret
	.cfi_endproc
.LFE2671:
	.size	_ZN6wxSizeC1Ev, .-_ZN6wxSizeC1Ev
	.section	.text._ZN6wxSizeC1Eii,"axG",@progbits,_ZN6wxSizeC1Eii,comdat
	.align 2
	.weak	_ZN6wxSizeC1Eii
	.type	_ZN6wxSizeC1Eii, @function
_ZN6wxSizeC1Eii:
.LFB2674:
	.cfi_startproc
	.cfi_personality 0x3,__gxx_personality_v0
	pushq	%rbp	#
	.cfi_def_cfa_offset 16
	movq	%rsp, %rbp	#,
	.cfi_offset 6, -16
	.cfi_def_cfa_register 6
	movq	%rdi, -8(%rbp)	# this, this
	movl	%esi, -12(%rbp)	# xx, xx
	movl	%edx, -16(%rbp)	# yy, yy
	movq	-8(%rbp), %rax	# this, tmp58
	movl	-12(%rbp), %edx	# xx, tmp59
	movl	%edx, (%rax)	# tmp59, <variable>.x
	movq	-8(%rbp), %rax	# this, tmp60
	movl	-16(%rbp), %edx	# yy, tmp61
	movl	%edx, 4(%rax)	# tmp61, <variable>.y
	leave
	ret
	.cfi_endproc
.LFE2674:
	.size	_ZN6wxSizeC1Eii, .-_ZN6wxSizeC1Eii
	.section	.text._ZNK6wxSize8GetWidthEv,"axG",@progbits,_ZNK6wxSize8GetWidthEv,comdat
	.align 2
	.weak	_ZNK6wxSize8GetWidthEv
	.type	_ZNK6wxSize8GetWidthEv, @function
_ZNK6wxSize8GetWidthEv:
.LFB2697:
	.cfi_startproc
	.cfi_personality 0x3,__gxx_personality_v0
	pushq	%rbp	#
	.cfi_def_cfa_offset 16
	movq	%rsp, %rbp	#,
	.cfi_offset 6, -16
	.cfi_def_cfa_register 6
	movq	%rdi, -8(%rbp)	# this, this
	movq	-8(%rbp), %rax	# this, tmp60
	movl	(%rax), %eax	# <variable>.x, D.36104
	leave
	ret
	.cfi_endproc
.LFE2697:
	.size	_ZNK6wxSize8GetWidthEv, .-_ZNK6wxSize8GetWidthEv
	.section	.text._ZNK6wxSize9GetHeightEv,"axG",@progbits,_ZNK6wxSize9GetHeightEv,comdat
	.align 2
	.weak	_ZNK6wxSize9GetHeightEv
	.type	_ZNK6wxSize9GetHeightEv, @function
_ZNK6wxSize9GetHeightEv:
.LFB2698:
	.cfi_startproc
	.cfi_personality 0x3,__gxx_personality_v0
	pushq	%rbp	#
	.cfi_def_cfa_offset 16
	movq	%rsp, %rbp	#,
	.cfi_offset 6, -16
	.cfi_def_cfa_register 6
	movq	%rdi, -8(%rbp)	# this, this
	movq	-8(%rbp), %rax	# this, tmp60
	movl	4(%rax), %eax	# <variable>.y, D.36106
	leave
	ret
	.cfi_endproc
.LFE2698:
	.size	_ZNK6wxSize9GetHeightEv, .-_ZNK6wxSize9GetHeightEv
	.section	.text._ZNK6wxSize16IsFullySpecifiedEv,"axG",@progbits,_ZNK6wxSize16IsFullySpecifiedEv,comdat
	.align 2
	.weak	_ZNK6wxSize16IsFullySpecifiedEv
	.type	_ZNK6wxSize16IsFullySpecifiedEv, @function
_ZNK6wxSize16IsFullySpecifiedEv:
.LFB2699:
	.cfi_startproc
	.cfi_personality 0x3,__gxx_personality_v0
	pushq	%rbp	#
	.cfi_def_cfa_offset 16
	movq	%rsp, %rbp	#,
	.cfi_offset 6, -16
	.cfi_def_cfa_register 6
	movq	%rdi, -8(%rbp)	# this, this
	movq	-8(%rbp), %rax	# this, tmp63
	movl	(%rax), %eax	# <variable>.x, D.36112
	cmpl	$-1, %eax	#, D.36112
	je	.L94	#,
	movq	-8(%rbp), %rax	# this, tmp64
	movl	4(%rax), %eax	# <variable>.y, D.36114
	cmpl	$-1, %eax	#, D.36114
	je	.L94	#,
	movl	$1, %eax	#, iftmp.448
	jmp	.L95	#
.L94:
	movl	$0, %eax	#, iftmp.448
.L95:
	leave
	ret
	.cfi_endproc
.LFE2699:
	.size	_ZNK6wxSize16IsFullySpecifiedEv, .-_ZNK6wxSize16IsFullySpecifiedEv
	.section	.text._ZN7wxPointC1Ev,"axG",@progbits,_ZN7wxPointC1Ev,comdat
	.align 2
	.weak	_ZN7wxPointC1Ev
	.type	_ZN7wxPointC1Ev, @function
_ZN7wxPointC1Ev:
.LFB2715:
	.cfi_startproc
	.cfi_personality 0x3,__gxx_personality_v0
	pushq	%rbp	#
	.cfi_def_cfa_offset 16
	movq	%rsp, %rbp	#,
	.cfi_offset 6, -16
	.cfi_def_cfa_register 6
	movq	%rdi, -8(%rbp)	# this, this
	movq	-8(%rbp), %rax	# this, tmp58
	movl	$0, (%rax)	#, <variable>.x
	movq	-8(%rbp), %rax	# this, tmp59
	movl	$0, 4(%rax)	#, <variable>.y
	leave
	ret
	.cfi_endproc
.LFE2715:
	.size	_ZN7wxPointC1Ev, .-_ZN7wxPointC1Ev
	.section	.text._ZN7wxPointC1Eii,"axG",@progbits,_ZN7wxPointC1Eii,comdat
	.align 2
	.weak	_ZN7wxPointC1Eii
	.type	_ZN7wxPointC1Eii, @function
_ZN7wxPointC1Eii:
.LFB2718:
	.cfi_startproc
	.cfi_personality 0x3,__gxx_personality_v0
	pushq	%rbp	#
	.cfi_def_cfa_offset 16
	movq	%rsp, %rbp	#,
	.cfi_offset 6, -16
	.cfi_def_cfa_register 6
	movq	%rdi, -8(%rbp)	# this, this
	movl	%esi, -12(%rbp)	# xx, xx
	movl	%edx, -16(%rbp)	# yy, yy
	movq	-8(%rbp), %rax	# this, tmp58
	movl	-12(%rbp), %edx	# xx, tmp59
	movl	%edx, (%rax)	# tmp59, <variable>.x
	movq	-8(%rbp), %rax	# this, tmp60
	movl	-16(%rbp), %edx	# yy, tmp61
	movl	%edx, 4(%rax)	# tmp61, <variable>.y
	leave
	ret
	.cfi_endproc
.LFE2718:
	.size	_ZN7wxPointC1Eii, .-_ZN7wxPointC1Eii
	.section	.text._ZN6wxRectC1Ev,"axG",@progbits,_ZN6wxRectC1Ev,comdat
	.align 2
	.weak	_ZN6wxRectC1Ev
	.type	_ZN6wxRectC1Ev, @function
_ZN6wxRectC1Ev:
.LFB2732:
	.cfi_startproc
	.cfi_personality 0x3,__gxx_personality_v0
	pushq	%rbp	#
	.cfi_def_cfa_offset 16
	movq	%rsp, %rbp	#,
	.cfi_offset 6, -16
	.cfi_def_cfa_register 6
	movq	%rdi, -8(%rbp)	# this, this
	movq	-8(%rbp), %rax	# this, tmp58
	movl	$0, (%rax)	#, <variable>.x
	movq	-8(%rbp), %rax	# this, tmp59
	movl	$0, 4(%rax)	#, <variable>.y
	movq	-8(%rbp), %rax	# this, tmp60
	movl	$0, 8(%rax)	#, <variable>.width
	movq	-8(%rbp), %rax	# this, tmp61
	movl	$0, 12(%rax)	#, <variable>.height
	leave
	ret
	.cfi_endproc
.LFE2732:
	.size	_ZN6wxRectC1Ev, .-_ZN6wxRectC1Ev
	.section	.text._ZN16wxLongLongNativeC1Ev,"axG",@progbits,_ZN16wxLongLongNativeC1Ev,comdat
	.align 2
	.weak	_ZN16wxLongLongNativeC1Ev
	.type	_ZN16wxLongLongNativeC1Ev, @function
_ZN16wxLongLongNativeC1Ev:
.LFB2924:
	.cfi_startproc
	.cfi_personality 0x3,__gxx_personality_v0
	pushq	%rbp	#
	.cfi_def_cfa_offset 16
	movq	%rsp, %rbp	#,
	.cfi_offset 6, -16
	.cfi_def_cfa_register 6
	movq	%rdi, -8(%rbp)	# this, this
	movq	-8(%rbp), %rax	# this, tmp58
	movq	$0, (%rax)	#, <variable>.m_ll
	leave
	ret
	.cfi_endproc
.LFE2924:
	.size	_ZN16wxLongLongNativeC1Ev, .-_ZN16wxLongLongNativeC1Ev
	.section	.text._ZN17wxCriticalSection5EnterEv,"axG",@progbits,_ZN17wxCriticalSection5EnterEv,comdat
	.align 2
	.weak	_ZN17wxCriticalSection5EnterEv
	.type	_ZN17wxCriticalSection5EnterEv, @function
_ZN17wxCriticalSection5EnterEv:
.LFB3187:
	.cfi_startproc
	.cfi_personality 0x3,__gxx_personality_v0
	pushq	%rbp	#
	.cfi_def_cfa_offset 16
	movq	%rsp, %rbp	#,
	.cfi_offset 6, -16
	.cfi_def_cfa_register 6
	subq	$16, %rsp	#,
	movq	%rdi, -8(%rbp)	# this, this
	movq	-8(%rbp), %rax	# this, D.41229
	movq	%rax, %rdi	# D.41229,
	call	_ZN7wxMutex4LockEv	#
	leave
	ret
	.cfi_endproc
.LFE3187:
	.size	_ZN17wxCriticalSection5EnterEv, .-_ZN17wxCriticalSection5EnterEv
	.section	.text._ZN17wxCriticalSection5LeaveEv,"axG",@progbits,_ZN17wxCriticalSection5LeaveEv,comdat
	.align 2
	.weak	_ZN17wxCriticalSection5LeaveEv
	.type	_ZN17wxCriticalSection5LeaveEv, @function
_ZN17wxCriticalSection5LeaveEv:
.LFB3188:
	.cfi_startproc
	.cfi_personality 0x3,__gxx_personality_v0
	pushq	%rbp	#
	.cfi_def_cfa_offset 16
	movq	%rsp, %rbp	#,
	.cfi_offset 6, -16
	.cfi_def_cfa_register 6
	subq	$16, %rsp	#,
	movq	%rdi, -8(%rbp)	# this, this
	movq	-8(%rbp), %rax	# this, D.41233
	movq	%rax, %rdi	# D.41233,
	call	_ZN7wxMutex6UnlockEv	#
	leave
	ret
	.cfi_endproc
.LFE3188:
	.size	_ZN17wxCriticalSection5LeaveEv, .-_ZN17wxCriticalSection5LeaveEv
	.section	.text._ZN23wxCriticalSectionLockerC1ER17wxCriticalSection,"axG",@progbits,_ZN23wxCriticalSectionLockerC1ER17wxCriticalSection,comdat
	.align 2
	.weak	_ZN23wxCriticalSectionLockerC1ER17wxCriticalSection
	.type	_ZN23wxCriticalSectionLockerC1ER17wxCriticalSection, @function
_ZN23wxCriticalSectionLockerC1ER17wxCriticalSection:
.LFB3191:
	.cfi_startproc
	.cfi_personality 0x3,__gxx_personality_v0
	pushq	%rbp	#
	.cfi_def_cfa_offset 16
	movq	%rsp, %rbp	#,
	.cfi_offset 6, -16
	.cfi_def_cfa_register 6
	subq	$16, %rsp	#,
	movq	%rdi, -8(%rbp)	# this, this
	movq	%rsi, -16(%rbp)	# cs, cs
	movq	-8(%rbp), %rax	# this, tmp59
	movq	-16(%rbp), %rdx	# cs, tmp60
	movq	%rdx, (%rax)	# tmp60, <variable>.m_critsect
	movq	-8(%rbp), %rax	# this, tmp61
	movq	(%rax), %rax	# <variable>.m_critsect, D.41273
	movq	%rax, %rdi	# D.41273,
	call	_ZN17wxCriticalSection5EnterEv	#
	leave
	ret
	.cfi_endproc
.LFE3191:
	.size	_ZN23wxCriticalSectionLockerC1ER17wxCriticalSection, .-_ZN23wxCriticalSectionLockerC1ER17wxCriticalSection
	.section	.text._ZN23wxCriticalSectionLockerD1Ev,"axG",@progbits,_ZN23wxCriticalSectionLockerD1Ev,comdat
	.align 2
	.weak	_ZN23wxCriticalSectionLockerD1Ev
	.type	_ZN23wxCriticalSectionLockerD1Ev, @function
_ZN23wxCriticalSectionLockerD1Ev:
.LFB3194:
	.cfi_startproc
	.cfi_personality 0x3,__gxx_personality_v0
	pushq	%rbp	#
	.cfi_def_cfa_offset 16
	movq	%rsp, %rbp	#,
	.cfi_offset 6, -16
	.cfi_def_cfa_register 6
	subq	$16, %rsp	#,
	movq	%rdi, -8(%rbp)	# this, this
	movq	-8(%rbp), %rax	# this, tmp59
	movq	(%rax), %rax	# <variable>.m_critsect, D.41283
	movq	%rax, %rdi	# D.41283,
	call	_ZN17wxCriticalSection5LeaveEv	#
	leave
	ret
	.cfi_endproc
.LFE3194:
	.size	_ZN23wxCriticalSectionLockerD1Ev, .-_ZN23wxCriticalSectionLockerD1Ev
	.section	.text._ZN8wxThread6OnExitEv,"axG",@progbits,_ZN8wxThread6OnExitEv,comdat
	.align 2
	.weak	_ZN8wxThread6OnExitEv
	.type	_ZN8wxThread6OnExitEv, @function
_ZN8wxThread6OnExitEv:
.LFB3197:
	.cfi_startproc
	.cfi_personality 0x3,__gxx_personality_v0
	pushq	%rbp	#
	.cfi_def_cfa_offset 16
	movq	%rsp, %rbp	#,
	.cfi_offset 6, -16
	.cfi_def_cfa_register 6
	movq	%rdi, -8(%rbp)	# this, this
	leave
	ret
	.cfi_endproc
.LFE3197:
	.size	_ZN8wxThread6OnExitEv, .-_ZN8wxThread6OnExitEv
	.section	.text._ZN20wxThreadHelperThread5EntryEv,"axG",@progbits,_ZN20wxThreadHelperThread5EntryEv,comdat
	.align 2
	.weak	_ZN20wxThreadHelperThread5EntryEv
	.type	_ZN20wxThreadHelperThread5EntryEv, @function
_ZN20wxThreadHelperThread5EntryEv:
.LFB3211:
	.cfi_startproc
	.cfi_personality 0x3,__gxx_personality_v0
	pushq	%rbp	#
	.cfi_def_cfa_offset 16
	movq	%rsp, %rbp	#,
	.cfi_offset 6, -16
	.cfi_def_cfa_register 6
	subq	$16, %rsp	#,
	movq	%rdi, -8(%rbp)	# this, this
	movq	-8(%rbp), %rax	# this, tmp68
	movq	32(%rax), %rax	# <variable>.m_owner, D.41638
	movq	(%rax), %rax	# <variable>._vptr.wxThreadHelper, D.41639
	addq	$16, %rax	#, D.41640
	movq	(%rax), %rdx	#* D.41640, D.41641
	movq	-8(%rbp), %rax	# this, tmp69
	movq	32(%rax), %rax	# <variable>.m_owner, D.41642
	movq	%rax, %rdi	# D.41642,
	call	*%rdx	# D.41641
	leave
	ret
	.cfi_endproc
.LFE3211:
	.size	_ZN20wxThreadHelperThread5EntryEv, .-_ZN20wxThreadHelperThread5EntryEv
	.section	.text._ZN7wxEventD2Ev,"axG",@progbits,_ZN7wxEventD2Ev,comdat
	.align 2
	.weak	_ZN7wxEventD2Ev
	.type	_ZN7wxEventD2Ev, @function
_ZN7wxEventD2Ev:
.LFB3247:
	.cfi_startproc
	.cfi_personality 0x3,__gxx_personality_v0
	pushq	%rbp	#
	.cfi_def_cfa_offset 16
	movq	%rsp, %rbp	#,
	.cfi_offset 6, -16
	.cfi_def_cfa_register 6
	subq	$16, %rsp	#,
	movq	%rdi, -8(%rbp)	# this, this
	movq	-8(%rbp), %rax	# this, tmp61
	movq	$_ZTV7wxEvent+16, (%rax)	#, <variable>.D.41900._vptr.wxObject
	movq	-8(%rbp), %rax	# this, this.497
	movq	%rax, %rdi	# this.497,
	call	_ZN8wxObjectD2Ev	#
	movl	$0, %eax	#, D.42159
	testb	%al, %al	# D.42160
	je	.L121	#,
	movq	-8(%rbp), %rax	# this, tmp62
	movq	%rax, %rdi	# tmp62,
	call	_ZdlPv	#
.L121:
	leave
	ret
	.cfi_endproc
.LFE3247:
	.size	_ZN7wxEventD2Ev, .-_ZN7wxEventD2Ev
	.section	.text._ZN11wxSizeEventC1Ev,"axG",@progbits,_ZN11wxSizeEventC1Ev,comdat
	.align 2
	.weak	_ZN11wxSizeEventC1Ev
	.type	_ZN11wxSizeEventC1Ev, @function
_ZN11wxSizeEventC1Ev:
.LFB3367:
	.cfi_startproc
	.cfi_personality 0x3,__gxx_personality_v0
	pushq	%rbp	#
	.cfi_def_cfa_offset 16
	movq	%rsp, %rbp	#,
	.cfi_offset 6, -16
	.cfi_def_cfa_register 6
	subq	$16, %rsp	#,
	movq	%rdi, -8(%rbp)	# this, this
	movl	wxEVT_SIZE(%rip), %edx	# wxEVT_SIZE, wxEVT_SIZE.529
	movq	-8(%rbp), %rax	# this, D.43312
	movl	$0, %esi	#,
	movq	%rax, %rdi	# D.43312,
	call	_ZN7wxEventC2Eii	#
	movq	-8(%rbp), %rax	# this, tmp65
	movq	$_ZTV11wxSizeEvent+16, (%rax)	#, <variable>.D.43292.D.41900._vptr.wxObject
	movq	-8(%rbp), %rax	# this, tmp66
	addq	$64, %rax	#, D.43313
	movq	%rax, %rdi	# D.43313,
	call	_ZN6wxSizeC1Ev	#
	movq	-8(%rbp), %rax	# this, tmp67
	addq	$72, %rax	#, D.43314
	movq	%rax, %rdi	# D.43314,
	call	_ZN6wxRectC1Ev	#
	leave
	ret
.L124:
	.cfi_endproc
.LFE3367:
	.size	_ZN11wxSizeEventC1Ev, .-_ZN11wxSizeEventC1Ev
	.section	.text._ZN12wxCloseEvent4VetoEb,"axG",@progbits,_ZN12wxCloseEvent4VetoEb,comdat
	.align 2
	.weak	_ZN12wxCloseEvent4VetoEb
	.type	_ZN12wxCloseEvent4VetoEb, @function
_ZN12wxCloseEvent4VetoEb:
.LFB3467:
	.cfi_startproc
	.cfi_personality 0x3,__gxx_personality_v0
	pushq	%rbp	#
	.cfi_def_cfa_offset 16
	movq	%rsp, %rbp	#,
	.cfi_offset 6, -16
	.cfi_def_cfa_register 6
	movq	%rdi, -8(%rbp)	# this, this
	movl	%esi, %eax	# veto, tmp59
	movb	%al, -12(%rbp)	# tmp59, veto
	movq	-8(%rbp), %rax	# this, tmp60
	movzbl	64(%rax), %eax	# <variable>.m_canVeto, D.44284
	testb	%al, %al	# D.44284
	je	.L129	#,
.L127:
	movq	-8(%rbp), %rax	# this, tmp61
	movzbl	-12(%rbp), %edx	# veto, tmp62
	movb	%dl, 63(%rax)	# tmp62, <variable>.m_veto
.L129:
	leave
	ret
	.cfi_endproc
.LFE3467:
	.size	_ZN12wxCloseEvent4VetoEb, .-_ZN12wxCloseEvent4VetoEb
	.section	.text._ZNK12wxCloseEvent7CanVetoEv,"axG",@progbits,_ZNK12wxCloseEvent7CanVetoEv,comdat
	.align 2
	.weak	_ZNK12wxCloseEvent7CanVetoEv
	.type	_ZNK12wxCloseEvent7CanVetoEv, @function
_ZNK12wxCloseEvent7CanVetoEv:
.LFB3469:
	.cfi_startproc
	.cfi_personality 0x3,__gxx_personality_v0
	pushq	%rbp	#
	.cfi_def_cfa_offset 16
	movq	%rsp, %rbp	#,
	.cfi_offset 6, -16
	.cfi_def_cfa_register 6
	movq	%rdi, -8(%rbp)	# this, this
	movq	-8(%rbp), %rax	# this, tmp60
	movzbl	64(%rax), %eax	# <variable>.m_canVeto, D.44290
	leave
	ret
	.cfi_endproc
.LFE3469:
	.size	_ZNK12wxCloseEvent7CanVetoEv, .-_ZNK12wxCloseEvent7CanVetoEv
	.section	.text._ZN21wxEventTableEntryBaseC2EiiM8wxObjectFvR7wxEventEPS0_,"axG",@progbits,_ZN21wxEventTableEntryBaseC2EiiM8wxObjectFvR7wxEventEPS0_,comdat
	.align 2
	.weak	_ZN21wxEventTableEntryBaseC2EiiM8wxObjectFvR7wxEventEPS0_
	.type	_ZN21wxEventTableEntryBaseC2EiiM8wxObjectFvR7wxEventEPS0_, @function
_ZN21wxEventTableEntryBaseC2EiiM8wxObjectFvR7wxEventEPS0_:
.LFB3674:
	.cfi_startproc
	.cfi_personality 0x3,__gxx_personality_v0
	pushq	%rbp	#
	.cfi_def_cfa_offset 16
	movq	%rsp, %rbp	#,
	.cfi_offset 6, -16
	.cfi_def_cfa_register 6
	movq	%rdi, -8(%rbp)	# this, this
	movl	%esi, -12(%rbp)	# winid, winid
	movl	%edx, -16(%rbp)	# idLast, idLast
	movq	%rcx, %rax	# fn, tmp58
	movq	%r8, %rdx	# fn, tmp59
	movq	%r9, -40(%rbp)	# data, data
	movq	%rax, -32(%rbp)	# tmp58, fn
	movq	%rdx, -24(%rbp)	# tmp59, fn
	movq	-8(%rbp), %rax	# this, tmp60
	movl	-12(%rbp), %edx	# winid, tmp61
	movl	%edx, (%rax)	# tmp61, <variable>.m_id
	movq	-8(%rbp), %rax	# this, tmp62
	movl	-16(%rbp), %edx	# idLast, tmp63
	movl	%edx, 4(%rax)	# tmp63, <variable>.m_lastId
	movq	-8(%rbp), %rax	# this, tmp64
	movq	-32(%rbp), %rdx	# fn, tmp65
	movq	%rdx, 8(%rax)	# tmp65, <variable>.m_fn
	movq	-24(%rbp), %rdx	# fn, tmp66
	movq	%rdx, 16(%rax)	# tmp66, <variable>.m_fn
	movq	-8(%rbp), %rax	# this, tmp67
	movq	-40(%rbp), %rdx	# data, tmp68
	movq	%rdx, 24(%rax)	# tmp68, <variable>.m_callbackUserData
	leave
	ret
	.cfi_endproc
.LFE3674:
	.size	_ZN21wxEventTableEntryBaseC2EiiM8wxObjectFvR7wxEventEPS0_, .-_ZN21wxEventTableEntryBaseC2EiiM8wxObjectFvR7wxEventEPS0_
	.section	.text._ZN17wxEventTableEntryC1ERKiiiM8wxObjectFvR7wxEventEPS2_,"axG",@progbits,_ZN17wxEventTableEntryC1ERKiiiM8wxObjectFvR7wxEventEPS2_,comdat
	.align 2
	.weak	_ZN17wxEventTableEntryC1ERKiiiM8wxObjectFvR7wxEventEPS2_
	.type	_ZN17wxEventTableEntryC1ERKiiiM8wxObjectFvR7wxEventEPS2_, @function
_ZN17wxEventTableEntryC1ERKiiiM8wxObjectFvR7wxEventEPS2_:
.LFB3681:
	.cfi_startproc
	.cfi_personality 0x3,__gxx_personality_v0
	pushq	%rbp	#
	.cfi_def_cfa_offset 16
	movq	%rsp, %rbp	#,
	.cfi_offset 6, -16
	.cfi_def_cfa_register 6
	pushq	%rbx	#
	subq	$56, %rsp	#,
	movq	%rdi, -24(%rbp)	# this, this
	movq	%rsi, -32(%rbp)	# evType, evType
	movl	%edx, -36(%rbp)	# winid, winid
	movl	%ecx, -40(%rbp)	# idLast, idLast
	movq	%r8, %rdx	# fn, tmp59
	movq	%r9, %rax	# fn, tmp60
	movq	%rdx, -56(%rbp)	# tmp59, fn
	movq	%rax, -48(%rbp)	# tmp60, fn
	movq	-24(%rbp), %rax	# this, D.46634
	movq	-56(%rbp), %rcx	# fn, tmp61
	movq	-48(%rbp), %rsi	# fn, tmp62
	movl	-40(%rbp), %edx	# idLast, tmp63
	movl	-36(%rbp), %ebx	# winid, tmp64
	.cfi_offset 3, -24
	movq	16(%rbp), %r9	# data,
	movq	%rsi, %r8	# tmp62,
	movl	%ebx, %esi	# tmp64,
	movq	%rax, %rdi	# D.46634,
	call	_ZN21wxEventTableEntryBaseC2EiiM8wxObjectFvR7wxEventEPS0_	#
	movq	-24(%rbp), %rax	# this, tmp65
	movq	-32(%rbp), %rdx	# evType, tmp66
	movq	%rdx, 32(%rax)	# tmp66, <variable>.m_eventType
	addq	$56, %rsp	#,
	popq	%rbx	#
	leave
	ret
	.cfi_endproc
.LFE3681:
	.size	_ZN17wxEventTableEntryC1ERKiiiM8wxObjectFvR7wxEventEPS2_, .-_ZN17wxEventTableEntryC1ERKiiiM8wxObjectFvR7wxEventEPS2_
	.section	.text._ZN11wxStopWatchC1Ev,"axG",@progbits,_ZN11wxStopWatchC1Ev,comdat
	.align 2
	.weak	_ZN11wxStopWatchC1Ev
	.type	_ZN11wxStopWatchC1Ev, @function
_ZN11wxStopWatchC1Ev:
.LFB3895:
	.cfi_startproc
	.cfi_personality 0x3,__gxx_personality_v0
	pushq	%rbp	#
	.cfi_def_cfa_offset 16
	movq	%rsp, %rbp	#,
	.cfi_offset 6, -16
	.cfi_def_cfa_register 6
	subq	$16, %rsp	#,
	movq	%rdi, -8(%rbp)	# this, this
	movq	-8(%rbp), %rax	# this, D.49495
	movq	%rax, %rdi	# D.49495,
	call	_ZN16wxLongLongNativeC1Ev	#
	movq	-8(%rbp), %rax	# this, tmp59
	movl	$0, 16(%rax)	#, <variable>.m_pauseCount
	movq	-8(%rbp), %rax	# this, tmp60
	movl	$0, %esi	#,
	movq	%rax, %rdi	# tmp60,
	call	_ZN11wxStopWatch5StartEl	#
	leave
	ret
	.cfi_endproc
.LFE3895:
	.size	_ZN11wxStopWatchC1Ev, .-_ZN11wxStopWatchC1Ev
	.section	.text._ZN11wxStopWatch5PauseEv,"axG",@progbits,_ZN11wxStopWatch5PauseEv,comdat
	.align 2
	.weak	_ZN11wxStopWatch5PauseEv
	.type	_ZN11wxStopWatch5PauseEv, @function
_ZN11wxStopWatch5PauseEv:
.LFB3896:
	.cfi_startproc
	.cfi_personality 0x3,__gxx_personality_v0
	pushq	%rbp	#
	.cfi_def_cfa_offset 16
	movq	%rsp, %rbp	#,
	.cfi_offset 6, -16
	.cfi_def_cfa_register 6
	subq	$16, %rsp	#,
	movq	%rdi, -8(%rbp)	# this, this
	movq	-8(%rbp), %rax	# this, tmp62
	movl	16(%rax), %eax	# <variable>.m_pauseCount, D.49498
	testl	%eax, %eax	# D.49498
	sete	%dl	#, retval.655
	leal	1(%rax), %ecx	#, D.49499
	movq	-8(%rbp), %rax	# this, tmp63
	movl	%ecx, 16(%rax)	# D.49499, <variable>.m_pauseCount
	testb	%dl, %dl	# retval.655
	je	.L140	#,
	movq	-8(%rbp), %rax	# this, tmp64
	movq	%rax, %rdi	# tmp64,
	call	_ZNK11wxStopWatch14GetElapsedTimeEv	#
	movq	-8(%rbp), %rdx	# this, tmp65
	movq	%rax, 8(%rdx)	# D.49502, <variable>.m_pause
.L140:
	leave
	ret
	.cfi_endproc
.LFE3896:
	.size	_ZN11wxStopWatch5PauseEv, .-_ZN11wxStopWatch5PauseEv
	.section	.text._ZN11wxGDIObjectC2Ev,"axG",@progbits,_ZN11wxGDIObjectC2Ev,comdat
	.align 2
	.weak	_ZN11wxGDIObjectC2Ev
	.type	_ZN11wxGDIObjectC2Ev, @function
_ZN11wxGDIObjectC2Ev:
.LFB4145:
	.cfi_startproc
	.cfi_personality 0x3,__gxx_personality_v0
	pushq	%rbp	#
	.cfi_def_cfa_offset 16
	movq	%rsp, %rbp	#,
	.cfi_offset 6, -16
	.cfi_def_cfa_register 6
	subq	$16, %rsp	#,
	movq	%rdi, -8(%rbp)	# this, this
	movq	-8(%rbp), %rax	# this, D.51867
	movq	%rax, %rdi	# D.51867,
	call	_ZN8wxObjectC2Ev	#
	movq	-8(%rbp), %rax	# this, tmp60
	movq	$_ZTV11wxGDIObject+16, (%rax)	#, <variable>.D.51499._vptr.wxObject
	leave
	ret
	.cfi_endproc
.LFE4145:
	.size	_ZN11wxGDIObjectC2Ev, .-_ZN11wxGDIObjectC2Ev
	.section	.text._ZN11wxGDIObjectD2Ev,"axG",@progbits,_ZN11wxGDIObjectD2Ev,comdat
	.align 2
	.weak	_ZN11wxGDIObjectD2Ev
	.type	_ZN11wxGDIObjectD2Ev, @function
_ZN11wxGDIObjectD2Ev:
.LFB4148:
	.cfi_startproc
	.cfi_personality 0x3,__gxx_personality_v0
	pushq	%rbp	#
	.cfi_def_cfa_offset 16
	movq	%rsp, %rbp	#,
	.cfi_offset 6, -16
	.cfi_def_cfa_register 6
	subq	$16, %rsp	#,
	movq	%rdi, -8(%rbp)	# this, this
	movq	-8(%rbp), %rax	# this, tmp61
	movq	$_ZTV11wxGDIObject+16, (%rax)	#, <variable>.D.51499._vptr.wxObject
	movq	-8(%rbp), %rax	# this, this.713
	movq	%rax, %rdi	# this.713,
	call	_ZN8wxObjectD2Ev	#
	movl	$0, %eax	#, D.51884
	testb	%al, %al	# D.51885
	je	.L146	#,
	movq	-8(%rbp), %rax	# this, tmp62
	movq	%rax, %rdi	# tmp62,
	call	_ZdlPv	#
.L146:
	leave
	ret
	.cfi_endproc
.LFE4148:
	.size	_ZN11wxGDIObjectD2Ev, .-_ZN11wxGDIObjectD2Ev
	.section	.text._ZN12wxWindowBase7SetNameERK8wxString,"axG",@progbits,_ZN12wxWindowBase7SetNameERK8wxString,comdat
	.align 2
	.weak	_ZN12wxWindowBase7SetNameERK8wxString
	.type	_ZN12wxWindowBase7SetNameERK8wxString, @function
_ZN12wxWindowBase7SetNameERK8wxString:
.LFB4759:
	.cfi_startproc
	.cfi_personality 0x3,__gxx_personality_v0
	pushq	%rbp	#
	.cfi_def_cfa_offset 16
	movq	%rsp, %rbp	#,
	.cfi_offset 6, -16
	.cfi_def_cfa_register 6
	subq	$16, %rsp	#,
	movq	%rdi, -8(%rbp)	# this, this
	movq	%rsi, -16(%rbp)	# name, name
	movq	-8(%rbp), %rax	# this, tmp59
	leaq	352(%rax), %rdx	#, D.59490
	movq	-16(%rbp), %rax	# name, tmp60
	movq	%rax, %rsi	# tmp60,
	movq	%rdx, %rdi	# D.59490,
	call	_ZN8wxStringaSERKS_	#
	leave
	ret
	.cfi_endproc
.LFE4759:
	.size	_ZN12wxWindowBase7SetNameERK8wxString, .-_ZN12wxWindowBase7SetNameERK8wxString
	.section	.text._ZNK12wxWindowBase7GetNameEv,"axG",@progbits,_ZNK12wxWindowBase7GetNameEv,comdat
	.align 2
	.weak	_ZNK12wxWindowBase7GetNameEv
	.type	_ZNK12wxWindowBase7GetNameEv, @function
_ZNK12wxWindowBase7GetNameEv:
.LFB4760:
	.cfi_startproc
	.cfi_personality 0x3,__gxx_personality_v0
	pushq	%rbp	#
	.cfi_def_cfa_offset 16
	movq	%rsp, %rbp	#,
	.cfi_offset 6, -16
	.cfi_def_cfa_register 6
	pushq	%rbx	#
	subq	$24, %rsp	#,
	movq	%rdi, %rbx	# D.246140, <result>
	.cfi_offset 3, -24
	movq	%rsi, -24(%rbp)	# this, this
	movq	%rbx, %rax	# <result>, D.59494
	movq	-24(%rbp), %rdx	# this, tmp61
	addq	$352, %rdx	#, D.59495
	movq	%rdx, %rsi	# D.59495,
	movq	%rax, %rdi	# D.59494,
	call	_ZN8wxStringC1ERKS_	#
	movq	%rbx, %rax	# <result>,
	movq	%rbx, %rax	# <result>,
	addq	$24, %rsp	#,
	popq	%rbx	#
	leave
	ret
	.cfi_endproc
.LFE4760:
	.size	_ZNK12wxWindowBase7GetNameEv, .-_ZNK12wxWindowBase7GetNameEv
	.section	.text._ZNK12wxWindowBase16GetWindowVariantEv,"axG",@progbits,_ZNK12wxWindowBase16GetWindowVariantEv,comdat
	.align 2
	.weak	_ZNK12wxWindowBase16GetWindowVariantEv
	.type	_ZNK12wxWindowBase16GetWindowVariantEv, @function
_ZNK12wxWindowBase16GetWindowVariantEv:
.LFB4761:
	.cfi_startproc
	.cfi_personality 0x3,__gxx_personality_v0
	pushq	%rbp	#
	.cfi_def_cfa_offset 16
	movq	%rsp, %rbp	#,
	.cfi_offset 6, -16
	.cfi_def_cfa_register 6
	movq	%rdi, -8(%rbp)	# this, this
	movq	-8(%rbp), %rax	# this, tmp60
	movl	424(%rax), %eax	# <variable>.m_windowVariant, D.59497
	leave
	ret
	.cfi_endproc
.LFE4761:
	.size	_ZNK12wxWindowBase16GetWindowVariantEv, .-_ZNK12wxWindowBase16GetWindowVariantEv
	.section	.text._ZN12wxWindowBase12NewControlIdEv,"axG",@progbits,_ZN12wxWindowBase12NewControlIdEv,comdat
	.weak	_ZN12wxWindowBase12NewControlIdEv
	.type	_ZN12wxWindowBase12NewControlIdEv, @function
_ZN12wxWindowBase12NewControlIdEv:
.LFB4766:
	.cfi_startproc
	.cfi_personality 0x3,__gxx_personality_v0
	pushq	%rbp	#
	.cfi_def_cfa_offset 16
	movq	%rsp, %rbp	#,
	.cfi_offset 6, -16
	.cfi_def_cfa_register 6
	movl	_ZN12wxWindowBase16ms_lastControlIdE(%rip), %eax	# ms_lastControlId, ms_lastControlId.816
	subl	$1, %eax	#, ms_lastControlId.817
	movl	%eax, _ZN12wxWindowBase16ms_lastControlIdE(%rip)	# ms_lastControlId.817, ms_lastControlId
	movl	_ZN12wxWindowBase16ms_lastControlIdE(%rip), %eax	# ms_lastControlId, D.59505
	leave
	ret
	.cfi_endproc
.LFE4766:
	.size	_ZN12wxWindowBase12NewControlIdEv, .-_ZN12wxWindowBase12NewControlIdEv
	.section	.text._ZN12wxWindowBase7SetSizeEiiiii,"axG",@progbits,_ZN12wxWindowBase7SetSizeEiiiii,comdat
	.align 2
	.weak	_ZN12wxWindowBase7SetSizeEiiiii
	.type	_ZN12wxWindowBase7SetSizeEiiiii, @function
_ZN12wxWindowBase7SetSizeEiiiii:
.LFB4769:
	.cfi_startproc
	.cfi_personality 0x3,__gxx_personality_v0
	pushq	%rbp	#
	.cfi_def_cfa_offset 16
	movq	%rsp, %rbp	#,
	.cfi_offset 6, -16
	.cfi_def_cfa_register 6
	pushq	%rbx	#
	subq	$40, %rsp	#,
	movq	%rdi, -24(%rbp)	# this, this
	movl	%esi, -28(%rbp)	# x, x
	movl	%edx, -32(%rbp)	# y, y
	movl	%ecx, -36(%rbp)	# width, width
	movl	%r8d, -40(%rbp)	# height, height
	movl	%r9d, -44(%rbp)	# sizeFlags, sizeFlags
	movq	-24(%rbp), %rax	# this, tmp61
	movq	(%rax), %rax	# <variable>.D.59436.D.47561._vptr.wxObject, D.59513
	addq	$1096, %rax	#, D.59514
	movq	(%rax), %r10	#* D.59514, D.59515
	movl	-44(%rbp), %edi	# sizeFlags, tmp62
	movl	-40(%rbp), %esi	# height, tmp63
	movl	-36(%rbp), %ecx	# width, tmp64
	movl	-32(%rbp), %edx	# y, tmp65
	movl	-28(%rbp), %ebx	# x, tmp66
	.cfi_offset 3, -24
	movq	-24(%rbp), %rax	# this, tmp67
	movl	%edi, %r9d	# tmp62,
	movl	%esi, %r8d	# tmp63,
	movl	%ebx, %esi	# tmp66,
	movq	%rax, %rdi	# tmp67,
	call	*%r10	# D.59515
	addq	$40, %rsp	#,
	popq	%rbx	#
	leave
	ret
	.cfi_endproc
.LFE4769:
	.size	_ZN12wxWindowBase7SetSizeEiiiii, .-_ZN12wxWindowBase7SetSizeEiiiii
	.section	.text._ZNK12wxWindowBase11GetPositionEv,"axG",@progbits,_ZNK12wxWindowBase11GetPositionEv,comdat
	.align 2
	.weak	_ZNK12wxWindowBase11GetPositionEv
	.type	_ZNK12wxWindowBase11GetPositionEv, @function
_ZNK12wxWindowBase11GetPositionEv:
.LFB4780:
	.cfi_startproc
	.cfi_personality 0x3,__gxx_personality_v0
	pushq	%rbp	#
	.cfi_def_cfa_offset 16
	movq	%rsp, %rbp	#,
	.cfi_offset 6, -16
	.cfi_def_cfa_register 6
	pushq	%rbx	#
	subq	$56, %rsp	#,
	movq	%rdi, -56(%rbp)	# this, this
	movq	-56(%rbp), %rax	# this, tmp65
	movq	(%rax), %rax	# <variable>.D.59436.D.47561._vptr.wxObject, D.59560
	addq	$1048, %rax	#, D.59561
	movq	(%rax), %rbx	#* D.59561, D.59562
	.cfi_offset 3, -24
	leaq	-40(%rbp), %rdx	#, tmp66
	leaq	-36(%rbp), %rcx	#, tmp67
	movq	-56(%rbp), %rax	# this, tmp68
	movq	%rcx, %rsi	# tmp67,
	movq	%rax, %rdi	# tmp68,
	call	*%rbx	# D.59562
	movl	-40(%rbp), %edx	# y, y.818
	movl	-36(%rbp), %ecx	# x, x.819
	leaq	-32(%rbp), %rax	#, tmp69
	movl	%ecx, %esi	# x.819,
	movq	%rax, %rdi	# tmp69,
	call	_ZN7wxPointC1Eii	#
	movq	-32(%rbp), %rax	# D.59559, D.59563
	addq	$56, %rsp	#,
	popq	%rbx	#
	leave
	ret
	.cfi_endproc
.LFE4780:
	.size	_ZNK12wxWindowBase11GetPositionEv, .-_ZNK12wxWindowBase11GetPositionEv
	.section	.text._ZNK12wxWindowBase7GetSizeEv,"axG",@progbits,_ZNK12wxWindowBase7GetSizeEv,comdat
	.align 2
	.weak	_ZNK12wxWindowBase7GetSizeEv
	.type	_ZNK12wxWindowBase7GetSizeEv, @function
_ZNK12wxWindowBase7GetSizeEv:
.LFB4784:
	.cfi_startproc
	.cfi_personality 0x3,__gxx_personality_v0
	pushq	%rbp	#
	.cfi_def_cfa_offset 16
	movq	%rsp, %rbp	#,
	.cfi_offset 6, -16
	.cfi_def_cfa_register 6
	pushq	%rbx	#
	subq	$56, %rsp	#,
	movq	%rdi, -56(%rbp)	# this, this
	movq	-56(%rbp), %rax	# this, tmp65
	movq	(%rax), %rax	# <variable>.D.59436.D.47561._vptr.wxObject, D.59588
	addq	$1064, %rax	#, D.59589
	movq	(%rax), %rbx	#* D.59589, D.59590
	.cfi_offset 3, -24
	leaq	-40(%rbp), %rdx	#, tmp66
	leaq	-36(%rbp), %rcx	#, tmp67
	movq	-56(%rbp), %rax	# this, tmp68
	movq	%rcx, %rsi	# tmp67,
	movq	%rax, %rdi	# tmp68,
	call	*%rbx	# D.59590
	movl	-40(%rbp), %edx	# h, h.822
	movl	-36(%rbp), %ecx	# w, w.823
	leaq	-32(%rbp), %rax	#, tmp69
	movl	%ecx, %esi	# w.823,
	movq	%rax, %rdi	# tmp69,
	call	_ZN6wxSizeC1Eii	#
	movq	-32(%rbp), %rax	# D.59587, D.59591
	addq	$56, %rsp	#,
	popq	%rbx	#
	leave
	ret
	.cfi_endproc
.LFE4784:
	.size	_ZNK12wxWindowBase7GetSizeEv, .-_ZNK12wxWindowBase7GetSizeEv
	.section	.text._ZNK12wxWindowBase13GetClientSizeEv,"axG",@progbits,_ZNK12wxWindowBase13GetClientSizeEv,comdat
	.align 2
	.weak	_ZNK12wxWindowBase13GetClientSizeEv
	.type	_ZNK12wxWindowBase13GetClientSizeEv, @function
_ZNK12wxWindowBase13GetClientSizeEv:
.LFB4786:
	.cfi_startproc
	.cfi_personality 0x3,__gxx_personality_v0
	pushq	%rbp	#
	.cfi_def_cfa_offset 16
	movq	%rsp, %rbp	#,
	.cfi_offset 6, -16
	.cfi_def_cfa_register 6
	pushq	%rbx	#
	subq	$56, %rsp	#,
	movq	%rdi, -56(%rbp)	# this, this
	movq	-56(%rbp), %rax	# this, tmp65
	movq	(%rax), %rax	# <variable>.D.59436.D.47561._vptr.wxObject, D.59602
	addq	$1072, %rax	#, D.59603
	movq	(%rax), %rbx	#* D.59603, D.59604
	.cfi_offset 3, -24
	leaq	-40(%rbp), %rdx	#, tmp66
	leaq	-36(%rbp), %rcx	#, tmp67
	movq	-56(%rbp), %rax	# this, tmp68
	movq	%rcx, %rsi	# tmp67,
	movq	%rax, %rdi	# tmp68,
	call	*%rbx	# D.59604
	movl	-40(%rbp), %edx	# h, h.824
	movl	-36(%rbp), %ecx	# w, w.825
	leaq	-32(%rbp), %rax	#, tmp69
	movl	%ecx, %esi	# w.825,
	movq	%rax, %rdi	# tmp69,
	call	_ZN6wxSizeC1Eii	#
	movq	-32(%rbp), %rax	# D.59601, D.59605
	addq	$56, %rsp	#,
	popq	%rbx	#
	leave
	ret
	.cfi_endproc
.LFE4786:
	.size	_ZNK12wxWindowBase13GetClientSizeEv, .-_ZNK12wxWindowBase13GetClientSizeEv
	.section	.text._ZNK12wxWindowBase11GetBestSizeEv,"axG",@progbits,_ZNK12wxWindowBase11GetBestSizeEv,comdat
	.align 2
	.weak	_ZNK12wxWindowBase11GetBestSizeEv
	.type	_ZNK12wxWindowBase11GetBestSizeEv, @function
_ZNK12wxWindowBase11GetBestSizeEv:
.LFB4790:
	.cfi_startproc
	.cfi_personality 0x3,__gxx_personality_v0
	pushq	%rbp	#
	.cfi_def_cfa_offset 16
	movq	%rsp, %rbp	#,
	.cfi_offset 6, -16
	.cfi_def_cfa_register 6
	subq	$16, %rsp	#,
	movq	%rdi, -8(%rbp)	# this, this
	movq	-8(%rbp), %rax	# this, tmp66
	addq	$428, %rax	#, D.59642
	movq	%rax, %rdi	# D.59642,
	call	_ZNK6wxSize16IsFullySpecifiedEv	#
	testb	%al, %al	# retval.834
	je	.L164	#,
	movq	-8(%rbp), %rax	# this, tmp67
	movq	428(%rax), %rax	# <variable>.m_bestSizeCache, D.59646
	jmp	.L165	#
.L164:
	movq	-8(%rbp), %rax	# this, tmp68
	movq	(%rax), %rax	# <variable>.D.59436.D.47561._vptr.wxObject, D.59647
	addq	$1080, %rax	#, D.59648
	movq	(%rax), %rdx	#* D.59648, D.59649
	movq	-8(%rbp), %rax	# this, tmp69
	movq	%rax, %rdi	# tmp69,
	call	*%rdx	# D.59649
.L165:
	leave
	ret
	.cfi_endproc
.LFE4790:
	.size	_ZNK12wxWindowBase11GetBestSizeEv, .-_ZNK12wxWindowBase11GetBestSizeEv
	.section	.text._ZN12wxWindowBase6CentreEi,"axG",@progbits,_ZN12wxWindowBase6CentreEi,comdat
	.align 2
	.weak	_ZN12wxWindowBase6CentreEi
	.type	_ZN12wxWindowBase6CentreEi, @function
_ZN12wxWindowBase6CentreEi:
.LFB4795:
	.cfi_startproc
	.cfi_personality 0x3,__gxx_personality_v0
	pushq	%rbp	#
	.cfi_def_cfa_offset 16
	movq	%rsp, %rbp	#,
	.cfi_offset 6, -16
	.cfi_def_cfa_register 6
	subq	$16, %rsp	#,
	movq	%rdi, -8(%rbp)	# this, this
	movl	%esi, -12(%rbp)	# dir, dir
	movq	-8(%rbp), %rax	# this, tmp61
	movq	(%rax), %rax	# <variable>.D.59436.D.47561._vptr.wxObject, D.59669
	addq	$1120, %rax	#, D.59670
	movq	(%rax), %rcx	#* D.59670, D.59671
	movl	-12(%rbp), %edx	# dir, tmp62
	movq	-8(%rbp), %rax	# this, tmp63
	movl	%edx, %esi	# tmp62,
	movq	%rax, %rdi	# tmp63,
	call	*%rcx	# D.59671
	leave
	ret
	.cfi_endproc
.LFE4795:
	.size	_ZN12wxWindowBase6CentreEi, .-_ZN12wxWindowBase6CentreEi
	.section	.text._ZN12wxWindowBase12SetSizeHintsEiiiiii,"axG",@progbits,_ZN12wxWindowBase12SetSizeHintsEiiiiii,comdat
	.align 2
	.weak	_ZN12wxWindowBase12SetSizeHintsEiiiiii
	.type	_ZN12wxWindowBase12SetSizeHintsEiiiiii, @function
_ZN12wxWindowBase12SetSizeHintsEiiiiii:
.LFB4799:
	.cfi_startproc
	.cfi_personality 0x3,__gxx_personality_v0
	pushq	%rbp	#
	.cfi_def_cfa_offset 16
	movq	%rsp, %rbp	#,
	.cfi_offset 6, -16
	.cfi_def_cfa_register 6
	pushq	%rbx	#
	subq	$56, %rsp	#,
	movq	%rdi, -24(%rbp)	# this, this
	movl	%esi, -28(%rbp)	# minW, minW
	movl	%edx, -32(%rbp)	# minH, minH
	movl	%ecx, -36(%rbp)	# maxW, maxW
	movl	%r8d, -40(%rbp)	# maxH, maxH
	movl	%r9d, -44(%rbp)	# incW, incW
	movq	-24(%rbp), %rax	# this, tmp61
	movq	(%rax), %rax	# <variable>.D.59436.D.47561._vptr.wxObject, D.59682
	addq	$232, %rax	#, D.59683
	movq	(%rax), %r10	#* D.59683, D.59684
	movl	-44(%rbp), %r8d	# incW, tmp62
	movl	-40(%rbp), %edi	# maxH, tmp63
	movl	-36(%rbp), %ecx	# maxW, tmp64
	movl	-32(%rbp), %edx	# minH, tmp65
	movl	-28(%rbp), %ebx	# minW, tmp66
	.cfi_offset 3, -24
	movq	-24(%rbp), %rax	# this, tmp67
	movl	16(%rbp), %esi	# incH, tmp68
	movl	%esi, (%rsp)	# tmp68,
	movl	%r8d, %r9d	# tmp62,
	movl	%edi, %r8d	# tmp63,
	movl	%ebx, %esi	# tmp66,
	movq	%rax, %rdi	# tmp67,
	call	*%r10	# D.59684
	addq	$56, %rsp	#,
	popq	%rbx	#
	leave
	ret
	.cfi_endproc
.LFE4799:
	.size	_ZN12wxWindowBase12SetSizeHintsEiiiiii, .-_ZN12wxWindowBase12SetSizeHintsEiiiiii
	.section	.text._ZN12wxWindowBase10SetMinSizeERK6wxSize,"axG",@progbits,_ZN12wxWindowBase10SetMinSizeERK6wxSize,comdat
	.align 2
	.weak	_ZN12wxWindowBase10SetMinSizeERK6wxSize
	.type	_ZN12wxWindowBase10SetMinSizeERK6wxSize, @function
_ZN12wxWindowBase10SetMinSizeERK6wxSize:
.LFB4802:
	.cfi_startproc
	.cfi_personality 0x3,__gxx_personality_v0
	pushq	%rbp	#
	.cfi_def_cfa_offset 16
	movq	%rsp, %rbp	#,
	.cfi_offset 6, -16
	.cfi_def_cfa_register 6
	movq	%rdi, -8(%rbp)	# this, this
	movq	%rsi, -16(%rbp)	# minSize, minSize
	movq	-16(%rbp), %rax	# minSize, tmp60
	movl	(%rax), %edx	# <variable>.x, D.59704
	movq	-8(%rbp), %rax	# this, tmp61
	movl	%edx, 144(%rax)	# D.59704, <variable>.m_minWidth
	movq	-16(%rbp), %rax	# minSize, tmp62
	movl	4(%rax), %edx	# <variable>.y, D.59705
	movq	-8(%rbp), %rax	# this, tmp63
	movl	%edx, 148(%rax)	# D.59705, <variable>.m_minHeight
	leave
	ret
	.cfi_endproc
.LFE4802:
	.size	_ZN12wxWindowBase10SetMinSizeERK6wxSize, .-_ZN12wxWindowBase10SetMinSizeERK6wxSize
	.section	.text._ZN12wxWindowBase10SetMaxSizeERK6wxSize,"axG",@progbits,_ZN12wxWindowBase10SetMaxSizeERK6wxSize,comdat
	.align 2
	.weak	_ZN12wxWindowBase10SetMaxSizeERK6wxSize
	.type	_ZN12wxWindowBase10SetMaxSizeERK6wxSize, @function
_ZN12wxWindowBase10SetMaxSizeERK6wxSize:
.LFB4803:
	.cfi_startproc
	.cfi_personality 0x3,__gxx_personality_v0
	pushq	%rbp	#
	.cfi_def_cfa_offset 16
	movq	%rsp, %rbp	#,
	.cfi_offset 6, -16
	.cfi_def_cfa_register 6
	movq	%rdi, -8(%rbp)	# this, this
	movq	%rsi, -16(%rbp)	# maxSize, maxSize
	movq	-16(%rbp), %rax	# maxSize, tmp60
	movl	(%rax), %edx	# <variable>.x, D.59707
	movq	-8(%rbp), %rax	# this, tmp61
	movl	%edx, 152(%rax)	# D.59707, <variable>.m_maxWidth
	movq	-16(%rbp), %rax	# maxSize, tmp62
	movl	4(%rax), %edx	# <variable>.y, D.59708
	movq	-8(%rbp), %rax	# this, tmp63
	movl	%edx, 156(%rax)	# D.59708, <variable>.m_maxHeight
	leave
	ret
	.cfi_endproc
.LFE4803:
	.size	_ZN12wxWindowBase10SetMaxSizeERK6wxSize, .-_ZN12wxWindowBase10SetMaxSizeERK6wxSize
	.section	.text._ZNK12wxWindowBase10GetMinSizeEv,"axG",@progbits,_ZNK12wxWindowBase10GetMinSizeEv,comdat
	.align 2
	.weak	_ZNK12wxWindowBase10GetMinSizeEv
	.type	_ZNK12wxWindowBase10GetMinSizeEv, @function
_ZNK12wxWindowBase10GetMinSizeEv:
.LFB4804:
	.cfi_startproc
	.cfi_personality 0x3,__gxx_personality_v0
	pushq	%rbp	#
	.cfi_def_cfa_offset 16
	movq	%rsp, %rbp	#,
	.cfi_offset 6, -16
	.cfi_def_cfa_register 6
	subq	$32, %rsp	#,
	movq	%rdi, -24(%rbp)	# this, this
	movq	-24(%rbp), %rax	# this, tmp62
	movl	148(%rax), %edx	# <variable>.m_minHeight, D.59712
	movq	-24(%rbp), %rax	# this, tmp63
	movl	144(%rax), %ecx	# <variable>.m_minWidth, D.59713
	leaq	-16(%rbp), %rax	#, tmp64
	movl	%ecx, %esi	# D.59713,
	movq	%rax, %rdi	# tmp64,
	call	_ZN6wxSizeC1Eii	#
	movq	-16(%rbp), %rax	# D.59710, D.59711
	leave
	ret
	.cfi_endproc
.LFE4804:
	.size	_ZNK12wxWindowBase10GetMinSizeEv, .-_ZNK12wxWindowBase10GetMinSizeEv
	.section	.text._ZNK12wxWindowBase10GetMaxSizeEv,"axG",@progbits,_ZNK12wxWindowBase10GetMaxSizeEv,comdat
	.align 2
	.weak	_ZNK12wxWindowBase10GetMaxSizeEv
	.type	_ZNK12wxWindowBase10GetMaxSizeEv, @function
_ZNK12wxWindowBase10GetMaxSizeEv:
.LFB4805:
	.cfi_startproc
	.cfi_personality 0x3,__gxx_personality_v0
	pushq	%rbp	#
	.cfi_def_cfa_offset 16
	movq	%rsp, %rbp	#,
	.cfi_offset 6, -16
	.cfi_def_cfa_register 6
	subq	$32, %rsp	#,
	movq	%rdi, -24(%rbp)	# this, this
	movq	-24(%rbp), %rax	# this, tmp62
	movl	156(%rax), %edx	# <variable>.m_maxHeight, D.59717
	movq	-24(%rbp), %rax	# this, tmp63
	movl	152(%rax), %ecx	# <variable>.m_maxWidth, D.59718
	leaq	-16(%rbp), %rax	#, tmp64
	movl	%ecx, %esi	# D.59718,
	movq	%rax, %rdi	# tmp64,
	call	_ZN6wxSizeC1Eii	#
	movq	-16(%rbp), %rax	# D.59715, D.59716
	leave
	ret
	.cfi_endproc
.LFE4805:
	.size	_ZNK12wxWindowBase10GetMaxSizeEv, .-_ZNK12wxWindowBase10GetMaxSizeEv
	.section	.text._ZNK12wxWindowBase18GetBestVirtualSizeEv,"axG",@progbits,_ZNK12wxWindowBase18GetBestVirtualSizeEv,comdat
	.align 2
	.weak	_ZNK12wxWindowBase18GetBestVirtualSizeEv
	.type	_ZNK12wxWindowBase18GetBestVirtualSizeEv, @function
_ZNK12wxWindowBase18GetBestVirtualSizeEv:
.LFB4814:
	.cfi_startproc
	.cfi_personality 0x3,__gxx_personality_v0
	pushq	%rbp	#
	.cfi_def_cfa_offset 16
	movq	%rsp, %rbp	#,
	.cfi_offset 6, -16
	.cfi_def_cfa_register 6
	subq	$64, %rsp	#,
	movq	%rdi, -56(%rbp)	# this, this
	movq	-56(%rbp), %rax	# this, tmp66
	movq	%rax, %rdi	# tmp66,
	call	_ZNK12wxWindowBase13GetClientSizeEv	#
	movq	%rax, -32(%rbp)	# tmp68, client
	movq	-56(%rbp), %rax	# this, tmp69
	movq	%rax, %rdi	# tmp69,
	call	_ZNK12wxWindowBase11GetBestSizeEv	#
	movq	%rax, -48(%rbp)	# tmp71, best
	movl	-28(%rbp), %edx	# client.y, D.59781
	movl	-44(%rbp), %eax	# best.y, D.59782
	cmpl	%eax, %edx	# D.59782, D.59781
	jle	.L180	#,
	movl	-28(%rbp), %edx	# client.y, iftmp.835
	jmp	.L181	#
.L180:
	movl	-44(%rbp), %edx	# best.y, iftmp.835
.L181:
	movl	-32(%rbp), %ecx	# client.x, D.59787
	movl	-48(%rbp), %eax	# best.x, D.59788
	cmpl	%eax, %ecx	# D.59788, D.59787
	jle	.L182	#,
	movl	-32(%rbp), %eax	# client.x, iftmp.836
	jmp	.L183	#
.L182:
	movl	-48(%rbp), %eax	# best.x, iftmp.836
.L183:
	leaq	-16(%rbp), %rcx	#, tmp72
	movl	%eax, %esi	# iftmp.836,
	movq	%rcx, %rdi	# tmp72,
	call	_ZN6wxSizeC1Eii	#
	movq	-16(%rbp), %rax	# D.59778, D.59779
	leave
	ret
	.cfi_endproc
.LFE4814:
	.size	_ZNK12wxWindowBase18GetBestVirtualSizeEv, .-_ZNK12wxWindowBase18GetBestVirtualSizeEv
	.section	.text._ZNK12wxWindowBase7IsShownEv,"axG",@progbits,_ZNK12wxWindowBase7IsShownEv,comdat
	.align 2
	.weak	_ZNK12wxWindowBase7IsShownEv
	.type	_ZNK12wxWindowBase7IsShownEv, @function
_ZNK12wxWindowBase7IsShownEv:
.LFB4817:
	.cfi_startproc
	.cfi_personality 0x3,__gxx_personality_v0
	pushq	%rbp	#
	.cfi_def_cfa_offset 16
	movq	%rsp, %rbp	#,
	.cfi_offset 6, -16
	.cfi_def_cfa_register 6
	movq	%rdi, -8(%rbp)	# this, this
	movq	-8(%rbp), %rax	# this, tmp60
	movzbl	328(%rax), %eax	#, tmp62
	shrb	%al	# D.59805
	andl	$1, %eax	#, D.59805
	leave
	ret
	.cfi_endproc
.LFE4817:
	.size	_ZNK12wxWindowBase7IsShownEv, .-_ZNK12wxWindowBase7IsShownEv
	.section	.text._ZNK12wxWindowBase9IsEnabledEv,"axG",@progbits,_ZNK12wxWindowBase9IsEnabledEv,comdat
	.align 2
	.weak	_ZNK12wxWindowBase9IsEnabledEv
	.type	_ZNK12wxWindowBase9IsEnabledEv, @function
_ZNK12wxWindowBase9IsEnabledEv:
.LFB4818:
	.cfi_startproc
	.cfi_personality 0x3,__gxx_personality_v0
	pushq	%rbp	#
	.cfi_def_cfa_offset 16
	movq	%rsp, %rbp	#,
	.cfi_offset 6, -16
	.cfi_def_cfa_register 6
	movq	%rdi, -8(%rbp)	# this, this
	movq	-8(%rbp), %rax	# this, tmp60
	movzbl	328(%rax), %eax	#, tmp62
	shrb	$2, %al	#, D.59807
	andl	$1, %eax	#, D.59807
	leave
	ret
	.cfi_endproc
.LFE4818:
	.size	_ZNK12wxWindowBase9IsEnabledEv, .-_ZNK12wxWindowBase9IsEnabledEv
	.section	.text._ZNK12wxWindowBase18GetWindowStyleFlagEv,"axG",@progbits,_ZNK12wxWindowBase18GetWindowStyleFlagEv,comdat
	.align 2
	.weak	_ZNK12wxWindowBase18GetWindowStyleFlagEv
	.type	_ZNK12wxWindowBase18GetWindowStyleFlagEv, @function
_ZNK12wxWindowBase18GetWindowStyleFlagEv:
.LFB4820:
	.cfi_startproc
	.cfi_personality 0x3,__gxx_personality_v0
	pushq	%rbp	#
	.cfi_def_cfa_offset 16
	movq	%rsp, %rbp	#,
	.cfi_offset 6, -16
	.cfi_def_cfa_register 6
	movq	%rdi, -8(%rbp)	# this, this
	movq	-8(%rbp), %rax	# this, tmp60
	movq	336(%rax), %rax	# <variable>.m_windowStyle, D.59810
	leave
	ret
	.cfi_endproc
.LFE4820:
	.size	_ZNK12wxWindowBase18GetWindowStyleFlagEv, .-_ZNK12wxWindowBase18GetWindowStyleFlagEv
	.section	.text._ZNK12wxWindowBase7HasFlagEi,"axG",@progbits,_ZNK12wxWindowBase7HasFlagEi,comdat
	.align 2
	.weak	_ZNK12wxWindowBase7HasFlagEi
	.type	_ZNK12wxWindowBase7HasFlagEi, @function
_ZNK12wxWindowBase7HasFlagEi:
.LFB4823:
	.cfi_startproc
	.cfi_personality 0x3,__gxx_personality_v0
	pushq	%rbp	#
	.cfi_def_cfa_offset 16
	movq	%rsp, %rbp	#,
	.cfi_offset 6, -16
	.cfi_def_cfa_register 6
	movq	%rdi, -8(%rbp)	# this, this
	movl	%esi, -12(%rbp)	# flag, flag
	movq	-8(%rbp), %rax	# this, tmp63
	movq	336(%rax), %rdx	# <variable>.m_windowStyle, D.59823
	movl	-12(%rbp), %eax	# flag, tmp64
	cltq
	andq	%rdx, %rax	# D.59823, D.59825
	testq	%rax, %rax	# D.59825
	setne	%al	#, D.59822
	leave
	ret
	.cfi_endproc
.LFE4823:
	.size	_ZNK12wxWindowBase7HasFlagEi, .-_ZNK12wxWindowBase7HasFlagEi
	.section	.text._ZN12wxWindowBase13SetExtraStyleEl,"axG",@progbits,_ZN12wxWindowBase13SetExtraStyleEl,comdat
	.align 2
	.weak	_ZN12wxWindowBase13SetExtraStyleEl
	.type	_ZN12wxWindowBase13SetExtraStyleEl, @function
_ZN12wxWindowBase13SetExtraStyleEl:
.LFB4825:
	.cfi_startproc
	.cfi_personality 0x3,__gxx_personality_v0
	pushq	%rbp	#
	.cfi_def_cfa_offset 16
	movq	%rsp, %rbp	#,
	.cfi_offset 6, -16
	.cfi_def_cfa_register 6
	movq	%rdi, -8(%rbp)	# this, this
	movq	%rsi, -16(%rbp)	# exStyle, exStyle
	movq	-8(%rbp), %rax	# this, tmp58
	movq	-16(%rbp), %rdx	# exStyle, tmp59
	movq	%rdx, 344(%rax)	# tmp59, <variable>.m_exStyle
	leave
	ret
	.cfi_endproc
.LFE4825:
	.size	_ZN12wxWindowBase13SetExtraStyleEl, .-_ZN12wxWindowBase13SetExtraStyleEl
	.section	.text._ZN12wxWindowBase15SetThemeEnabledEb,"axG",@progbits,_ZN12wxWindowBase15SetThemeEnabledEb,comdat
	.align 2
	.weak	_ZN12wxWindowBase15SetThemeEnabledEb
	.type	_ZN12wxWindowBase15SetThemeEnabledEb, @function
_ZN12wxWindowBase15SetThemeEnabledEb:
.LFB4827:
	.cfi_startproc
	.cfi_personality 0x3,__gxx_personality_v0
	pushq	%rbp	#
	.cfi_def_cfa_offset 16
	movq	%rsp, %rbp	#,
	.cfi_offset 6, -16
	.cfi_def_cfa_register 6
	movq	%rdi, -8(%rbp)	# this, this
	movl	%esi, %eax	# enableTheme, tmp58
	movb	%al, -12(%rbp)	# tmp58, enableTheme
	movq	-8(%rbp), %rax	# this, tmp59
	movzbl	-12(%rbp), %edx	# enableTheme, tmp60
	movb	%dl, 360(%rax)	# tmp60, <variable>.m_themeEnabled
	leave
	ret
	.cfi_endproc
.LFE4827:
	.size	_ZN12wxWindowBase15SetThemeEnabledEb, .-_ZN12wxWindowBase15SetThemeEnabledEb
	.section	.text._ZNK12wxWindowBase15GetThemeEnabledEv,"axG",@progbits,_ZNK12wxWindowBase15GetThemeEnabledEv,comdat
	.align 2
	.weak	_ZNK12wxWindowBase15GetThemeEnabledEv
	.type	_ZNK12wxWindowBase15GetThemeEnabledEv, @function
_ZNK12wxWindowBase15GetThemeEnabledEv:
.LFB4828:
	.cfi_startproc
	.cfi_personality 0x3,__gxx_personality_v0
	pushq	%rbp	#
	.cfi_def_cfa_offset 16
	movq	%rsp, %rbp	#,
	.cfi_offset 6, -16
	.cfi_def_cfa_register 6
	movq	%rdi, -8(%rbp)	# this, this
	movq	-8(%rbp), %rax	# this, tmp60
	movzbl	360(%rax), %eax	# <variable>.m_themeEnabled, D.59834
	leave
	ret
	.cfi_endproc
.LFE4828:
	.size	_ZNK12wxWindowBase15GetThemeEnabledEv, .-_ZNK12wxWindowBase15GetThemeEnabledEv
	.section	.text._ZN12wxWindowBase15SetFocusFromKbdEv,"axG",@progbits,_ZN12wxWindowBase15SetFocusFromKbdEv,comdat
	.align 2
	.weak	_ZN12wxWindowBase15SetFocusFromKbdEv
	.type	_ZN12wxWindowBase15SetFocusFromKbdEv, @function
_ZN12wxWindowBase15SetFocusFromKbdEv:
.LFB4829:
	.cfi_startproc
	.cfi_personality 0x3,__gxx_personality_v0
	pushq	%rbp	#
	.cfi_def_cfa_offset 16
	movq	%rsp, %rbp	#,
	.cfi_offset 6, -16
	.cfi_def_cfa_register 6
	subq	$16, %rsp	#,
	movq	%rdi, -8(%rbp)	# this, this
	movq	-8(%rbp), %rax	# this, tmp61
	movq	(%rax), %rax	# <variable>.D.59436.D.47561._vptr.wxObject, D.59836
	addq	$408, %rax	#, D.59837
	movq	(%rax), %rdx	#* D.59837, D.59838
	movq	-8(%rbp), %rax	# this, tmp62
	movq	%rax, %rdi	# tmp62,
	call	*%rdx	# D.59838
	leave
	ret
	.cfi_endproc
.LFE4829:
	.size	_ZN12wxWindowBase15SetFocusFromKbdEv, .-_ZN12wxWindowBase15SetFocusFromKbdEv
	.section	.text._ZNK12wxWindowBase24AcceptsFocusFromKeyboardEv,"axG",@progbits,_ZNK12wxWindowBase24AcceptsFocusFromKeyboardEv,comdat
	.align 2
	.weak	_ZNK12wxWindowBase24AcceptsFocusFromKeyboardEv
	.type	_ZNK12wxWindowBase24AcceptsFocusFromKeyboardEv, @function
_ZNK12wxWindowBase24AcceptsFocusFromKeyboardEv:
.LFB4831:
	.cfi_startproc
	.cfi_personality 0x3,__gxx_personality_v0
	pushq	%rbp	#
	.cfi_def_cfa_offset 16
	movq	%rsp, %rbp	#,
	.cfi_offset 6, -16
	.cfi_def_cfa_register 6
	subq	$16, %rsp	#,
	movq	%rdi, -8(%rbp)	# this, this
	movq	-8(%rbp), %rax	# this, tmp64
	movq	(%rax), %rax	# <variable>.D.59436.D.47561._vptr.wxObject, D.59856
	addq	$424, %rax	#, D.59857
	movq	(%rax), %rdx	#* D.59857, D.59858
	movq	-8(%rbp), %rax	# this, tmp65
	movq	%rax, %rdi	# tmp65,
	call	*%rdx	# D.59858
	leave
	ret
	.cfi_endproc
.LFE4831:
	.size	_ZNK12wxWindowBase24AcceptsFocusFromKeyboardEv, .-_ZNK12wxWindowBase24AcceptsFocusFromKeyboardEv
	.section	.text._ZN12wxWindowBase12GetValidatorEv,"axG",@progbits,_ZN12wxWindowBase12GetValidatorEv,comdat
	.align 2
	.weak	_ZN12wxWindowBase12GetValidatorEv
	.type	_ZN12wxWindowBase12GetValidatorEv, @function
_ZN12wxWindowBase12GetValidatorEv:
.LFB4843:
	.cfi_startproc
	.cfi_personality 0x3,__gxx_personality_v0
	pushq	%rbp	#
	.cfi_def_cfa_offset 16
	movq	%rsp, %rbp	#,
	.cfi_offset 6, -16
	.cfi_def_cfa_register 6
	movq	%rdi, -8(%rbp)	# this, this
	movq	-8(%rbp), %rax	# this, tmp60
	movq	168(%rax), %rax	# <variable>.m_windowValidator, D.59889
	leave
	ret
	.cfi_endproc
.LFE4843:
	.size	_ZN12wxWindowBase12GetValidatorEv, .-_ZN12wxWindowBase12GetValidatorEv
	.section	.text._ZN18wxAcceleratorTableaSERKS_,"axG",@progbits,_ZN18wxAcceleratorTableaSERKS_,comdat
	.align 2
	.weak	_ZN18wxAcceleratorTableaSERKS_
	.type	_ZN18wxAcceleratorTableaSERKS_, @function
_ZN18wxAcceleratorTableaSERKS_:
.LFB4845:
	.cfi_startproc
	.cfi_personality 0x3,__gxx_personality_v0
	pushq	%rbp	#
	.cfi_def_cfa_offset 16
	movq	%rsp, %rbp	#,
	.cfi_offset 6, -16
	.cfi_def_cfa_register 6
	subq	$16, %rsp	#,
	movq	%rdi, -8(%rbp)	# this, this
	movq	%rsi, -16(%rbp)	# D.59892, D.59892
	movq	-16(%rbp), %rdx	# D.59892, D.59895
	movq	-8(%rbp), %rax	# this, D.59896
	movq	%rdx, %rsi	# D.59895,
	movq	%rax, %rdi	# D.59896,
	call	_ZN8wxObjectaSERKS_	#
	movq	-8(%rbp), %rax	# this, D.59897
	leave
	ret
	.cfi_endproc
.LFE4845:
	.size	_ZN18wxAcceleratorTableaSERKS_, .-_ZN18wxAcceleratorTableaSERKS_
	.section	.text._ZN12wxWindowBase19SetAcceleratorTableERK18wxAcceleratorTable,"axG",@progbits,_ZN12wxWindowBase19SetAcceleratorTableERK18wxAcceleratorTable,comdat
	.align 2
	.weak	_ZN12wxWindowBase19SetAcceleratorTableERK18wxAcceleratorTable
	.type	_ZN12wxWindowBase19SetAcceleratorTableERK18wxAcceleratorTable, @function
_ZN12wxWindowBase19SetAcceleratorTableERK18wxAcceleratorTable:
.LFB4844:
	.cfi_startproc
	.cfi_personality 0x3,__gxx_personality_v0
	pushq	%rbp	#
	.cfi_def_cfa_offset 16
	movq	%rsp, %rbp	#,
	.cfi_offset 6, -16
	.cfi_def_cfa_register 6
	subq	$16, %rsp	#,
	movq	%rdi, -8(%rbp)	# this, this
	movq	%rsi, -16(%rbp)	# accel, accel
	movq	-8(%rbp), %rax	# this, tmp59
	leaq	272(%rax), %rdx	#, D.59898
	movq	-16(%rbp), %rax	# accel, tmp60
	movq	%rax, %rsi	# tmp60,
	movq	%rdx, %rdi	# D.59898,
	call	_ZN18wxAcceleratorTableaSERKS_	#
	leave
	ret
	.cfi_endproc
.LFE4844:
	.size	_ZN12wxWindowBase19SetAcceleratorTableERK18wxAcceleratorTable, .-_ZN12wxWindowBase19SetAcceleratorTableERK18wxAcceleratorTable
	.section	.text._ZNK12wxWindowBase10HasCaptureEv,"axG",@progbits,_ZNK12wxWindowBase10HasCaptureEv,comdat
	.align 2
	.weak	_ZNK12wxWindowBase10HasCaptureEv
	.type	_ZNK12wxWindowBase10HasCaptureEv, @function
_ZNK12wxWindowBase10HasCaptureEv:
.LFB4849:
	.cfi_startproc
	.cfi_personality 0x3,__gxx_personality_v0
	pushq	%rbp	#
	.cfi_def_cfa_offset 16
	movq	%rsp, %rbp	#,
	.cfi_offset 6, -16
	.cfi_def_cfa_register 6
	subq	$16, %rsp	#,
	movq	%rdi, -8(%rbp)	# this, this
	call	_ZN12wxWindowBase10GetCaptureEv	#
	movq	-8(%rbp), %rdx	# this, this.839
	cmpq	%rdx, %rax	# this.839, D.59923
	sete	%al	#, D.59922
	leave
	ret
	.cfi_endproc
.LFE4849:
	.size	_ZNK12wxWindowBase10HasCaptureEv, .-_ZNK12wxWindowBase10HasCaptureEv
	.section	.text._ZN12wxWindowBase6FreezeEv,"axG",@progbits,_ZN12wxWindowBase6FreezeEv,comdat
	.align 2
	.weak	_ZN12wxWindowBase6FreezeEv
	.type	_ZN12wxWindowBase6FreezeEv, @function
_ZN12wxWindowBase6FreezeEv:
.LFB4852:
	.cfi_startproc
	.cfi_personality 0x3,__gxx_personality_v0
	pushq	%rbp	#
	.cfi_def_cfa_offset 16
	movq	%rsp, %rbp	#,
	.cfi_offset 6, -16
	.cfi_def_cfa_register 6
	movq	%rdi, -8(%rbp)	# this, this
	leave
	ret
	.cfi_endproc
.LFE4852:
	.size	_ZN12wxWindowBase6FreezeEv, .-_ZN12wxWindowBase6FreezeEv
	.section	.text._ZN12wxWindowBase4ThawEv,"axG",@progbits,_ZN12wxWindowBase4ThawEv,comdat
	.align 2
	.weak	_ZN12wxWindowBase4ThawEv
	.type	_ZN12wxWindowBase4ThawEv, @function
_ZN12wxWindowBase4ThawEv:
.LFB4853:
	.cfi_startproc
	.cfi_personality 0x3,__gxx_personality_v0
	pushq	%rbp	#
	.cfi_def_cfa_offset 16
	movq	%rsp, %rbp	#,
	.cfi_offset 6, -16
	.cfi_def_cfa_register 6
	movq	%rdi, -8(%rbp)	# this, this
	leave
	ret
	.cfi_endproc
.LFE4853:
	.size	_ZN12wxWindowBase4ThawEv, .-_ZN12wxWindowBase4ThawEv
	.section	.text._ZNK12wxWindowBase8IsFrozenEv,"axG",@progbits,_ZNK12wxWindowBase8IsFrozenEv,comdat
	.align 2
	.weak	_ZNK12wxWindowBase8IsFrozenEv
	.type	_ZNK12wxWindowBase8IsFrozenEv, @function
_ZNK12wxWindowBase8IsFrozenEv:
.LFB4854:
	.cfi_startproc
	.cfi_personality 0x3,__gxx_personality_v0
	pushq	%rbp	#
	.cfi_def_cfa_offset 16
	movq	%rsp, %rbp	#,
	.cfi_offset 6, -16
	.cfi_def_cfa_register 6
	movq	%rdi, -8(%rbp)	# this, this
	movl	$0, %eax	#, D.59934
	leave
	ret
	.cfi_endproc
.LFE4854:
	.size	_ZNK12wxWindowBase8IsFrozenEv, .-_ZNK12wxWindowBase8IsFrozenEv
	.section	.text._ZN12wxWindowBase9PrepareDCER4wxDC,"axG",@progbits,_ZN12wxWindowBase9PrepareDCER4wxDC,comdat
	.align 2
	.weak	_ZN12wxWindowBase9PrepareDCER4wxDC
	.type	_ZN12wxWindowBase9PrepareDCER4wxDC, @function
_ZN12wxWindowBase9PrepareDCER4wxDC:
.LFB4855:
	.cfi_startproc
	.cfi_personality 0x3,__gxx_personality_v0
	pushq	%rbp	#
	.cfi_def_cfa_offset 16
	movq	%rsp, %rbp	#,
	.cfi_offset 6, -16
	.cfi_def_cfa_register 6
	movq	%rdi, -8(%rbp)	# this, this
	movq	%rsi, -16(%rbp)	# D.58910, D.58910
	leave
	ret
	.cfi_endproc
.LFE4855:
	.size	_ZN12wxWindowBase9PrepareDCER4wxDC, .-_ZN12wxWindowBase9PrepareDCER4wxDC
	.section	.text._ZNK12wxWindowBase20GetDefaultAttributesEv,"axG",@progbits,_ZNK12wxWindowBase20GetDefaultAttributesEv,comdat
	.align 2
	.weak	_ZNK12wxWindowBase20GetDefaultAttributesEv
	.type	_ZNK12wxWindowBase20GetDefaultAttributesEv, @function
_ZNK12wxWindowBase20GetDefaultAttributesEv:
.LFB4863:
	.cfi_startproc
	.cfi_personality 0x3,__gxx_personality_v0
	pushq	%rbp	#
	.cfi_def_cfa_offset 16
	movq	%rsp, %rbp	#,
	.cfi_offset 6, -16
	.cfi_def_cfa_register 6
	pushq	%r12	#
	pushq	%rbx	#
	subq	$16, %rsp	#,
	movq	%rdi, %rbx	# D.246141, <result>
	.cfi_offset 3, -32
	.cfi_offset 12, -24
	movq	%rsi, -24(%rbp)	# this, this
	movq	%rbx, %r12	# <result>, D.60124
	movq	-24(%rbp), %rax	# this, tmp61
	movq	%rax, %rdi	# tmp61,
	call	_ZNK12wxWindowBase16GetWindowVariantEv	#
	movl	%eax, %esi	# D.60125,
	movq	%r12, %rdi	# D.60124,
	call	_ZN12wxWindowBase25GetClassDefaultAttributesE15wxWindowVariant	#
	movq	%rbx, %rax	# <result>,
	movq	%rbx, %rax	# <result>,
	addq	$16, %rsp	#,
	popq	%rbx	#
	popq	%r12	#
	leave
	ret
	.cfi_endproc
.LFE4863:
	.size	_ZNK12wxWindowBase20GetDefaultAttributesEv, .-_ZNK12wxWindowBase20GetDefaultAttributesEv
	.section	.text._ZNK12wxWindowBase18GetBackgroundStyleEv,"axG",@progbits,_ZNK12wxWindowBase18GetBackgroundStyleEv,comdat
	.align 2
	.weak	_ZNK12wxWindowBase18GetBackgroundStyleEv
	.type	_ZNK12wxWindowBase18GetBackgroundStyleEv, @function
_ZNK12wxWindowBase18GetBackgroundStyleEv:
.LFB4890:
	.cfi_startproc
	.cfi_personality 0x3,__gxx_personality_v0
	pushq	%rbp	#
	.cfi_def_cfa_offset 16
	movq	%rsp, %rbp	#,
	.cfi_offset 6, -16
	.cfi_def_cfa_register 6
	movq	%rdi, -8(%rbp)	# this, this
	movq	-8(%rbp), %rax	# this, tmp60
	movl	364(%rax), %eax	# <variable>.m_backgroundStyle, D.60151
	leave
	ret
	.cfi_endproc
.LFE4890:
	.size	_ZNK12wxWindowBase18GetBackgroundStyleEv, .-_ZNK12wxWindowBase18GetBackgroundStyleEv
	.section	.text._ZN12wxWindowBase24HasTransparentBackgroundEv,"axG",@progbits,_ZN12wxWindowBase24HasTransparentBackgroundEv,comdat
	.align 2
	.weak	_ZN12wxWindowBase24HasTransparentBackgroundEv
	.type	_ZN12wxWindowBase24HasTransparentBackgroundEv, @function
_ZN12wxWindowBase24HasTransparentBackgroundEv:
.LFB4891:
	.cfi_startproc
	.cfi_personality 0x3,__gxx_personality_v0
	pushq	%rbp	#
	.cfi_def_cfa_offset 16
	movq	%rsp, %rbp	#,
	.cfi_offset 6, -16
	.cfi_def_cfa_register 6
	movq	%rdi, -8(%rbp)	# this, this
	movl	$0, %eax	#, D.60153
	leave
	ret
	.cfi_endproc
.LFE4891:
	.size	_ZN12wxWindowBase24HasTransparentBackgroundEv, .-_ZN12wxWindowBase24HasTransparentBackgroundEv
	.section	.text._ZNK12wxWindowBase16HasMultiplePagesEv,"axG",@progbits,_ZNK12wxWindowBase16HasMultiplePagesEv,comdat
	.align 2
	.weak	_ZNK12wxWindowBase16HasMultiplePagesEv
	.type	_ZNK12wxWindowBase16HasMultiplePagesEv, @function
_ZNK12wxWindowBase16HasMultiplePagesEv:
.LFB4904:
	.cfi_startproc
	.cfi_personality 0x3,__gxx_personality_v0
	pushq	%rbp	#
	.cfi_def_cfa_offset 16
	movq	%rsp, %rbp	#,
	.cfi_offset 6, -16
	.cfi_def_cfa_register 6
	movq	%rdi, -8(%rbp)	# this, this
	movl	$0, %eax	#, D.60235
	leave
	ret
	.cfi_endproc
.LFE4904:
	.size	_ZNK12wxWindowBase16HasMultiplePagesEv, .-_ZNK12wxWindowBase16HasMultiplePagesEv
	.section	.text._ZNK12wxWindowBase13GetDropTargetEv,"axG",@progbits,_ZNK12wxWindowBase13GetDropTargetEv,comdat
	.align 2
	.weak	_ZNK12wxWindowBase13GetDropTargetEv
	.type	_ZNK12wxWindowBase13GetDropTargetEv, @function
_ZNK12wxWindowBase13GetDropTargetEv:
.LFB4916:
	.cfi_startproc
	.cfi_personality 0x3,__gxx_personality_v0
	pushq	%rbp	#
	.cfi_def_cfa_offset 16
	movq	%rsp, %rbp	#,
	.cfi_offset 6, -16
	.cfi_def_cfa_register 6
	movq	%rdi, -8(%rbp)	# this, this
	movq	-8(%rbp), %rax	# this, tmp60
	movq	176(%rax), %rax	# <variable>.m_dropTarget, D.60287
	leave
	ret
	.cfi_endproc
.LFE4916:
	.size	_ZNK12wxWindowBase13GetDropTargetEv, .-_ZNK12wxWindowBase13GetDropTargetEv
	.section	.text._ZN12wxWindowBase14SetTransparentEh,"axG",@progbits,_ZN12wxWindowBase14SetTransparentEh,comdat
	.align 2
	.weak	_ZN12wxWindowBase14SetTransparentEh
	.type	_ZN12wxWindowBase14SetTransparentEh, @function
_ZN12wxWindowBase14SetTransparentEh:
.LFB4923:
	.cfi_startproc
	.cfi_personality 0x3,__gxx_personality_v0
	pushq	%rbp	#
	.cfi_def_cfa_offset 16
	movq	%rsp, %rbp	#,
	.cfi_offset 6, -16
	.cfi_def_cfa_register 6
	movq	%rdi, -8(%rbp)	# this, this
	movl	%esi, %eax	# D.59202, tmp60
	movb	%al, -12(%rbp)	# tmp60, D.59202
	movl	$0, %eax	#, D.60300
	leave
	ret
	.cfi_endproc
.LFE4923:
	.size	_ZN12wxWindowBase14SetTransparentEh, .-_ZN12wxWindowBase14SetTransparentEh
	.section	.text._ZN12wxWindowBase17CanSetTransparentEv,"axG",@progbits,_ZN12wxWindowBase17CanSetTransparentEv,comdat
	.align 2
	.weak	_ZN12wxWindowBase17CanSetTransparentEv
	.type	_ZN12wxWindowBase17CanSetTransparentEv, @function
_ZN12wxWindowBase17CanSetTransparentEv:
.LFB4924:
	.cfi_startproc
	.cfi_personality 0x3,__gxx_personality_v0
	pushq	%rbp	#
	.cfi_def_cfa_offset 16
	movq	%rsp, %rbp	#,
	.cfi_offset 6, -16
	.cfi_def_cfa_register 6
	movq	%rdi, -8(%rbp)	# this, this
	movl	$0, %eax	#, D.60302
	leave
	ret
	.cfi_endproc
.LFE4924:
	.size	_ZN12wxWindowBase17CanSetTransparentEv, .-_ZN12wxWindowBase17CanSetTransparentEv
	.section	.text._ZN12wxWindowBase15AssociateHandleEP10_GtkWidget,"axG",@progbits,_ZN12wxWindowBase15AssociateHandleEP10_GtkWidget,comdat
	.align 2
	.weak	_ZN12wxWindowBase15AssociateHandleEP10_GtkWidget
	.type	_ZN12wxWindowBase15AssociateHandleEP10_GtkWidget, @function
_ZN12wxWindowBase15AssociateHandleEP10_GtkWidget:
.LFB4926:
	.cfi_startproc
	.cfi_personality 0x3,__gxx_personality_v0
	pushq	%rbp	#
	.cfi_def_cfa_offset 16
	movq	%rsp, %rbp	#,
	.cfi_offset 6, -16
	.cfi_def_cfa_register 6
	movq	%rdi, -8(%rbp)	# this, this
	movq	%rsi, -16(%rbp)	# D.59223, D.59223
	leave
	ret
	.cfi_endproc
.LFE4926:
	.size	_ZN12wxWindowBase15AssociateHandleEP10_GtkWidget, .-_ZN12wxWindowBase15AssociateHandleEP10_GtkWidget
	.section	.text._ZN12wxWindowBase16DissociateHandleEv,"axG",@progbits,_ZN12wxWindowBase16DissociateHandleEv,comdat
	.align 2
	.weak	_ZN12wxWindowBase16DissociateHandleEv
	.type	_ZN12wxWindowBase16DissociateHandleEv, @function
_ZN12wxWindowBase16DissociateHandleEv:
.LFB4927:
	.cfi_startproc
	.cfi_personality 0x3,__gxx_personality_v0
	pushq	%rbp	#
	.cfi_def_cfa_offset 16
	movq	%rsp, %rbp	#,
	.cfi_offset 6, -16
	.cfi_def_cfa_register 6
	movq	%rdi, -8(%rbp)	# this, this
	leave
	ret
	.cfi_endproc
.LFE4927:
	.size	_ZN12wxWindowBase16DissociateHandleEv, .-_ZN12wxWindowBase16DissociateHandleEv
	.section	.text._ZNK12wxWindowBase20ShouldInheritColoursEv,"axG",@progbits,_ZNK12wxWindowBase20ShouldInheritColoursEv,comdat
	.align 2
	.weak	_ZNK12wxWindowBase20ShouldInheritColoursEv
	.type	_ZNK12wxWindowBase20ShouldInheritColoursEv, @function
_ZNK12wxWindowBase20ShouldInheritColoursEv:
.LFB4936:
	.cfi_startproc
	.cfi_personality 0x3,__gxx_personality_v0
	pushq	%rbp	#
	.cfi_def_cfa_offset 16
	movq	%rsp, %rbp	#,
	.cfi_offset 6, -16
	.cfi_def_cfa_register 6
	movq	%rdi, -8(%rbp)	# this, this
	movl	$0, %eax	#, D.60362
	leave
	ret
	.cfi_endproc
.LFE4936:
	.size	_ZNK12wxWindowBase20ShouldInheritColoursEv, .-_ZNK12wxWindowBase20ShouldInheritColoursEv
	.section	.text._ZN12wxWindowBase31GetMainWindowOfCompositeControlEv,"axG",@progbits,_ZN12wxWindowBase31GetMainWindowOfCompositeControlEv,comdat
	.align 2
	.weak	_ZN12wxWindowBase31GetMainWindowOfCompositeControlEv
	.type	_ZN12wxWindowBase31GetMainWindowOfCompositeControlEv, @function
_ZN12wxWindowBase31GetMainWindowOfCompositeControlEv:
.LFB4937:
	.cfi_startproc
	.cfi_personality 0x3,__gxx_personality_v0
	pushq	%rbp	#
	.cfi_def_cfa_offset 16
	movq	%rsp, %rbp	#,
	.cfi_offset 6, -16
	.cfi_def_cfa_register 6
	movq	%rdi, -8(%rbp)	# this, this
	movq	-8(%rbp), %rax	# this, D.60364
	leave
	ret
	.cfi_endproc
.LFE4937:
	.size	_ZN12wxWindowBase31GetMainWindowOfCompositeControlEv, .-_ZN12wxWindowBase31GetMainWindowOfCompositeControlEv
	.section	.text._ZNK12wxWindowBase27GetWindowSizeForVirtualSizeERK6wxSize,"axG",@progbits,_ZNK12wxWindowBase27GetWindowSizeForVirtualSizeERK6wxSize,comdat
	.align 2
	.weak	_ZNK12wxWindowBase27GetWindowSizeForVirtualSizeERK6wxSize
	.type	_ZNK12wxWindowBase27GetWindowSizeForVirtualSizeERK6wxSize, @function
_ZNK12wxWindowBase27GetWindowSizeForVirtualSizeERK6wxSize:
.LFB4940:
	.cfi_startproc
	.cfi_personality 0x3,__gxx_personality_v0
	pushq	%rbp	#
	.cfi_def_cfa_offset 16
	movq	%rsp, %rbp	#,
	.cfi_offset 6, -16
	.cfi_def_cfa_register 6
	movq	%rdi, -8(%rbp)	# this, this
	movq	%rsi, -16(%rbp)	# size, size
	movq	-16(%rbp), %rax	# size, tmp60
	movq	(%rax), %rax	#, D.60379
	leave
	ret
	.cfi_endproc
.LFE4940:
	.size	_ZNK12wxWindowBase27GetWindowSizeForVirtualSizeERK6wxSize, .-_ZNK12wxWindowBase27GetWindowSizeForVirtualSizeERK6wxSize
	.section	.text._ZN12wxWindowBase18SetInitialBestSizeERK6wxSize,"axG",@progbits,_ZN12wxWindowBase18SetInitialBestSizeERK6wxSize,comdat
	.align 2
	.weak	_ZN12wxWindowBase18SetInitialBestSizeERK6wxSize
	.type	_ZN12wxWindowBase18SetInitialBestSizeERK6wxSize, @function
_ZN12wxWindowBase18SetInitialBestSizeERK6wxSize:
.LFB4944:
	.cfi_startproc
	.cfi_personality 0x3,__gxx_personality_v0
	pushq	%rbp	#
	.cfi_def_cfa_offset 16
	movq	%rsp, %rbp	#,
	.cfi_offset 6, -16
	.cfi_def_cfa_register 6
	subq	$16, %rsp	#,
	movq	%rdi, -8(%rbp)	# this, this
	movq	%rsi, -16(%rbp)	# size, size
	movq	-16(%rbp), %rdx	# size, tmp58
	movq	-8(%rbp), %rax	# this, tmp59
	movq	%rdx, %rsi	# tmp58,
	movq	%rax, %rdi	# tmp59,
	call	_ZN12wxWindowBase14SetInitialSizeERK6wxSize	#
	leave
	ret
	.cfi_endproc
.LFE4944:
	.size	_ZN12wxWindowBase18SetInitialBestSizeERK6wxSize, .-_ZN12wxWindowBase18SetInitialBestSizeERK6wxSize
	.section	.text._ZN8wxWindow8SetLabelERK8wxString,"axG",@progbits,_ZN8wxWindow8SetLabelERK8wxString,comdat
	.align 2
	.weak	_ZN8wxWindow8SetLabelERK8wxString
	.type	_ZN8wxWindow8SetLabelERK8wxString, @function
_ZN8wxWindow8SetLabelERK8wxString:
.LFB5032:
	.cfi_startproc
	.cfi_personality 0x3,__gxx_personality_v0
	pushq	%rbp	#
	.cfi_def_cfa_offset 16
	movq	%rsp, %rbp	#,
	.cfi_offset 6, -16
	.cfi_def_cfa_register 6
	movq	%rdi, -8(%rbp)	# this, this
	movq	%rsi, -16(%rbp)	# D.61056, D.61056
	leave
	ret
	.cfi_endproc
.LFE5032:
	.size	_ZN8wxWindow8SetLabelERK8wxString, .-_ZN8wxWindow8SetLabelERK8wxString
	.section	.text._ZNK8wxWindow8GetLabelEv,"axG",@progbits,_ZNK8wxWindow8GetLabelEv,comdat
	.align 2
	.weak	_ZNK8wxWindow8GetLabelEv
	.type	_ZNK8wxWindow8GetLabelEv, @function
_ZNK8wxWindow8GetLabelEv:
.LFB5033:
	.cfi_startproc
	.cfi_personality 0x3,__gxx_personality_v0
	pushq	%rbp	#
	.cfi_def_cfa_offset 16
	movq	%rsp, %rbp	#,
	.cfi_offset 6, -16
	.cfi_def_cfa_register 6
	pushq	%rbx	#
	subq	$24, %rsp	#,
	movq	%rdi, %rbx	# D.246143, <result>
	.cfi_offset 3, -24
	movq	%rsi, -24(%rbp)	# this, this
	movq	%rbx, %rax	# <result>, D.61478
	movq	wxEmptyString(%rip), %rdx	# wxEmptyString, wxEmptyString.881
	movq	%rdx, %rsi	# wxEmptyString.881,
	movq	%rax, %rdi	# D.61478,
	call	_ZN8wxStringC1EPKw	#
	movq	%rbx, %rax	# <result>,
	movq	%rbx, %rax	# <result>,
	addq	$24, %rsp	#,
	popq	%rbx	#
	leave
	ret
	.cfi_endproc
.LFE5033:
	.size	_ZNK8wxWindow8GetLabelEv, .-_ZNK8wxWindow8GetLabelEv
	.section	.text._ZNK8wxWindow9GetHandleEv,"axG",@progbits,_ZNK8wxWindow9GetHandleEv,comdat
	.align 2
	.weak	_ZNK8wxWindow9GetHandleEv
	.type	_ZNK8wxWindow9GetHandleEv, @function
_ZNK8wxWindow9GetHandleEv:
.LFB5034:
	.cfi_startproc
	.cfi_personality 0x3,__gxx_personality_v0
	pushq	%rbp	#
	.cfi_def_cfa_offset 16
	movq	%rsp, %rbp	#,
	.cfi_offset 6, -16
	.cfi_def_cfa_register 6
	movq	%rdi, -8(%rbp)	# this, this
	movq	-8(%rbp), %rax	# this, tmp60
	movq	464(%rax), %rax	# <variable>.m_widget, D.61481
	leave
	ret
	.cfi_endproc
.LFE5034:
	.size	_ZNK8wxWindow9GetHandleEv, .-_ZNK8wxWindow9GetHandleEv
	.section	.text._ZN8wxWindow14OnParentEnableEb,"axG",@progbits,_ZN8wxWindow14OnParentEnableEb,comdat
	.align 2
	.weak	_ZN8wxWindow14OnParentEnableEb
	.type	_ZN8wxWindow14OnParentEnableEb, @function
_ZN8wxWindow14OnParentEnableEb:
.LFB5036:
	.cfi_startproc
	.cfi_personality 0x3,__gxx_personality_v0
	pushq	%rbp	#
	.cfi_def_cfa_offset 16
	movq	%rsp, %rbp	#,
	.cfi_offset 6, -16
	.cfi_def_cfa_register 6
	movq	%rdi, -8(%rbp)	# this, this
	movl	%esi, %eax	# D.61199, tmp58
	movb	%al, -12(%rbp)	# tmp58, D.61199
	leave
	ret
	.cfi_endproc
.LFE5036:
	.size	_ZN8wxWindow14OnParentEnableEb, .-_ZN8wxWindow14OnParentEnableEb
	.section	.text._ZN8wxWindow15FixUpMouseEventEP10_GtkWidgetRiS2_,"axG",@progbits,_ZN8wxWindow15FixUpMouseEventEP10_GtkWidgetRiS2_,comdat
	.align 2
	.weak	_ZN8wxWindow15FixUpMouseEventEP10_GtkWidgetRiS2_
	.type	_ZN8wxWindow15FixUpMouseEventEP10_GtkWidgetRiS2_, @function
_ZN8wxWindow15FixUpMouseEventEP10_GtkWidgetRiS2_:
.LFB5039:
	.cfi_startproc
	.cfi_personality 0x3,__gxx_personality_v0
	pushq	%rbp	#
	.cfi_def_cfa_offset 16
	movq	%rsp, %rbp	#,
	.cfi_offset 6, -16
	.cfi_def_cfa_register 6
	movq	%rdi, -8(%rbp)	# this, this
	movq	%rsi, -16(%rbp)	# D.61256, D.61256
	movq	%rdx, -24(%rbp)	# D.61257, D.61257
	movq	%rcx, -32(%rbp)	# D.61258, D.61258
	leave
	ret
	.cfi_endproc
.LFE5039:
	.size	_ZN8wxWindow15FixUpMouseEventEP10_GtkWidgetRiS2_, .-_ZN8wxWindow15FixUpMouseEventEP10_GtkWidgetRiS2_
	.section	.text._ZNK8wxWindow21IsTransparentForMouseEv,"axG",@progbits,_ZNK8wxWindow21IsTransparentForMouseEv,comdat
	.align 2
	.weak	_ZNK8wxWindow21IsTransparentForMouseEv
	.type	_ZNK8wxWindow21IsTransparentForMouseEv, @function
_ZNK8wxWindow21IsTransparentForMouseEv:
.LFB5040:
	.cfi_startproc
	.cfi_personality 0x3,__gxx_personality_v0
	pushq	%rbp	#
	.cfi_def_cfa_offset 16
	movq	%rsp, %rbp	#,
	.cfi_offset 6, -16
	.cfi_def_cfa_register 6
	movq	%rdi, -8(%rbp)	# this, this
	movl	$0, %eax	#, D.61488
	leave
	ret
	.cfi_endproc
.LFE5040:
	.size	_ZNK8wxWindow21IsTransparentForMouseEv, .-_ZNK8wxWindow21IsTransparentForMouseEv
	.section	.text._ZNK8wxWindow13IsRadioButtonEv,"axG",@progbits,_ZNK8wxWindow13IsRadioButtonEv,comdat
	.align 2
	.weak	_ZNK8wxWindow13IsRadioButtonEv
	.type	_ZNK8wxWindow13IsRadioButtonEv, @function
_ZNK8wxWindow13IsRadioButtonEv:
.LFB5041:
	.cfi_startproc
	.cfi_personality 0x3,__gxx_personality_v0
	pushq	%rbp	#
	.cfi_def_cfa_offset 16
	movq	%rsp, %rbp	#,
	.cfi_offset 6, -16
	.cfi_def_cfa_register 6
	movq	%rdi, -8(%rbp)	# this, this
	movl	$0, %eax	#, D.61490
	leave
	ret
	.cfi_endproc
.LFE5041:
	.size	_ZNK8wxWindow13IsRadioButtonEv, .-_ZNK8wxWindow13IsRadioButtonEv
	.section	.text._ZNK20wxTopLevelWindowBase20ShouldPreventAppExitEv,"axG",@progbits,_ZNK20wxTopLevelWindowBase20ShouldPreventAppExitEv,comdat
	.align 2
	.weak	_ZNK20wxTopLevelWindowBase20ShouldPreventAppExitEv
	.type	_ZNK20wxTopLevelWindowBase20ShouldPreventAppExitEv, @function
_ZNK20wxTopLevelWindowBase20ShouldPreventAppExitEv:
.LFB5100:
	.cfi_startproc
	.cfi_personality 0x3,__gxx_personality_v0
	pushq	%rbp	#
	.cfi_def_cfa_offset 16
	movq	%rsp, %rbp	#,
	.cfi_offset 6, -16
	.cfi_def_cfa_register 6
	movq	%rdi, -8(%rbp)	# this, this
	movl	$1, %eax	#, D.62285
	leave
	ret
	.cfi_endproc
.LFE5100:
	.size	_ZNK20wxTopLevelWindowBase20ShouldPreventAppExitEv, .-_ZNK20wxTopLevelWindowBase20ShouldPreventAppExitEv
	.section	.text._ZNK20wxTopLevelWindowBase10IsTopLevelEv,"axG",@progbits,_ZNK20wxTopLevelWindowBase10IsTopLevelEv,comdat
	.align 2
	.weak	_ZNK20wxTopLevelWindowBase10IsTopLevelEv
	.type	_ZNK20wxTopLevelWindowBase10IsTopLevelEv, @function
_ZNK20wxTopLevelWindowBase10IsTopLevelEv:
.LFB5107:
	.cfi_startproc
	.cfi_personality 0x3,__gxx_personality_v0
	pushq	%rbp	#
	.cfi_def_cfa_offset 16
	movq	%rsp, %rbp	#,
	.cfi_offset 6, -16
	.cfi_def_cfa_register 6
	movq	%rdi, -8(%rbp)	# this, this
	movl	$1, %eax	#, D.62310
	leave
	ret
	.cfi_endproc
.LFE5107:
	.size	_ZNK20wxTopLevelWindowBase10IsTopLevelEv, .-_ZNK20wxTopLevelWindowBase10IsTopLevelEv
	.section	.text._ZNK20wxTopLevelWindowBase9IsVisibleEv,"axG",@progbits,_ZNK20wxTopLevelWindowBase9IsVisibleEv,comdat
	.align 2
	.weak	_ZNK20wxTopLevelWindowBase9IsVisibleEv
	.type	_ZNK20wxTopLevelWindowBase9IsVisibleEv, @function
_ZNK20wxTopLevelWindowBase9IsVisibleEv:
.LFB5108:
	.cfi_startproc
	.cfi_personality 0x3,__gxx_personality_v0
	pushq	%rbp	#
	.cfi_def_cfa_offset 16
	movq	%rsp, %rbp	#,
	.cfi_offset 6, -16
	.cfi_def_cfa_register 6
	subq	$16, %rsp	#,
	movq	%rdi, -8(%rbp)	# this, this
	movq	-8(%rbp), %rax	# this, tmp66
	movq	(%rax), %rax	# <variable>.D.62257.D.61439.D.59436.D.47561._vptr.wxObject, D.62314
	addq	$328, %rax	#, D.62315
	movq	(%rax), %rdx	#* D.62315, D.62316
	movq	-8(%rbp), %rax	# this, D.62317
	movq	%rax, %rdi	# D.62317,
	call	*%rdx	# D.62316
	leave
	ret
	.cfi_endproc
.LFE5108:
	.size	_ZNK20wxTopLevelWindowBase9IsVisibleEv, .-_ZNK20wxTopLevelWindowBase9IsVisibleEv
	.section	.text._ZNK20wxTopLevelWindowBase19DoGetScreenPositionEPiS0_,"axG",@progbits,_ZNK20wxTopLevelWindowBase19DoGetScreenPositionEPiS0_,comdat
	.align 2
	.weak	_ZNK20wxTopLevelWindowBase19DoGetScreenPositionEPiS0_
	.type	_ZNK20wxTopLevelWindowBase19DoGetScreenPositionEPiS0_, @function
_ZNK20wxTopLevelWindowBase19DoGetScreenPositionEPiS0_:
.LFB5111:
	.cfi_startproc
	.cfi_personality 0x3,__gxx_personality_v0
	pushq	%rbp	#
	.cfi_def_cfa_offset 16
	movq	%rsp, %rbp	#,
	.cfi_offset 6, -16
	.cfi_def_cfa_register 6
	pushq	%rbx	#
	subq	$40, %rsp	#,
	movq	%rdi, -24(%rbp)	# this, this
	movq	%rsi, -32(%rbp)	# x, x
	movq	%rdx, -40(%rbp)	# y, y
	movq	-24(%rbp), %rax	# this, tmp63
	movq	(%rax), %rax	# <variable>.D.62257.D.61439.D.59436.D.47561._vptr.wxObject, D.62323
	addq	$1048, %rax	#, D.62324
	movq	(%rax), %rbx	#* D.62324, D.62325
	.cfi_offset 3, -24
	movq	-24(%rbp), %rax	# this, D.62326
	movq	-40(%rbp), %rdx	# y, tmp64
	movq	-32(%rbp), %rcx	# x, tmp65
	movq	%rcx, %rsi	# tmp65,
	movq	%rax, %rdi	# D.62326,
	call	*%rbx	# D.62325
	addq	$40, %rsp	#,
	popq	%rbx	#
	leave
	ret
	.cfi_endproc
.LFE5111:
	.size	_ZNK20wxTopLevelWindowBase19DoGetScreenPositionEPiS0_, .-_ZNK20wxTopLevelWindowBase19DoGetScreenPositionEPiS0_
	.section	.text._ZNK19wxTopLevelWindowGTK12IsFullScreenEv,"axG",@progbits,_ZNK19wxTopLevelWindowGTK12IsFullScreenEv,comdat
	.align 2
	.weak	_ZNK19wxTopLevelWindowGTK12IsFullScreenEv
	.type	_ZNK19wxTopLevelWindowGTK12IsFullScreenEv, @function
_ZNK19wxTopLevelWindowGTK12IsFullScreenEv:
.LFB5121:
	.cfi_startproc
	.cfi_personality 0x3,__gxx_personality_v0
	pushq	%rbp	#
	.cfi_def_cfa_offset 16
	movq	%rsp, %rbp	#,
	.cfi_offset 6, -16
	.cfi_def_cfa_register 6
	movq	%rdi, -8(%rbp)	# this, this
	movq	-8(%rbp), %rax	# this, tmp60
	movzbl	625(%rax), %eax	# <variable>.m_fsIsShowing, D.62567
	leave
	ret
	.cfi_endproc
.LFE5121:
	.size	_ZNK19wxTopLevelWindowGTK12IsFullScreenEv, .-_ZNK19wxTopLevelWindowGTK12IsFullScreenEv
	.section	.text._ZNK19wxTopLevelWindowGTK8GetTitleEv,"axG",@progbits,_ZNK19wxTopLevelWindowGTK8GetTitleEv,comdat
	.align 2
	.weak	_ZNK19wxTopLevelWindowGTK8GetTitleEv
	.type	_ZNK19wxTopLevelWindowGTK8GetTitleEv, @function
_ZNK19wxTopLevelWindowGTK8GetTitleEv:
.LFB5122:
	.cfi_startproc
	.cfi_personality 0x3,__gxx_personality_v0
	pushq	%rbp	#
	.cfi_def_cfa_offset 16
	movq	%rsp, %rbp	#,
	.cfi_offset 6, -16
	.cfi_def_cfa_register 6
	pushq	%rbx	#
	subq	$24, %rsp	#,
	movq	%rdi, %rbx	# D.246144, <result>
	.cfi_offset 3, -24
	movq	%rsi, -24(%rbp)	# this, this
	movq	%rbx, %rax	# <result>, D.62571
	movq	-24(%rbp), %rdx	# this, tmp61
	addq	$696, %rdx	#, D.62572
	movq	%rdx, %rsi	# D.62572,
	movq	%rax, %rdi	# D.62571,
	call	_ZN8wxStringC1ERKS_	#
	movq	%rbx, %rax	# <result>,
	movq	%rbx, %rax	# <result>,
	addq	$24, %rsp	#,
	popq	%rbx	#
	leave
	ret
	.cfi_endproc
.LFE5122:
	.size	_ZNK19wxTopLevelWindowGTK8GetTitleEv, .-_ZNK19wxTopLevelWindowGTK8GetTitleEv
	.section	.text._ZNK19wxTopLevelWindowGTK9IsGrabbedEv,"axG",@progbits,_ZNK19wxTopLevelWindowGTK9IsGrabbedEv,comdat
	.align 2
	.weak	_ZNK19wxTopLevelWindowGTK9IsGrabbedEv
	.type	_ZNK19wxTopLevelWindowGTK9IsGrabbedEv, @function
_ZNK19wxTopLevelWindowGTK9IsGrabbedEv:
.LFB5123:
	.cfi_startproc
	.cfi_personality 0x3,__gxx_personality_v0
	pushq	%rbp	#
	.cfi_def_cfa_offset 16
	movq	%rsp, %rbp	#,
	.cfi_offset 6, -16
	.cfi_def_cfa_register 6
	movq	%rdi, -8(%rbp)	# this, this
	movq	-8(%rbp), %rax	# this, tmp60
	movzbl	705(%rax), %eax	# <variable>.m_grabbed, D.62574
	leave
	ret
	.cfi_endproc
.LFE5123:
	.size	_ZNK19wxTopLevelWindowGTK9IsGrabbedEv, .-_ZNK19wxTopLevelWindowGTK9IsGrabbedEv
	.section	.text._ZNK11wxFrameBase10GetMenuBarEv,"axG",@progbits,_ZNK11wxFrameBase10GetMenuBarEv,comdat
	.align 2
	.weak	_ZNK11wxFrameBase10GetMenuBarEv
	.type	_ZNK11wxFrameBase10GetMenuBarEv, @function
_ZNK11wxFrameBase10GetMenuBarEv:
.LFB5130:
	.cfi_startproc
	.cfi_personality 0x3,__gxx_personality_v0
	pushq	%rbp	#
	.cfi_def_cfa_offset 16
	movq	%rsp, %rbp	#,
	.cfi_offset 6, -16
	.cfi_def_cfa_register 6
	movq	%rdi, -8(%rbp)	# this, this
	movq	-8(%rbp), %rax	# this, tmp60
	movq	712(%rax), %rax	# <variable>.m_frameMenuBar, D.62854
	leave
	ret
	.cfi_endproc
.LFE5130:
	.size	_ZNK11wxFrameBase10GetMenuBarEv, .-_ZNK11wxFrameBase10GetMenuBarEv
	.section	.text._ZNK11wxFrameBase12GetStatusBarEv,"axG",@progbits,_ZNK11wxFrameBase12GetStatusBarEv,comdat
	.align 2
	.weak	_ZNK11wxFrameBase12GetStatusBarEv
	.type	_ZNK11wxFrameBase12GetStatusBarEv, @function
_ZNK11wxFrameBase12GetStatusBarEv:
.LFB5131:
	.cfi_startproc
	.cfi_personality 0x3,__gxx_personality_v0
	pushq	%rbp	#
	.cfi_def_cfa_offset 16
	movq	%rsp, %rbp	#,
	.cfi_offset 6, -16
	.cfi_def_cfa_register 6
	movq	%rdi, -8(%rbp)	# this, this
	movq	-8(%rbp), %rax	# this, tmp60
	movq	728(%rax), %rax	# <variable>.m_frameStatusBar, D.62856
	leave
	ret
	.cfi_endproc
.LFE5131:
	.size	_ZNK11wxFrameBase12GetStatusBarEv, .-_ZNK11wxFrameBase12GetStatusBarEv
	.section	.text._ZNK11wxFrameBase10GetToolBarEv,"axG",@progbits,_ZNK11wxFrameBase10GetToolBarEv,comdat
	.align 2
	.weak	_ZNK11wxFrameBase10GetToolBarEv
	.type	_ZNK11wxFrameBase10GetToolBarEv, @function
_ZNK11wxFrameBase10GetToolBarEv:
.LFB5134:
	.cfi_startproc
	.cfi_personality 0x3,__gxx_personality_v0
	pushq	%rbp	#
	.cfi_def_cfa_offset 16
	movq	%rsp, %rbp	#,
	.cfi_offset 6, -16
	.cfi_def_cfa_register 6
	movq	%rdi, -8(%rbp)	# this, this
	movq	-8(%rbp), %rax	# this, tmp60
	movq	744(%rax), %rax	# <variable>.m_frameToolBar, D.62861
	leave
	ret
	.cfi_endproc
.LFE5134:
	.size	_ZNK11wxFrameBase10GetToolBarEv, .-_ZNK11wxFrameBase10GetToolBarEv
	.section	.text._ZN11wxFrameBase15PositionMenuBarEv,"axG",@progbits,_ZN11wxFrameBase15PositionMenuBarEv,comdat
	.align 2
	.weak	_ZN11wxFrameBase15PositionMenuBarEv
	.type	_ZN11wxFrameBase15PositionMenuBarEv, @function
_ZN11wxFrameBase15PositionMenuBarEv:
.LFB5135:
	.cfi_startproc
	.cfi_personality 0x3,__gxx_personality_v0
	pushq	%rbp	#
	.cfi_def_cfa_offset 16
	movq	%rsp, %rbp	#,
	.cfi_offset 6, -16
	.cfi_def_cfa_register 6
	movq	%rdi, -8(%rbp)	# this, this
	leave
	ret
	.cfi_endproc
.LFE5135:
	.size	_ZN11wxFrameBase15PositionMenuBarEv, .-_ZN11wxFrameBase15PositionMenuBarEv
	.section	.text._ZN11wxFrameBase15PositionToolBarEv,"axG",@progbits,_ZN11wxFrameBase15PositionToolBarEv,comdat
	.align 2
	.weak	_ZN11wxFrameBase15PositionToolBarEv
	.type	_ZN11wxFrameBase15PositionToolBarEv, @function
_ZN11wxFrameBase15PositionToolBarEv:
.LFB5137:
	.cfi_startproc
	.cfi_personality 0x3,__gxx_personality_v0
	pushq	%rbp	#
	.cfi_def_cfa_offset 16
	movq	%rsp, %rbp	#,
	.cfi_offset 6, -16
	.cfi_def_cfa_register 6
	movq	%rdi, -8(%rbp)	# this, this
	leave
	ret
	.cfi_endproc
.LFE5137:
	.size	_ZN11wxFrameBase15PositionToolBarEv, .-_ZN11wxFrameBase15PositionToolBarEv
	.section	.text._ZN7wxFrameC2EP8wxWindowiRK8wxStringRK7wxPointRK6wxSizelS4_,"axG",@progbits,_ZN7wxFrameC2EP8wxWindowiRK8wxStringRK7wxPointRK6wxSizelS4_,comdat
	.align 2
	.weak	_ZN7wxFrameC2EP8wxWindowiRK8wxStringRK7wxPointRK6wxSizelS4_
	.type	_ZN7wxFrameC2EP8wxWindowiRK8wxStringRK7wxPointRK6wxSizelS4_, @function
_ZN7wxFrameC2EP8wxWindowiRK8wxStringRK7wxPointRK6wxSizelS4_:
.LFB5142:
	.cfi_startproc
	.cfi_personality 0x3,__gxx_personality_v0
	.cfi_lsda 0x3,.LLSDA5142
	pushq	%rbp	#
	.cfi_def_cfa_offset 16
	movq	%rsp, %rbp	#,
	.cfi_offset 6, -16
	.cfi_def_cfa_register 6
	pushq	%r12	#
	pushq	%rbx	#
	subq	$64, %rsp	#,
	movq	%rdi, -24(%rbp)	# this, this
	movq	%rsi, -32(%rbp)	# parent, parent
	movl	%edx, -36(%rbp)	# id, id
	movq	%rcx, -48(%rbp)	# title, title
	movq	%r8, -56(%rbp)	# pos, pos
	movq	%r9, -64(%rbp)	# size, size
	movq	-24(%rbp), %rax	# this, D.62991
	movq	%rax, %rdi	# D.62991,
.LEHB2:
	.cfi_offset 3, -32
	.cfi_offset 12, -24
	call	_ZN11wxFrameBaseC2Ev	#
.LEHE2:
	movq	-24(%rbp), %rax	# this, tmp62
	movq	$_ZTV7wxFrame+16, (%rax)	#, <variable>.D.62971.D.62844.D.62641.D.62511.D.62257.D.61439.D.59436.D.47561._vptr.wxObject
	movq	-24(%rbp), %rax	# this, tmp63
	movq	%rax, %rdi	# tmp63,
.LEHB3:
	call	_ZN7wxFrame4InitEv	#
	movq	-64(%rbp), %r8	# size, tmp64
	movq	-56(%rbp), %rdi	# pos, tmp65
	movq	-48(%rbp), %rcx	# title, tmp66
	movl	-36(%rbp), %edx	# id, tmp67
	movq	-32(%rbp), %rbx	# parent, tmp68
	movq	-24(%rbp), %rax	# this, tmp69
	movq	24(%rbp), %rsi	# name, tmp70
	movq	%rsi, 8(%rsp)	# tmp70,
	movq	16(%rbp), %rsi	# style, tmp71
	movq	%rsi, (%rsp)	# tmp71,
	movq	%r8, %r9	# tmp64,
	movq	%rdi, %r8	# tmp65,
	movq	%rbx, %rsi	# tmp68,
	movq	%rax, %rdi	# tmp69,
	call	_ZN7wxFrame6CreateEP8wxWindowiRK8wxStringRK7wxPointRK6wxSizelS4_	#
.LEHE3:
	jmp	.L288	#
.L287:
.L285:
	movl	%edx, %ebx	# tmp72, save_filt.3972
	movq	%rax, %r12	# tmp73, save_eptr.3971
	movq	-24(%rbp), %rax	# this, this.900
	movq	%rax, %rdi	# this.900,
	call	_ZN11wxFrameBaseD2Ev	#
	movq	%r12, %rax	# save_eptr.3971, tmp73
	movslq	%ebx,%rdx	# save_filt.3972, tmp72
	movq	%rax, %rdi	# tmp73,
.LEHB4:
	call	_Unwind_Resume	#
.LEHE4:
.L288:
	addq	$64, %rsp	#,
	popq	%rbx	#
	popq	%r12	#
	leave
	ret
	.cfi_endproc
.LFE5142:
	.size	_ZN7wxFrameC2EP8wxWindowiRK8wxStringRK7wxPointRK6wxSizelS4_, .-_ZN7wxFrameC2EP8wxWindowiRK8wxStringRK7wxPointRK6wxSizelS4_
	.section	.gcc_except_table
.LLSDA5142:
	.byte	0xff
	.byte	0xff
	.byte	0x1
	.uleb128 .LLSDACSE5142-.LLSDACSB5142
.LLSDACSB5142:
	.uleb128 .LEHB2-.LFB5142
	.uleb128 .LEHE2-.LEHB2
	.uleb128 0x0
	.uleb128 0x0
	.uleb128 .LEHB3-.LFB5142
	.uleb128 .LEHE3-.LEHB3
	.uleb128 .L287-.LFB5142
	.uleb128 0x0
	.uleb128 .LEHB4-.LFB5142
	.uleb128 .LEHE4-.LEHB4
	.uleb128 0x0
	.uleb128 0x0
.LLSDACSE5142:
	.section	.text._ZN7wxFrameC2EP8wxWindowiRK8wxStringRK7wxPointRK6wxSizelS4_,"axG",@progbits,_ZN7wxFrameC2EP8wxWindowiRK8wxStringRK7wxPointRK6wxSizelS4_,comdat
	.section	.text._ZNK7wxFrame19GetClientAreaOriginEv,"axG",@progbits,_ZNK7wxFrame19GetClientAreaOriginEv,comdat
	.align 2
	.weak	_ZNK7wxFrame19GetClientAreaOriginEv
	.type	_ZNK7wxFrame19GetClientAreaOriginEv, @function
_ZNK7wxFrame19GetClientAreaOriginEv:
.LFB5144:
	.cfi_startproc
	.cfi_personality 0x3,__gxx_personality_v0
	pushq	%rbp	#
	.cfi_def_cfa_offset 16
	movq	%rsp, %rbp	#,
	.cfi_offset 6, -16
	.cfi_def_cfa_register 6
	subq	$32, %rsp	#,
	movq	%rdi, -24(%rbp)	# this, this
	leaq	-16(%rbp), %rax	#, tmp60
	movl	$0, %edx	#,
	movl	$0, %esi	#,
	movq	%rax, %rdi	# tmp60,
	call	_ZN7wxPointC1Eii	#
	movq	-16(%rbp), %rax	# D.62997, D.62998
	leave
	ret
	.cfi_endproc
.LFE5144:
	.size	_ZNK7wxFrame19GetClientAreaOriginEv, .-_ZNK7wxFrame19GetClientAreaOriginEv
	.section	.text._ZN12wxBitmapBaseC2Ev,"axG",@progbits,_ZN12wxBitmapBaseC2Ev,comdat
	.align 2
	.weak	_ZN12wxBitmapBaseC2Ev
	.type	_ZN12wxBitmapBaseC2Ev, @function
_ZN12wxBitmapBaseC2Ev:
.LFB5163:
	.cfi_startproc
	.cfi_personality 0x3,__gxx_personality_v0
	pushq	%rbp	#
	.cfi_def_cfa_offset 16
	movq	%rsp, %rbp	#,
	.cfi_offset 6, -16
	.cfi_def_cfa_register 6
	subq	$16, %rsp	#,
	movq	%rdi, -8(%rbp)	# this, this
	movq	-8(%rbp), %rax	# this, D.63589
	movq	%rax, %rdi	# D.63589,
	call	_ZN11wxGDIObjectC2Ev	#
	movq	-8(%rbp), %rax	# this, tmp60
	movq	$_ZTV12wxBitmapBase+16, (%rax)	#, <variable>.D.63271.D.51499._vptr.wxObject
	leave
	ret
	.cfi_endproc
.LFE5163:
	.size	_ZN12wxBitmapBaseC2Ev, .-_ZN12wxBitmapBaseC2Ev
	.section	.text._ZN12wxBitmapBaseD2Ev,"axG",@progbits,_ZN12wxBitmapBaseD2Ev,comdat
	.align 2
	.weak	_ZN12wxBitmapBaseD2Ev
	.type	_ZN12wxBitmapBaseD2Ev, @function
_ZN12wxBitmapBaseD2Ev:
.LFB5166:
	.cfi_startproc
	.cfi_personality 0x3,__gxx_personality_v0
	pushq	%rbp	#
	.cfi_def_cfa_offset 16
	movq	%rsp, %rbp	#,
	.cfi_offset 6, -16
	.cfi_def_cfa_register 6
	subq	$16, %rsp	#,
	movq	%rdi, -8(%rbp)	# this, this
	movq	-8(%rbp), %rax	# this, tmp61
	movq	$_ZTV12wxBitmapBase+16, (%rax)	#, <variable>.D.63271.D.51499._vptr.wxObject
	movq	-8(%rbp), %rax	# this, this.904
	movq	%rax, %rdi	# this.904,
	call	_ZN11wxGDIObjectD2Ev	#
	movl	$0, %eax	#, D.63606
	testb	%al, %al	# D.63607
	je	.L296	#,
	movq	-8(%rbp), %rax	# this, tmp62
	movq	%rax, %rdi	# tmp62,
	call	_ZdlPv	#
.L296:
	leave
	ret
	.cfi_endproc
.LFE5166:
	.size	_ZN12wxBitmapBaseD2Ev, .-_ZN12wxBitmapBaseD2Ev
	.section	.text._ZN8wxBitmapC1ERK7wxImagei,"axG",@progbits,_ZN8wxBitmapC1ERK7wxImagei,comdat
	.align 2
	.weak	_ZN8wxBitmapC1ERK7wxImagei
	.type	_ZN8wxBitmapC1ERK7wxImagei, @function
_ZN8wxBitmapC1ERK7wxImagei:
.LFB5173:
	.cfi_startproc
	.cfi_personality 0x3,__gxx_personality_v0
	.cfi_lsda 0x3,.LLSDA5173
	pushq	%rbp	#
	.cfi_def_cfa_offset 16
	movq	%rsp, %rbp	#,
	.cfi_offset 6, -16
	.cfi_def_cfa_register 6
	pushq	%r12	#
	pushq	%rbx	#
	subq	$32, %rsp	#,
	movq	%rdi, -24(%rbp)	# this, this
	movq	%rsi, -32(%rbp)	# image, image
	movl	%edx, -36(%rbp)	# depth, depth
	movq	-24(%rbp), %rax	# this, D.63644
	movq	%rax, %rdi	# D.63644,
	.cfi_offset 3, -32
	.cfi_offset 12, -24
	call	_ZN12wxBitmapBaseC2Ev	#
	movq	-24(%rbp), %rax	# this, tmp62
	movq	$_ZTV8wxBitmap+16, (%rax)	#, <variable>.D.63565.D.63271.D.51499._vptr.wxObject
	movl	-36(%rbp), %edx	# depth, tmp63
	movq	-32(%rbp), %rcx	# image, tmp64
	movq	-24(%rbp), %rax	# this, tmp65
	movq	%rcx, %rsi	# tmp64,
	movq	%rax, %rdi	# tmp65,
.LEHB5:
	call	_ZN8wxBitmap15CreateFromImageERK7wxImagei	#
.LEHE5:
	jmp	.L302	#
.L301:
.L299:
	movl	%edx, %ebx	# tmp66, save_filt.3481
	movq	%rax, %r12	# tmp67, save_eptr.3480
	movq	-24(%rbp), %rax	# this, this.906
	movq	%rax, %rdi	# this.906,
	call	_ZN12wxBitmapBaseD2Ev	#
	movq	%r12, %rax	# save_eptr.3480, tmp67
	movslq	%ebx,%rdx	# save_filt.3481, tmp66
	movq	%rax, %rdi	# tmp67,
.LEHB6:
	call	_Unwind_Resume	#
.LEHE6:
.L302:
	addq	$32, %rsp	#,
	popq	%rbx	#
	popq	%r12	#
	leave
	ret
	.cfi_endproc
.LFE5173:
	.size	_ZN8wxBitmapC1ERK7wxImagei, .-_ZN8wxBitmapC1ERK7wxImagei
	.section	.gcc_except_table
.LLSDA5173:
	.byte	0xff
	.byte	0xff
	.byte	0x1
	.uleb128 .LLSDACSE5173-.LLSDACSB5173
.LLSDACSB5173:
	.uleb128 .LEHB5-.LFB5173
	.uleb128 .LEHE5-.LEHB5
	.uleb128 .L301-.LFB5173
	.uleb128 0x0
	.uleb128 .LEHB6-.LFB5173
	.uleb128 .LEHE6-.LEHB6
	.uleb128 0x0
	.uleb128 0x0
.LLSDACSE5173:
	.section	.text._ZN8wxBitmapC1ERK7wxImagei,"axG",@progbits,_ZN8wxBitmapC1ERK7wxImagei,comdat
	.section	.text._ZN7wxImageD1Ev,"axG",@progbits,_ZN7wxImageD1Ev,comdat
	.align 2
	.weak	_ZN7wxImageD1Ev
	.type	_ZN7wxImageD1Ev, @function
_ZN7wxImageD1Ev:
.LFB5300:
	.cfi_startproc
	.cfi_personality 0x3,__gxx_personality_v0
	pushq	%rbp	#
	.cfi_def_cfa_offset 16
	movq	%rsp, %rbp	#,
	.cfi_offset 6, -16
	.cfi_def_cfa_register 6
	subq	$16, %rsp	#,
	movq	%rdi, -8(%rbp)	# this, this
	movq	-8(%rbp), %rax	# this, tmp61
	movq	$_ZTV7wxImage+16, (%rax)	#, <variable>.D.65337._vptr.wxObject
	movq	-8(%rbp), %rax	# this, this.938
	movq	%rax, %rdi	# this.938,
	call	_ZN8wxObjectD2Ev	#
	movl	$0, %eax	#, D.65379
	testb	%al, %al	# D.65380
	je	.L306	#,
	movq	-8(%rbp), %rax	# this, tmp62
	movq	%rax, %rdi	# tmp62,
	call	_ZdlPv	#
.L306:
	leave
	ret
	.cfi_endproc
.LFE5300:
	.size	_ZN7wxImageD1Ev, .-_ZN7wxImageD1Ev
	.section	.text._ZN12wxPoint2DIntC1Eii,"axG",@progbits,_ZN12wxPoint2DIntC1Eii,comdat
	.align 2
	.weak	_ZN12wxPoint2DIntC1Eii
	.type	_ZN12wxPoint2DIntC1Eii, @function
_ZN12wxPoint2DIntC1Eii:
.LFB5550:
	.cfi_startproc
	.cfi_personality 0x3,__gxx_personality_v0
	pushq	%rbp	#
	.cfi_def_cfa_offset 16
	movq	%rsp, %rbp	#,
	.cfi_offset 6, -16
	.cfi_def_cfa_register 6
	movq	%rdi, -8(%rbp)	# this, this
	movl	%esi, -12(%rbp)	# x, x
	movl	%edx, -16(%rbp)	# y, y
	movq	-8(%rbp), %rax	# this, tmp58
	movl	-12(%rbp), %edx	# x, tmp59
	movl	%edx, (%rax)	# tmp59, <variable>.m_x
	movq	-8(%rbp), %rax	# this, tmp60
	movl	-16(%rbp), %edx	# y, tmp61
	movl	%edx, 4(%rax)	# tmp61, <variable>.m_y
	leave
	ret
	.cfi_endproc
.LFE5550:
	.size	_ZN12wxPoint2DIntC1Eii, .-_ZN12wxPoint2DIntC1Eii
	.section	.text._ZN12wxPoint2DIntC1ERKS_,"axG",@progbits,_ZN12wxPoint2DIntC1ERKS_,comdat
	.align 2
	.weak	_ZN12wxPoint2DIntC1ERKS_
	.type	_ZN12wxPoint2DIntC1ERKS_, @function
_ZN12wxPoint2DIntC1ERKS_:
.LFB5553:
	.cfi_startproc
	.cfi_personality 0x3,__gxx_personality_v0
	pushq	%rbp	#
	.cfi_def_cfa_offset 16
	movq	%rsp, %rbp	#,
	.cfi_offset 6, -16
	.cfi_def_cfa_register 6
	movq	%rdi, -8(%rbp)	# this, this
	movq	%rsi, -16(%rbp)	# pt, pt
	movq	-16(%rbp), %rax	# pt, tmp60
	movl	(%rax), %edx	# <variable>.m_x, D.68914
	movq	-8(%rbp), %rax	# this, tmp61
	movl	%edx, (%rax)	# D.68914, <variable>.m_x
	movq	-16(%rbp), %rax	# pt, tmp62
	movl	4(%rax), %edx	# <variable>.m_y, D.68915
	movq	-8(%rbp), %rax	# this, tmp63
	movl	%edx, 4(%rax)	# D.68915, <variable>.m_y
	leave
	ret
	.cfi_endproc
.LFE5553:
	.size	_ZN12wxPoint2DIntC1ERKS_, .-_ZN12wxPoint2DIntC1ERKS_
	.section	.text._ZNK11wxRect2DInt10GetLeftTopEv,"axG",@progbits,_ZNK11wxRect2DInt10GetLeftTopEv,comdat
	.align 2
	.weak	_ZNK11wxRect2DInt10GetLeftTopEv
	.type	_ZNK11wxRect2DInt10GetLeftTopEv, @function
_ZNK11wxRect2DInt10GetLeftTopEv:
.LFB5703:
	.cfi_startproc
	.cfi_personality 0x3,__gxx_personality_v0
	pushq	%rbp	#
	.cfi_def_cfa_offset 16
	movq	%rsp, %rbp	#,
	.cfi_offset 6, -16
	.cfi_def_cfa_register 6
	pushq	%rbx	#
	subq	$24, %rsp	#,
	movq	%rdi, %rbx	# D.246145, <result>
	.cfi_offset 3, -24
	movq	%rsi, -24(%rbp)	# this, this
	movq	%rbx, %rax	# <result>, D.70700
	movq	-24(%rbp), %rdx	# this, tmp62
	movl	4(%rdx), %edx	# <variable>.m_y, D.70701
	movq	-24(%rbp), %rcx	# this, tmp63
	movl	(%rcx), %ecx	# <variable>.m_x, D.70702
	movl	%ecx, %esi	# D.70702,
	movq	%rax, %rdi	# D.70700,
	call	_ZN12wxPoint2DIntC1Eii	#
	movq	%rbx, %rax	# <result>,
	movq	%rbx, %rax	# <result>,
	addq	$24, %rsp	#,
	popq	%rbx	#
	leave
	ret
	.cfi_endproc
.LFE5703:
	.size	_ZNK11wxRect2DInt10GetLeftTopEv, .-_ZNK11wxRect2DInt10GetLeftTopEv
	.section	.text._ZNK11wxRect2DInt14GetRightBottomEv,"axG",@progbits,_ZNK11wxRect2DInt14GetRightBottomEv,comdat
	.align 2
	.weak	_ZNK11wxRect2DInt14GetRightBottomEv
	.type	_ZNK11wxRect2DInt14GetRightBottomEv, @function
_ZNK11wxRect2DInt14GetRightBottomEv:
.LFB5712:
	.cfi_startproc
	.cfi_personality 0x3,__gxx_personality_v0
	pushq	%rbp	#
	.cfi_def_cfa_offset 16
	movq	%rsp, %rbp	#,
	.cfi_offset 6, -16
	.cfi_def_cfa_register 6
	pushq	%rbx	#
	subq	$24, %rsp	#,
	movq	%rdi, %rbx	# D.246146, <result>
	.cfi_offset 3, -24
	movq	%rsi, -24(%rbp)	# this, this
	movq	%rbx, %rax	# <result>, D.70776
	movq	-24(%rbp), %rdx	# this, tmp66
	movl	4(%rdx), %ecx	# <variable>.m_y, D.70777
	movq	-24(%rbp), %rdx	# this, tmp67
	movl	12(%rdx), %edx	# <variable>.m_height, D.70778
	leal	(%rcx,%rdx), %esi	#, D.70779
	movq	-24(%rbp), %rdx	# this, tmp68
	movl	(%rdx), %ecx	# <variable>.m_x, D.70780
	movq	-24(%rbp), %rdx	# this, tmp69
	movl	8(%rdx), %edx	# <variable>.m_width, D.70781
	addl	%edx, %ecx	# D.70781, D.70782
	movl	%esi, %edx	# D.70779,
	movl	%ecx, %esi	# D.70782,
	movq	%rax, %rdi	# D.70776,
	call	_ZN12wxPoint2DIntC1Eii	#
	movq	%rbx, %rax	# <result>,
	movq	%rbx, %rax	# <result>,
	addq	$24, %rsp	#,
	popq	%rbx	#
	leave
	ret
	.cfi_endproc
.LFE5712:
	.size	_ZNK11wxRect2DInt14GetRightBottomEv, .-_ZNK11wxRect2DInt14GetRightBottomEv
	.section	.text._ZN11wxRect2DIntC1ERKS_,"axG",@progbits,_ZN11wxRect2DIntC1ERKS_,comdat
	.align 2
	.weak	_ZN11wxRect2DIntC1ERKS_
	.type	_ZN11wxRect2DIntC1ERKS_, @function
_ZN11wxRect2DIntC1ERKS_:
.LFB5736:
	.cfi_startproc
	.cfi_personality 0x3,__gxx_personality_v0
	pushq	%rbp	#
	.cfi_def_cfa_offset 16
	movq	%rsp, %rbp	#,
	.cfi_offset 6, -16
	.cfi_def_cfa_register 6
	movq	%rdi, -8(%rbp)	# this, this
	movq	%rsi, -16(%rbp)	# r, r
	movq	-16(%rbp), %rax	# r, tmp62
	movl	(%rax), %edx	# <variable>.m_x, D.71010
	movq	-8(%rbp), %rax	# this, tmp63
	movl	%edx, (%rax)	# D.71010, <variable>.m_x
	movq	-16(%rbp), %rax	# r, tmp64
	movl	4(%rax), %edx	# <variable>.m_y, D.71011
	movq	-8(%rbp), %rax	# this, tmp65
	movl	%edx, 4(%rax)	# D.71011, <variable>.m_y
	movq	-16(%rbp), %rax	# r, tmp66
	movl	8(%rax), %edx	# <variable>.m_width, D.71012
	movq	-8(%rbp), %rax	# this, tmp67
	movl	%edx, 8(%rax)	# D.71012, <variable>.m_width
	movq	-16(%rbp), %rax	# r, tmp68
	movl	12(%rax), %edx	# <variable>.m_height, D.71013
	movq	-8(%rbp), %rax	# this, tmp69
	movl	%edx, 12(%rax)	# D.71013, <variable>.m_height
	leave
	ret
	.cfi_endproc
.LFE5736:
	.size	_ZN11wxRect2DIntC1ERKS_, .-_ZN11wxRect2DIntC1ERKS_
	.section	.text._ZN11wxRect2DIntC1ERK12wxPoint2DIntS2_,"axG",@progbits,_ZN11wxRect2DIntC1ERK12wxPoint2DIntS2_,comdat
	.align 2
	.weak	_ZN11wxRect2DIntC1ERK12wxPoint2DIntS2_
	.type	_ZN11wxRect2DIntC1ERK12wxPoint2DIntS2_, @function
_ZN11wxRect2DIntC1ERK12wxPoint2DIntS2_:
.LFB5739:
	.cfi_startproc
	.cfi_personality 0x3,__gxx_personality_v0
	pushq	%rbp	#
	.cfi_def_cfa_offset 16
	movq	%rsp, %rbp	#,
	.cfi_offset 6, -16
	.cfi_def_cfa_register 6
	movq	%rdi, -8(%rbp)	# this, this
	movq	%rsi, -16(%rbp)	# a, a
	movq	%rdx, -24(%rbp)	# b, b
	movq	-16(%rbp), %rax	# a, tmp72
	movl	(%rax), %edx	# <variable>.m_x, D.71061
	movq	-24(%rbp), %rax	# b, tmp73
	movl	(%rax), %eax	# <variable>.m_x, D.71062
	cmpl	%eax, %edx	# D.71062, D.71061
	jge	.L318	#,
	movq	-16(%rbp), %rax	# a, tmp74
	movl	(%rax), %eax	# <variable>.m_x, iftmp.1014
	jmp	.L319	#
.L318:
	movq	-24(%rbp), %rax	# b, tmp75
	movl	(%rax), %eax	# <variable>.m_x, iftmp.1014
.L319:
	movq	-8(%rbp), %rdx	# this, tmp76
	movl	%eax, (%rdx)	# iftmp.1014, <variable>.m_x
	movq	-16(%rbp), %rax	# a, tmp77
	movl	4(%rax), %edx	# <variable>.m_y, D.71067
	movq	-24(%rbp), %rax	# b, tmp78
	movl	4(%rax), %eax	# <variable>.m_y, D.71068
	cmpl	%eax, %edx	# D.71068, D.71067
	jge	.L320	#,
	movq	-16(%rbp), %rax	# a, tmp79
	movl	4(%rax), %eax	# <variable>.m_y, iftmp.1015
	jmp	.L321	#
.L320:
	movq	-24(%rbp), %rax	# b, tmp80
	movl	4(%rax), %eax	# <variable>.m_y, iftmp.1015
.L321:
	movq	-8(%rbp), %rdx	# this, tmp81
	movl	%eax, 4(%rdx)	# iftmp.1015, <variable>.m_y
	movq	-16(%rbp), %rax	# a, tmp82
	movl	(%rax), %edx	# <variable>.m_x, D.71073
	movq	-24(%rbp), %rax	# b, tmp83
	movl	(%rax), %eax	# <variable>.m_x, D.71074
	movl	%edx, %ecx	# D.71073,
	subl	%eax, %ecx	# D.71074,
	movl	%ecx, %eax	#, D.71075
	movl	%eax, %edx	# D.71075, tmp84
	sarl	$31, %edx	#, tmp84
	xorl	%edx, %eax	# tmp84, D.71076
	subl	%edx, %eax	# tmp84, D.71076
	movq	-8(%rbp), %rdx	# this, tmp85
	movl	%eax, 8(%rdx)	# D.71076, <variable>.m_width
	movq	-16(%rbp), %rax	# a, tmp86
	movl	4(%rax), %edx	# <variable>.m_y, D.71077
	movq	-24(%rbp), %rax	# b, tmp87
	movl	4(%rax), %eax	# <variable>.m_y, D.71078
	movl	%edx, %ecx	# D.71077,
	subl	%eax, %ecx	# D.71078,
	movl	%ecx, %eax	#, D.71079
	movl	%eax, %edx	# D.71079, tmp88
	sarl	$31, %edx	#, tmp88
	xorl	%edx, %eax	# tmp88, D.71080
	subl	%edx, %eax	# tmp88, D.71080
	movq	-8(%rbp), %rdx	# this, tmp89
	movl	%eax, 12(%rdx)	# D.71080, <variable>.m_height
	leave
	ret
	.cfi_endproc
.LFE5739:
	.size	_ZN11wxRect2DIntC1ERK12wxPoint2DIntS2_, .-_ZN11wxRect2DIntC1ERK12wxPoint2DIntS2_
	.section	.text._ZN13wxTransform2DD1Ev,"axG",@progbits,_ZN13wxTransform2DD1Ev,comdat
	.align 2
	.weak	_ZN13wxTransform2DD1Ev
	.type	_ZN13wxTransform2DD1Ev, @function
_ZN13wxTransform2DD1Ev:
.LFB5747:
	.cfi_startproc
	.cfi_personality 0x3,__gxx_personality_v0
	pushq	%rbp	#
	.cfi_def_cfa_offset 16
	movq	%rsp, %rbp	#,
	.cfi_offset 6, -16
	.cfi_def_cfa_register 6
	subq	$16, %rsp	#,
	movq	%rdi, -8(%rbp)	# this, this
	movq	-8(%rbp), %rax	# this, tmp60
	movq	$_ZTV13wxTransform2D+16, (%rax)	#, <variable>._vptr.wxTransform2D
	movl	$0, %eax	#, D.71186
	testb	%al, %al	# D.71187
	je	.L326	#,
	movq	-8(%rbp), %rax	# this, tmp61
	movq	%rax, %rdi	# tmp61,
	call	_ZdlPv	#
.L326:
	leave
	ret
	.cfi_endproc
.LFE5747:
	.size	_ZN13wxTransform2DD1Ev, .-_ZN13wxTransform2DD1Ev
	.section	.text._ZN13wxTransform2DD0Ev,"axG",@progbits,_ZN13wxTransform2DD0Ev,comdat
	.align 2
	.weak	_ZN13wxTransform2DD0Ev
	.type	_ZN13wxTransform2DD0Ev, @function
_ZN13wxTransform2DD0Ev:
.LFB5748:
	.cfi_startproc
	.cfi_personality 0x3,__gxx_personality_v0
	pushq	%rbp	#
	.cfi_def_cfa_offset 16
	movq	%rsp, %rbp	#,
	.cfi_offset 6, -16
	.cfi_def_cfa_register 6
	subq	$16, %rsp	#,
	movq	%rdi, -8(%rbp)	# this, this
	movq	-8(%rbp), %rax	# this, tmp60
	movq	$_ZTV13wxTransform2D+16, (%rax)	#, <variable>._vptr.wxTransform2D
	movl	$1, %eax	#, D.71194
	testb	%al, %al	# D.71195
	je	.L330	#,
	movq	-8(%rbp), %rax	# this, tmp61
	movq	%rax, %rdi	# tmp61,
	call	_ZdlPv	#
.L330:
	leave
	ret
	.cfi_endproc
.LFE5748:
	.size	_ZN13wxTransform2DD0Ev, .-_ZN13wxTransform2DD0Ev
	.section	.text._ZNK13wxTransform2D9TransformEP11wxRect2DInt,"axG",@progbits,_ZNK13wxTransform2D9TransformEP11wxRect2DInt,comdat
	.align 2
	.weak	_ZNK13wxTransform2D9TransformEP11wxRect2DInt
	.type	_ZNK13wxTransform2D9TransformEP11wxRect2DInt, @function
_ZNK13wxTransform2D9TransformEP11wxRect2DInt:
.LFB5749:
	.cfi_startproc
	.cfi_personality 0x3,__gxx_personality_v0
	pushq	%rbp	#
	.cfi_def_cfa_offset 16
	movq	%rsp, %rbp	#,
	.cfi_offset 6, -16
	.cfi_def_cfa_register 6
	subq	$64, %rsp	#,
	movq	%rdi, -56(%rbp)	# this, this
	movq	%rsi, -64(%rbp)	# r, r
	leaq	-32(%rbp), %rax	#, tmp64
	movq	-64(%rbp), %rdx	# r, tmp65
	movq	%rdx, %rsi	# tmp65,
	movq	%rax, %rdi	# tmp64,
	call	_ZNK11wxRect2DInt10GetLeftTopEv	#
	leaq	-48(%rbp), %rax	#, tmp66
	movq	-64(%rbp), %rdx	# r, tmp67
	movq	%rdx, %rsi	# tmp67,
	movq	%rax, %rdi	# tmp66,
	call	_ZNK11wxRect2DInt14GetRightBottomEv	#
	movq	-56(%rbp), %rax	# this, tmp68
	movq	(%rax), %rax	# <variable>._vptr.wxTransform2D, D.71208
	addq	$16, %rax	#, D.71209
	movq	(%rax), %rcx	#* D.71209, D.71210
	leaq	-32(%rbp), %rdx	#, tmp69
	movq	-56(%rbp), %rax	# this, tmp70
	movq	%rdx, %rsi	# tmp69,
	movq	%rax, %rdi	# tmp70,
	call	*%rcx	# D.71210
	movq	-56(%rbp), %rax	# this, tmp71
	movq	(%rax), %rax	# <variable>._vptr.wxTransform2D, D.71211
	addq	$16, %rax	#, D.71212
	movq	(%rax), %rcx	#* D.71212, D.71213
	leaq	-48(%rbp), %rdx	#, tmp72
	movq	-56(%rbp), %rax	# this, tmp73
	movq	%rdx, %rsi	# tmp72,
	movq	%rax, %rdi	# tmp73,
	call	*%rcx	# D.71213
	leaq	-48(%rbp), %rdx	#, tmp74
	leaq	-32(%rbp), %rcx	#, tmp75
	leaq	-16(%rbp), %rax	#, tmp76
	movq	%rcx, %rsi	# tmp75,
	movq	%rax, %rdi	# tmp76,
	call	_ZN11wxRect2DIntC1ERK12wxPoint2DIntS2_	#
	leaq	-16(%rbp), %rdx	#, tmp77
	movq	-64(%rbp), %rax	# r, tmp78
	movq	%rdx, %rsi	# tmp77,
	movq	%rax, %rdi	# tmp78,
	call	_ZN11wxRect2DIntaSERKS_	#
	leave
	ret
	.cfi_endproc
.LFE5749:
	.size	_ZNK13wxTransform2D9TransformEP11wxRect2DInt, .-_ZNK13wxTransform2D9TransformEP11wxRect2DInt
	.section	.text._ZNK13wxTransform2D9TransformERK12wxPoint2DInt,"axG",@progbits,_ZNK13wxTransform2D9TransformERK12wxPoint2DInt,comdat
	.align 2
	.weak	_ZNK13wxTransform2D9TransformERK12wxPoint2DInt
	.type	_ZNK13wxTransform2D9TransformERK12wxPoint2DInt, @function
_ZNK13wxTransform2D9TransformERK12wxPoint2DInt:
.LFB5750:
	.cfi_startproc
	.cfi_personality 0x3,__gxx_personality_v0
	pushq	%rbp	#
	.cfi_def_cfa_offset 16
	movq	%rsp, %rbp	#,
	.cfi_offset 6, -16
	.cfi_def_cfa_register 6
	pushq	%rbx	#
	subq	$40, %rsp	#,
	movq	%rdi, %rbx	# D.246149, <result>
	.cfi_offset 3, -24
	movq	%rsi, -40(%rbp)	# this, this
	movq	%rdx, -48(%rbp)	# pt, pt
	movq	%rbx, %rax	# <result>, res.1017
	movq	-48(%rbp), %rdx	# pt, tmp64
	movq	%rdx, %rsi	# tmp64,
	movq	%rax, %rdi	# res.1017,
	call	_ZN12wxPoint2DIntC1ERKS_	#
	movq	-40(%rbp), %rax	# this, tmp65
	movq	(%rax), %rax	# <variable>._vptr.wxTransform2D, D.71223
	addq	$16, %rax	#, D.71224
	movq	(%rax), %rcx	#* D.71224, D.71225
	movq	%rbx, %rdx	# <result>, res.1018
	movq	-40(%rbp), %rax	# this, tmp66
	movq	%rdx, %rsi	# res.1018,
	movq	%rax, %rdi	# tmp66,
	call	*%rcx	# D.71225
	movq	%rbx, %rax	# <result>,
	movq	%rbx, %rax	# <result>,
	addq	$40, %rsp	#,
	popq	%rbx	#
	leave
	ret
	.cfi_endproc
.LFE5750:
	.size	_ZNK13wxTransform2D9TransformERK12wxPoint2DInt, .-_ZNK13wxTransform2D9TransformERK12wxPoint2DInt
	.section	.text._ZNK13wxTransform2D9TransformERK11wxRect2DInt,"axG",@progbits,_ZNK13wxTransform2D9TransformERK11wxRect2DInt,comdat
	.align 2
	.weak	_ZNK13wxTransform2D9TransformERK11wxRect2DInt
	.type	_ZNK13wxTransform2D9TransformERK11wxRect2DInt, @function
_ZNK13wxTransform2D9TransformERK11wxRect2DInt:
.LFB5751:
	.cfi_startproc
	.cfi_personality 0x3,__gxx_personality_v0
	pushq	%rbp	#
	.cfi_def_cfa_offset 16
	movq	%rsp, %rbp	#,
	.cfi_offset 6, -16
	.cfi_def_cfa_register 6
	pushq	%rbx	#
	subq	$40, %rsp	#,
	movq	%rdi, %rbx	# D.246150, <result>
	.cfi_offset 3, -24
	movq	%rsi, -40(%rbp)	# this, this
	movq	%rdx, -48(%rbp)	# r, r
	movq	%rbx, %rax	# <result>, res.1019
	movq	-48(%rbp), %rdx	# r, tmp64
	movq	%rdx, %rsi	# tmp64,
	movq	%rax, %rdi	# res.1019,
	call	_ZN11wxRect2DIntC1ERKS_	#
	movq	-40(%rbp), %rax	# this, tmp65
	movq	(%rax), %rax	# <variable>._vptr.wxTransform2D, D.71236
	addq	$24, %rax	#, D.71237
	movq	(%rax), %rcx	#* D.71237, D.71238
	movq	%rbx, %rdx	# <result>, res.1020
	movq	-40(%rbp), %rax	# this, tmp66
	movq	%rdx, %rsi	# res.1020,
	movq	%rax, %rdi	# tmp66,
	call	*%rcx	# D.71238
	movq	%rbx, %rax	# <result>,
	movq	%rbx, %rax	# <result>,
	addq	$40, %rsp	#,
	popq	%rbx	#
	leave
	ret
	.cfi_endproc
.LFE5751:
	.size	_ZNK13wxTransform2D9TransformERK11wxRect2DInt, .-_ZNK13wxTransform2D9TransformERK11wxRect2DInt
	.section	.text._ZNK13wxTransform2D16InverseTransformEP11wxRect2DInt,"axG",@progbits,_ZNK13wxTransform2D16InverseTransformEP11wxRect2DInt,comdat
	.align 2
	.weak	_ZNK13wxTransform2D16InverseTransformEP11wxRect2DInt
	.type	_ZNK13wxTransform2D16InverseTransformEP11wxRect2DInt, @function
_ZNK13wxTransform2D16InverseTransformEP11wxRect2DInt:
.LFB5752:
	.cfi_startproc
	.cfi_personality 0x3,__gxx_personality_v0
	pushq	%rbp	#
	.cfi_def_cfa_offset 16
	movq	%rsp, %rbp	#,
	.cfi_offset 6, -16
	.cfi_def_cfa_register 6
	subq	$64, %rsp	#,
	movq	%rdi, -56(%rbp)	# this, this
	movq	%rsi, -64(%rbp)	# r, r
	leaq	-32(%rbp), %rax	#, tmp64
	movq	-64(%rbp), %rdx	# r, tmp65
	movq	%rdx, %rsi	# tmp65,
	movq	%rax, %rdi	# tmp64,
	call	_ZNK11wxRect2DInt10GetLeftTopEv	#
	leaq	-48(%rbp), %rax	#, tmp66
	movq	-64(%rbp), %rdx	# r, tmp67
	movq	%rdx, %rsi	# tmp67,
	movq	%rax, %rdi	# tmp66,
	call	_ZNK11wxRect2DInt14GetRightBottomEv	#
	movq	-56(%rbp), %rax	# this, tmp68
	movq	(%rax), %rax	# <variable>._vptr.wxTransform2D, D.71249
	addq	$48, %rax	#, D.71250
	movq	(%rax), %rcx	#* D.71250, D.71251
	leaq	-32(%rbp), %rdx	#, tmp69
	movq	-56(%rbp), %rax	# this, tmp70
	movq	%rdx, %rsi	# tmp69,
	movq	%rax, %rdi	# tmp70,
	call	*%rcx	# D.71251
	movq	-56(%rbp), %rax	# this, tmp71
	movq	(%rax), %rax	# <variable>._vptr.wxTransform2D, D.71252
	addq	$48, %rax	#, D.71253
	movq	(%rax), %rcx	#* D.71253, D.71254
	leaq	-48(%rbp), %rdx	#, tmp72
	movq	-56(%rbp), %rax	# this, tmp73
	movq	%rdx, %rsi	# tmp72,
	movq	%rax, %rdi	# tmp73,
	call	*%rcx	# D.71254
	leaq	-48(%rbp), %rdx	#, tmp74
	leaq	-32(%rbp), %rcx	#, tmp75
	leaq	-16(%rbp), %rax	#, tmp76
	movq	%rcx, %rsi	# tmp75,
	movq	%rax, %rdi	# tmp76,
	call	_ZN11wxRect2DIntC1ERK12wxPoint2DIntS2_	#
	leaq	-16(%rbp), %rdx	#, tmp77
	movq	-64(%rbp), %rax	# r, tmp78
	movq	%rdx, %rsi	# tmp77,
	movq	%rax, %rdi	# tmp78,
	call	_ZN11wxRect2DIntaSERKS_	#
	leave
	ret
	.cfi_endproc
.LFE5752:
	.size	_ZNK13wxTransform2D16InverseTransformEP11wxRect2DInt, .-_ZNK13wxTransform2D16InverseTransformEP11wxRect2DInt
	.section	.text._ZNK13wxTransform2D16InverseTransformERK12wxPoint2DInt,"axG",@progbits,_ZNK13wxTransform2D16InverseTransformERK12wxPoint2DInt,comdat
	.align 2
	.weak	_ZNK13wxTransform2D16InverseTransformERK12wxPoint2DInt
	.type	_ZNK13wxTransform2D16InverseTransformERK12wxPoint2DInt, @function
_ZNK13wxTransform2D16InverseTransformERK12wxPoint2DInt:
.LFB5753:
	.cfi_startproc
	.cfi_personality 0x3,__gxx_personality_v0
	pushq	%rbp	#
	.cfi_def_cfa_offset 16
	movq	%rsp, %rbp	#,
	.cfi_offset 6, -16
	.cfi_def_cfa_register 6
	pushq	%rbx	#
	subq	$40, %rsp	#,
	movq	%rdi, %rbx	# D.246153, <result>
	.cfi_offset 3, -24
	movq	%rsi, -40(%rbp)	# this, this
	movq	%rdx, -48(%rbp)	# pt, pt
	movq	%rbx, %rax	# <result>, res.1021
	movq	-48(%rbp), %rdx	# pt, tmp64
	movq	%rdx, %rsi	# tmp64,
	movq	%rax, %rdi	# res.1021,
	call	_ZN12wxPoint2DIntC1ERKS_	#
	movq	-40(%rbp), %rax	# this, tmp65
	movq	(%rax), %rax	# <variable>._vptr.wxTransform2D, D.71264
	addq	$48, %rax	#, D.71265
	movq	(%rax), %rcx	#* D.71265, D.71266
	movq	%rbx, %rdx	# <result>, res.1022
	movq	-40(%rbp), %rax	# this, tmp66
	movq	%rdx, %rsi	# res.1022,
	movq	%rax, %rdi	# tmp66,
	call	*%rcx	# D.71266
	movq	%rbx, %rax	# <result>,
	movq	%rbx, %rax	# <result>,
	addq	$40, %rsp	#,
	popq	%rbx	#
	leave
	ret
	.cfi_endproc
.LFE5753:
	.size	_ZNK13wxTransform2D16InverseTransformERK12wxPoint2DInt, .-_ZNK13wxTransform2D16InverseTransformERK12wxPoint2DInt
	.section	.text._ZNK13wxTransform2D16InverseTransformERK11wxRect2DInt,"axG",@progbits,_ZNK13wxTransform2D16InverseTransformERK11wxRect2DInt,comdat
	.align 2
	.weak	_ZNK13wxTransform2D16InverseTransformERK11wxRect2DInt
	.type	_ZNK13wxTransform2D16InverseTransformERK11wxRect2DInt, @function
_ZNK13wxTransform2D16InverseTransformERK11wxRect2DInt:
.LFB5754:
	.cfi_startproc
	.cfi_personality 0x3,__gxx_personality_v0
	pushq	%rbp	#
	.cfi_def_cfa_offset 16
	movq	%rsp, %rbp	#,
	.cfi_offset 6, -16
	.cfi_def_cfa_register 6
	pushq	%rbx	#
	subq	$40, %rsp	#,
	movq	%rdi, %rbx	# D.246154, <result>
	.cfi_offset 3, -24
	movq	%rsi, -40(%rbp)	# this, this
	movq	%rdx, -48(%rbp)	# r, r
	movq	%rbx, %rax	# <result>, res.1023
	movq	-48(%rbp), %rdx	# r, tmp64
	movq	%rdx, %rsi	# tmp64,
	movq	%rax, %rdi	# res.1023,
	call	_ZN11wxRect2DIntC1ERKS_	#
	movq	-40(%rbp), %rax	# this, tmp65
	movq	(%rax), %rax	# <variable>._vptr.wxTransform2D, D.71277
	addq	$56, %rax	#, D.71278
	movq	(%rax), %rcx	#* D.71278, D.71279
	movq	%rbx, %rdx	# <result>, res.1024
	movq	-40(%rbp), %rax	# this, tmp66
	movq	%rdx, %rsi	# res.1024,
	movq	%rax, %rdi	# tmp66,
	call	*%rcx	# D.71279
	movq	%rbx, %rax	# <result>,
	movq	%rbx, %rax	# <result>,
	addq	$40, %rsp	#,
	popq	%rbx	#
	leave
	ret
	.cfi_endproc
.LFE5754:
	.size	_ZNK13wxTransform2D16InverseTransformERK11wxRect2DInt, .-_ZNK13wxTransform2D16InverseTransformERK11wxRect2DInt
	.section	.text._ZNK13wxControlBase20ShouldInheritColoursEv,"axG",@progbits,_ZNK13wxControlBase20ShouldInheritColoursEv,comdat
	.align 2
	.weak	_ZNK13wxControlBase20ShouldInheritColoursEv
	.type	_ZNK13wxControlBase20ShouldInheritColoursEv, @function
_ZNK13wxControlBase20ShouldInheritColoursEv:
.LFB5931:
	.cfi_startproc
	.cfi_personality 0x3,__gxx_personality_v0
	pushq	%rbp	#
	.cfi_def_cfa_offset 16
	movq	%rsp, %rbp	#,
	.cfi_offset 6, -16
	.cfi_def_cfa_register 6
	movq	%rdi, -8(%rbp)	# this, this
	movl	$1, %eax	#, D.74675
	leave
	ret
	.cfi_endproc
.LFE5931:
	.size	_ZNK13wxControlBase20ShouldInheritColoursEv, .-_ZNK13wxControlBase20ShouldInheritColoursEv
	.section	.text._ZNK9wxControl15UseGTKStyleBaseEv,"axG",@progbits,_ZNK9wxControl15UseGTKStyleBaseEv,comdat
	.align 2
	.weak	_ZNK9wxControl15UseGTKStyleBaseEv
	.type	_ZNK9wxControl15UseGTKStyleBaseEv, @function
_ZNK9wxControl15UseGTKStyleBaseEv:
.LFB5935:
	.cfi_startproc
	.cfi_personality 0x3,__gxx_personality_v0
	pushq	%rbp	#
	.cfi_def_cfa_offset 16
	movq	%rsp, %rbp	#,
	.cfi_offset 6, -16
	.cfi_def_cfa_register 6
	movq	%rdi, -8(%rbp)	# this, this
	movl	$0, %eax	#, D.74821
	leave
	ret
	.cfi_endproc
.LFE5935:
	.size	_ZNK9wxControl15UseGTKStyleBaseEv, .-_ZNK9wxControl15UseGTKStyleBaseEv
	.section	.text._ZN9wxControlD2Ev,"axG",@progbits,_ZN9wxControlD2Ev,comdat
	.align 2
	.weak	_ZN9wxControlD2Ev
	.type	_ZN9wxControlD2Ev, @function
_ZN9wxControlD2Ev:
.LFB5938:
	.cfi_startproc
	.cfi_personality 0x3,__gxx_personality_v0
	pushq	%rbp	#
	.cfi_def_cfa_offset 16
	movq	%rsp, %rbp	#,
	.cfi_offset 6, -16
	.cfi_def_cfa_register 6
	subq	$16, %rsp	#,
	movq	%rdi, -8(%rbp)	# this, this
	movq	-8(%rbp), %rax	# this, tmp65
	movq	$_ZTV9wxControl+16, (%rax)	#, <variable>.D.74800.D.74647.D.61439.D.59436.D.47561._vptr.wxObject
	movq	-8(%rbp), %rax	# this, tmp66
	addq	$568, %rax	#, D.74897
	movq	%rax, %rdi	# D.74897,
	call	_ZN8wxStringD1Ev	#
.L349:
	movq	-8(%rbp), %rax	# this, this.4295
	movq	%rax, %rdi	# this.4295,
	call	_ZN13wxControlBaseD2Ev	#
	movl	$0, %eax	#, D.74900
	testb	%al, %al	# D.74901
	je	.L352	#,
	movq	-8(%rbp), %rax	# this, tmp69
	movq	%rax, %rdi	# tmp69,
	call	_ZdlPv	#
.L352:
	leave
	ret
	.cfi_endproc
.LFE5938:
	.size	_ZN9wxControlD2Ev, .-_ZN9wxControlD2Ev
	.section	.text._ZN20wxwxMenuItemListNodeC1EP10wxListBasePS_S2_P10wxMenuItemRK9wxListKey,"axG",@progbits,_ZN20wxwxMenuItemListNodeC1EP10wxListBasePS_S2_P10wxMenuItemRK9wxListKey,comdat
	.align 2
	.weak	_ZN20wxwxMenuItemListNodeC1EP10wxListBasePS_S2_P10wxMenuItemRK9wxListKey
	.type	_ZN20wxwxMenuItemListNodeC1EP10wxListBasePS_S2_P10wxMenuItemRK9wxListKey, @function
_ZN20wxwxMenuItemListNodeC1EP10wxListBasePS_S2_P10wxMenuItemRK9wxListKey:
.LFB6131:
	.cfi_startproc
	.cfi_personality 0x3,__gxx_personality_v0
	pushq	%rbp	#
	.cfi_def_cfa_offset 16
	movq	%rsp, %rbp	#,
	.cfi_offset 6, -16
	.cfi_def_cfa_register 6
	pushq	%rbx	#
	subq	$56, %rsp	#,
	movq	%rdi, -24(%rbp)	# this, this
	movq	%rsi, -32(%rbp)	# list, list
	movq	%rdx, -40(%rbp)	# previous, previous
	movq	%rcx, -48(%rbp)	# next, next
	movq	%r8, -56(%rbp)	# data, data
	movq	%r9, -64(%rbp)	# key, key
	movq	-48(%rbp), %rcx	# next, next.1107
	movq	-40(%rbp), %rdx	# previous, previous.1108
	movq	-24(%rbp), %rax	# this, D.76718
	movq	-64(%rbp), %rdi	# key, tmp62
	movq	-56(%rbp), %rsi	# data, tmp63
	movq	-32(%rbp), %rbx	# list, tmp64
	.cfi_offset 3, -24
	movq	%rdi, %r9	# tmp62,
	movq	%rsi, %r8	# tmp63,
	movq	%rbx, %rsi	# tmp64,
	movq	%rax, %rdi	# D.76718,
	call	_ZN10wxNodeBaseC2EP10wxListBasePS_S2_PvRK9wxListKey	#
	movq	-24(%rbp), %rax	# this, tmp65
	movq	$_ZTV20wxwxMenuItemListNode+16, (%rax)	#, <variable>.D.76701._vptr.wxNodeBase
	addq	$56, %rsp	#,
	popq	%rbx	#
	leave
	ret
	.cfi_endproc
.LFE6131:
	.size	_ZN20wxwxMenuItemListNodeC1EP10wxListBasePS_S2_P10wxMenuItemRK9wxListKey, .-_ZN20wxwxMenuItemListNodeC1EP10wxListBasePS_S2_P10wxMenuItemRK9wxListKey
	.section	.text._ZN14wxMenuItemListC1E9wxKeyType,"axG",@progbits,_ZN14wxMenuItemListC1E9wxKeyType,comdat
	.align 2
	.weak	_ZN14wxMenuItemListC1E9wxKeyType
	.type	_ZN14wxMenuItemListC1E9wxKeyType, @function
_ZN14wxMenuItemListC1E9wxKeyType:
.LFB6143:
	.cfi_startproc
	.cfi_personality 0x3,__gxx_personality_v0
	pushq	%rbp	#
	.cfi_def_cfa_offset 16
	movq	%rsp, %rbp	#,
	.cfi_offset 6, -16
	.cfi_def_cfa_register 6
	subq	$16, %rsp	#,
	movq	%rdi, -8(%rbp)	# this, this
	movl	%esi, -12(%rbp)	# keyType, keyType
	movq	-8(%rbp), %rax	# this, D.77227
	movl	-12(%rbp), %edx	# keyType, tmp60
	movl	%edx, %esi	# tmp60,
	movq	%rax, %rdi	# D.77227,
	call	_ZN10wxListBaseC2E9wxKeyType	#
	movq	-8(%rbp), %rax	# this, tmp61
	movq	$_ZTV14wxMenuItemList+16, (%rax)	#, <variable>.D.77209.D.25141._vptr.wxObject
	leave
	ret
	.cfi_endproc
.LFE6143:
	.size	_ZN14wxMenuItemListC1E9wxKeyType, .-_ZN14wxMenuItemListC1E9wxKeyType
	.section	.text._ZNK14wxMenuItemList4FindERK9wxListKey,"axG",@progbits,_ZNK14wxMenuItemList4FindERK9wxListKey,comdat
	.align 2
	.weak	_ZNK14wxMenuItemList4FindERK9wxListKey
	.type	_ZNK14wxMenuItemList4FindERK9wxListKey, @function
_ZNK14wxMenuItemList4FindERK9wxListKey:
.LFB6166:
	.cfi_startproc
	.cfi_personality 0x3,__gxx_personality_v0
	pushq	%rbp	#
	.cfi_def_cfa_offset 16
	movq	%rsp, %rbp	#,
	.cfi_offset 6, -16
	.cfi_def_cfa_register 6
	subq	$16, %rsp	#,
	movq	%rdi, -8(%rbp)	# this, this
	movq	%rsi, -16(%rbp)	# key, key
	movq	-8(%rbp), %rax	# this, D.77332
	movq	-16(%rbp), %rdx	# key, tmp62
	movq	%rdx, %rsi	# tmp62,
	movq	%rax, %rdi	# D.77332,
	call	_ZNK10wxListBase4FindERK9wxListKey	#
	leave
	ret
	.cfi_endproc
.LFE6166:
	.size	_ZNK14wxMenuItemList4FindERK9wxListKey, .-_ZNK14wxMenuItemList4FindERK9wxListKey
	.section	.text._ZN14wxMenuItemList10CreateNodeEP10wxNodeBaseS1_PvRK9wxListKey,"axG",@progbits,_ZN14wxMenuItemList10CreateNodeEP10wxNodeBaseS1_PvRK9wxListKey,comdat
	.align 2
	.weak	_ZN14wxMenuItemList10CreateNodeEP10wxNodeBaseS1_PvRK9wxListKey
	.type	_ZN14wxMenuItemList10CreateNodeEP10wxNodeBaseS1_PvRK9wxListKey, @function
_ZN14wxMenuItemList10CreateNodeEP10wxNodeBaseS1_PvRK9wxListKey:
.LFB6170:
	.cfi_startproc
	.cfi_personality 0x3,__gxx_personality_v0
	.cfi_lsda 0x3,.LLSDA6170
	pushq	%rbp	#
	.cfi_def_cfa_offset 16
	movq	%rsp, %rbp	#,
	.cfi_offset 6, -16
	.cfi_def_cfa_register 6
	pushq	%r13	#
	pushq	%r12	#
	pushq	%rbx	#
	subq	$56, %rsp	#,
	movq	%rdi, -40(%rbp)	# this, this
	movq	%rsi, -48(%rbp)	# prev, prev
	movq	%rdx, -56(%rbp)	# next, next
	movq	%rcx, -64(%rbp)	# data, data
	movq	%r8, -72(%rbp)	# key, key
	movl	$48, %edi	#,
.LEHB7:
	.cfi_offset 3, -40
	.cfi_offset 12, -32
	.cfi_offset 13, -24
	call	_Znwm	#
.LEHE7:
	movq	%rax, %rbx	# D.77345, D.77343
	movq	-64(%rbp), %rdi	# data, data.1120
	movq	-56(%rbp), %rcx	# next, next.1121
	movq	-48(%rbp), %rdx	# prev, prev.1122
	movq	-40(%rbp), %rsi	# this, D.77349
	movq	%rbx, %rax	# D.77343, D.77350
	movq	-72(%rbp), %r8	# key, tmp69
	movq	%r8, %r9	# tmp69,
	movq	%rdi, %r8	# data.1120,
	movq	%rax, %rdi	# D.77350,
.LEHB8:
	call	_ZN20wxwxMenuItemListNodeC1EP10wxListBasePS_S2_P10wxMenuItemRK9wxListKey	#
.LEHE8:
	jmp	.L364	#
.L363:
.L361:
	movl	%edx, %r12d	# tmp70, save_filt.3982
	movq	%rax, %r13	# tmp71, save_eptr.3981
	movq	%rbx, %rdi	# D.77343,
	call	_ZdlPv	#
	movq	%r13, %rax	# save_eptr.3981, tmp71
	movslq	%r12d,%rdx	# save_filt.3982, tmp70
	movq	%rax, %rdi	# tmp71,
.LEHB9:
	call	_Unwind_Resume	#
.LEHE9:
.L364:
	movq	%rbx, %rax	# D.77343, D.77344
	addq	$56, %rsp	#,
	popq	%rbx	#
	popq	%r12	#
	popq	%r13	#
	leave
	ret
	.cfi_endproc
.LFE6170:
	.size	_ZN14wxMenuItemList10CreateNodeEP10wxNodeBaseS1_PvRK9wxListKey, .-_ZN14wxMenuItemList10CreateNodeEP10wxNodeBaseS1_PvRK9wxListKey
	.section	.gcc_except_table
.LLSDA6170:
	.byte	0xff
	.byte	0xff
	.byte	0x1
	.uleb128 .LLSDACSE6170-.LLSDACSB6170
.LLSDACSB6170:
	.uleb128 .LEHB7-.LFB6170
	.uleb128 .LEHE7-.LEHB7
	.uleb128 0x0
	.uleb128 0x0
	.uleb128 .LEHB8-.LFB6170
	.uleb128 .LEHE8-.LEHB8
	.uleb128 .L363-.LFB6170
	.uleb128 0x0
	.uleb128 .LEHB9-.LFB6170
	.uleb128 .LEHE9-.LEHB9
	.uleb128 0x0
	.uleb128 0x0
.LLSDACSE6170:
	.section	.text._ZN14wxMenuItemList10CreateNodeEP10wxNodeBaseS1_PvRK9wxListKey,"axG",@progbits,_ZN14wxMenuItemList10CreateNodeEP10wxNodeBaseS1_PvRK9wxListKey,comdat
	.section	.text._ZN14wxMenuItemListD1Ev,"axG",@progbits,_ZN14wxMenuItemListD1Ev,comdat
	.align 2
	.weak	_ZN14wxMenuItemListD1Ev
	.type	_ZN14wxMenuItemListD1Ev, @function
_ZN14wxMenuItemListD1Ev:
.LFB6271:
	.cfi_startproc
	.cfi_personality 0x3,__gxx_personality_v0
	pushq	%rbp	#
	.cfi_def_cfa_offset 16
	movq	%rsp, %rbp	#,
	.cfi_offset 6, -16
	.cfi_def_cfa_register 6
	subq	$16, %rsp	#,
	movq	%rdi, -8(%rbp)	# this, this
	movq	-8(%rbp), %rax	# this, tmp61
	movq	$_ZTV14wxMenuItemList+16, (%rax)	#, <variable>.D.77209.D.25141._vptr.wxObject
	movq	-8(%rbp), %rax	# this, this.1140
	movq	%rax, %rdi	# this.1140,
	call	_ZN10wxListBaseD2Ev	#
	movl	$0, %eax	#, D.78142
	testb	%al, %al	# D.78143
	je	.L368	#,
	movq	-8(%rbp), %rax	# this, tmp62
	movq	%rax, %rdi	# tmp62,
	call	_ZdlPv	#
.L368:
	leave
	ret
	.cfi_endproc
.LFE6271:
	.size	_ZN14wxMenuItemListD1Ev, .-_ZN14wxMenuItemListD1Ev
	.section	.text._ZN14wxMenuItemListD0Ev,"axG",@progbits,_ZN14wxMenuItemListD0Ev,comdat
	.align 2
	.weak	_ZN14wxMenuItemListD0Ev
	.type	_ZN14wxMenuItemListD0Ev, @function
_ZN14wxMenuItemListD0Ev:
.LFB6272:
	.cfi_startproc
	.cfi_personality 0x3,__gxx_personality_v0
	pushq	%rbp	#
	.cfi_def_cfa_offset 16
	movq	%rsp, %rbp	#,
	.cfi_offset 6, -16
	.cfi_def_cfa_register 6
	subq	$16, %rsp	#,
	movq	%rdi, -8(%rbp)	# this, this
	movq	-8(%rbp), %rax	# this, tmp61
	movq	$_ZTV14wxMenuItemList+16, (%rax)	#, <variable>.D.77209.D.25141._vptr.wxObject
	movq	-8(%rbp), %rax	# this, this.1140
	movq	%rax, %rdi	# this.1140,
	call	_ZN10wxListBaseD2Ev	#
	movl	$1, %eax	#, D.78151
	testb	%al, %al	# D.78152
	je	.L372	#,
	movq	-8(%rbp), %rax	# this, tmp62
	movq	%rax, %rdi	# tmp62,
	call	_ZdlPv	#
.L372:
	leave
	ret
	.cfi_endproc
.LFE6272:
	.size	_ZN14wxMenuItemListD0Ev, .-_ZN14wxMenuItemListD0Ev
	.section	.text._ZN10wxMenuBaseC2El,"axG",@progbits,_ZN10wxMenuBaseC2El,comdat
	.align 2
	.weak	_ZN10wxMenuBaseC2El
	.type	_ZN10wxMenuBaseC2El, @function
_ZN10wxMenuBaseC2El:
.LFB6276:
	.cfi_startproc
	.cfi_personality 0x3,__gxx_personality_v0
	.cfi_lsda 0x3,.LLSDA6276
	pushq	%rbp	#
	.cfi_def_cfa_offset 16
	movq	%rsp, %rbp	#,
	.cfi_offset 6, -16
	.cfi_def_cfa_register 6
	pushq	%r12	#
	pushq	%rbx	#
	subq	$16, %rsp	#,
	movq	%rdi, -24(%rbp)	# this, this
	movq	%rsi, -32(%rbp)	# style, style
	movq	-24(%rbp), %rax	# this, D.78184
	movq	%rax, %rdi	# D.78184,
.LEHB10:
	.cfi_offset 3, -32
	.cfi_offset 12, -24
	call	_ZN12wxEvtHandlerC2Ev	#
.LEHE10:
	movq	-24(%rbp), %rax	# this, tmp70
	movq	$_ZTV10wxMenuBase+16, (%rax)	#, <variable>.D.78109.D.47561._vptr.wxObject
	movq	-24(%rbp), %rax	# this, tmp71
	addq	$96, %rax	#, D.78185
	movq	%rax, %rdi	# D.78185,
	call	_ZN8wxStringC1Ev	#
	movq	-24(%rbp), %rax	# this, tmp72
	addq	$104, %rax	#, D.78186
	movl	$0, %esi	#,
	movq	%rax, %rdi	# D.78186,
.LEHB11:
	call	_ZN14wxMenuItemListC1E9wxKeyType	#
.LEHE11:
	movq	-32(%rbp), %rdx	# style, tmp73
	movq	-24(%rbp), %rax	# this, tmp74
	movq	%rdx, %rsi	# tmp73,
	movq	%rax, %rdi	# tmp74,
.LEHB12:
	call	_ZN10wxMenuBase4InitEl	#
.LEHE12:
	jmp	.L382	#
.L379:
.L375:
	movl	%edx, %ebx	# tmp75, save_filt.3976
	movq	%rax, %r12	# tmp76, save_eptr.3975
	movq	-24(%rbp), %rax	# this, tmp77
	addq	$104, %rax	#, D.78187
	movq	%rax, %rdi	# D.78187,
	call	_ZN14wxMenuItemListD1Ev	#
	movq	%r12, %rax	# save_eptr.3975, tmp76
	movslq	%ebx,%rdx	# save_filt.3976, tmp75
	jmp	.L376	#
.L380:
.L376:
	movl	%edx, %ebx	# tmp75, save_filt.3978
	movq	%rax, %r12	# tmp76, save_eptr.3977
	movq	-24(%rbp), %rax	# this, tmp78
	addq	$96, %rax	#, D.78188
	movq	%rax, %rdi	# D.78188,
	call	_ZN8wxStringD1Ev	#
	movq	%r12, %rax	# save_eptr.3977, tmp76
	movslq	%ebx,%rdx	# save_filt.3978, tmp75
.L381:
.L377:
	movl	%edx, %ebx	# tmp75, save_filt.3980
	movq	%rax, %r12	# tmp76, save_eptr.3979
	movq	-24(%rbp), %rax	# this, this.1142
	movq	%rax, %rdi	# this.1142,
	call	_ZN12wxEvtHandlerD2Ev	#
	movq	%r12, %rax	# save_eptr.3979, tmp76
	movslq	%ebx,%rdx	# save_filt.3980, tmp75
	movq	%rax, %rdi	# tmp76,
.LEHB13:
	call	_Unwind_Resume	#
.LEHE13:
.L382:
	addq	$16, %rsp	#,
	popq	%rbx	#
	popq	%r12	#
	leave
	ret
	.cfi_endproc
.LFE6276:
	.size	_ZN10wxMenuBaseC2El, .-_ZN10wxMenuBaseC2El
	.section	.gcc_except_table
.LLSDA6276:
	.byte	0xff
	.byte	0xff
	.byte	0x1
	.uleb128 .LLSDACSE6276-.LLSDACSB6276
.LLSDACSB6276:
	.uleb128 .LEHB10-.LFB6276
	.uleb128 .LEHE10-.LEHB10
	.uleb128 0x0
	.uleb128 0x0
	.uleb128 .LEHB11-.LFB6276
	.uleb128 .LEHE11-.LEHB11
	.uleb128 .L380-.LFB6276
	.uleb128 0x0
	.uleb128 .LEHB12-.LFB6276
	.uleb128 .LEHE12-.LEHB12
	.uleb128 .L379-.LFB6276
	.uleb128 0x0
	.uleb128 .LEHB13-.LFB6276
	.uleb128 .LEHE13-.LEHB13
	.uleb128 0x0
	.uleb128 0x0
.LLSDACSE6276:
	.section	.text._ZN10wxMenuBaseC2El,"axG",@progbits,_ZN10wxMenuBaseC2El,comdat
	.section	.text._ZN10wxMenuBase6AppendEiRK8wxStringS2_10wxItemKind,"axG",@progbits,_ZN10wxMenuBase6AppendEiRK8wxStringS2_10wxItemKind,comdat
	.align 2
	.weak	_ZN10wxMenuBase6AppendEiRK8wxStringS2_10wxItemKind
	.type	_ZN10wxMenuBase6AppendEiRK8wxStringS2_10wxItemKind, @function
_ZN10wxMenuBase6AppendEiRK8wxStringS2_10wxItemKind:
.LFB6278:
	.cfi_startproc
	.cfi_personality 0x3,__gxx_personality_v0
	pushq	%rbp	#
	.cfi_def_cfa_offset 16
	movq	%rsp, %rbp	#,
	.cfi_offset 6, -16
	.cfi_def_cfa_register 6
	pushq	%r12	#
	pushq	%rbx	#
	subq	$48, %rsp	#,
	movq	%rdi, -24(%rbp)	# this, this
	movl	%esi, -28(%rbp)	# itemid, itemid
	movq	%rdx, -40(%rbp)	# text, text
	movq	%rcx, -48(%rbp)	# help, help
	movl	%r8d, -52(%rbp)	# kind, kind
	movq	-24(%rbp), %rax	# this, tmp66
	movq	(%rax), %rax	# <variable>.D.78109.D.47561._vptr.wxObject, D.78199
	addq	$176, %rax	#, D.78200
	movq	(%rax), %r12	#* D.78200, D.78201
	.cfi_offset 3, -32
	.cfi_offset 12, -24
	movq	-24(%rbp), %rax	# this, this.1143
	movl	-52(%rbp), %esi	# kind, tmp67
	movq	-48(%rbp), %rcx	# help, tmp68
	movq	-40(%rbp), %rdx	# text, tmp69
	movl	-28(%rbp), %ebx	# itemid, tmp70
	movl	$0, %r9d	#,
	movl	%esi, %r8d	# tmp67,
	movl	%ebx, %esi	# tmp70,
	movq	%rax, %rdi	# this.1143,
	call	_ZN14wxMenuItemBase3NewEP6wxMenuiRK8wxStringS4_10wxItemKindS1_	#
	movq	%rax, %rdx	#, D.78203
	movq	-24(%rbp), %rax	# this, tmp71
	movq	%rdx, %rsi	# D.78203,
	movq	%rax, %rdi	# tmp71,
	call	*%r12	# D.78201
	addq	$48, %rsp	#,
	popq	%rbx	#
	popq	%r12	#
	leave
	ret
	.cfi_endproc
.LFE6278:
	.size	_ZN10wxMenuBase6AppendEiRK8wxStringS2_10wxItemKind, .-_ZN10wxMenuBase6AppendEiRK8wxStringS2_10wxItemKind
	.section	.text._ZN10wxMenuBase15AppendSeparatorEv,"axG",@progbits,_ZN10wxMenuBase15AppendSeparatorEv,comdat
	.align 2
	.weak	_ZN10wxMenuBase15AppendSeparatorEv
	.type	_ZN10wxMenuBase15AppendSeparatorEv, @function
_ZN10wxMenuBase15AppendSeparatorEv:
.LFB6279:
	.cfi_startproc
	.cfi_personality 0x3,__gxx_personality_v0
	.cfi_lsda 0x3,.LLSDA6279
	pushq	%rbp	#
	.cfi_def_cfa_offset 16
	movq	%rsp, %rbp	#,
	.cfi_offset 6, -16
	.cfi_def_cfa_register 6
	pushq	%r12	#
	pushq	%rbx	#
	subq	$48, %rsp	#,
	movq	%rdi, -56(%rbp)	# this, this
	movq	wxEmptyString(%rip), %rdx	# wxEmptyString, wxEmptyString.1144
	leaq	-48(%rbp), %rax	#, tmp67
	movq	%rdx, %rsi	# wxEmptyString.1144,
	movq	%rax, %rdi	# tmp67,
.LEHB14:
	.cfi_offset 3, -32
	.cfi_offset 12, -24
	call	_ZN8wxStringC1EPKw	#
.LEHE14:
	movq	wxEmptyString(%rip), %rdx	# wxEmptyString, wxEmptyString.1145
	leaq	-32(%rbp), %rax	#, tmp68
	movq	%rdx, %rsi	# wxEmptyString.1145,
	movq	%rax, %rdi	# tmp68,
.LEHB15:
	call	_ZN8wxStringC1EPKw	#
.LEHE15:
	leaq	-48(%rbp), %rcx	#, tmp69
	leaq	-32(%rbp), %rdx	#, tmp70
	movq	-56(%rbp), %rax	# this, tmp71
	movl	$0, %r8d	#,
	movl	$-2, %esi	#,
	movq	%rax, %rdi	# tmp71,
.LEHB16:
	call	_ZN10wxMenuBase6AppendEiRK8wxStringS2_10wxItemKind	#
.LEHE16:
	movq	%rax, %rbx	# D.78211, D.78208
	leaq	-32(%rbp), %rax	#, tmp72
	movq	%rax, %rdi	# tmp72,
	call	_ZN8wxStringD1Ev	#
	leaq	-48(%rbp), %rax	#, tmp77
	movq	%rax, %rdi	# tmp77,
	call	_ZN8wxStringD1Ev	#
	movq	%rbx, %rax	# D.78208, <result>
	addq	$48, %rsp	#,
	popq	%rbx	#
	popq	%r12	#
	leave
	ret
.L390:
.L387:
	movl	%edx, %ebx	# tmp73, save_filt.3986
	movq	%rax, %r12	# tmp74, save_eptr.3985
	leaq	-32(%rbp), %rax	#, tmp75
	movq	%rax, %rdi	# tmp75,
	call	_ZN8wxStringD1Ev	#
	movq	%r12, %rax	# save_eptr.3985, tmp74
	movslq	%ebx,%rdx	# save_filt.3986, tmp73
	jmp	.L388	#
.L391:
.L388:
	movl	%edx, %ebx	# tmp73, save_filt.3988
	movq	%rax, %r12	# tmp74, save_eptr.3987
	leaq	-48(%rbp), %rax	#, tmp76
	movq	%rax, %rdi	# tmp76,
	call	_ZN8wxStringD1Ev	#
	movq	%r12, %rax	# save_eptr.3987, tmp74
	movslq	%ebx,%rdx	# save_filt.3988, tmp73
	movq	%rax, %rdi	# tmp74,
.LEHB17:
	call	_Unwind_Resume	#
.LEHE17:
	.cfi_endproc
.LFE6279:
	.size	_ZN10wxMenuBase15AppendSeparatorEv, .-_ZN10wxMenuBase15AppendSeparatorEv
	.section	.gcc_except_table
.LLSDA6279:
	.byte	0xff
	.byte	0xff
	.byte	0x1
	.uleb128 .LLSDACSE6279-.LLSDACSB6279
.LLSDACSB6279:
	.uleb128 .LEHB14-.LFB6279
	.uleb128 .LEHE14-.LEHB14
	.uleb128 0x0
	.uleb128 0x0
	.uleb128 .LEHB15-.LFB6279
	.uleb128 .LEHE15-.LEHB15
	.uleb128 .L391-.LFB6279
	.uleb128 0x0
	.uleb128 .LEHB16-.LFB6279
	.uleb128 .LEHE16-.LEHB16
	.uleb128 .L390-.LFB6279
	.uleb128 0x0
	.uleb128 .LEHB17-.LFB6279
	.uleb128 .LEHE17-.LEHB17
	.uleb128 0x0
	.uleb128 0x0
.LLSDACSE6279:
	.section	.text._ZN10wxMenuBase15AppendSeparatorEv,"axG",@progbits,_ZN10wxMenuBase15AppendSeparatorEv,comdat
	.section	.text._ZN6wxMenuC1El,"axG",@progbits,_ZN6wxMenuC1El,comdat
	.align 2
	.weak	_ZN6wxMenuC1El
	.type	_ZN6wxMenuC1El, @function
_ZN6wxMenuC1El:
.LFB6333:
	.cfi_startproc
	.cfi_personality 0x3,__gxx_personality_v0
	.cfi_lsda 0x3,.LLSDA6333
	pushq	%rbp	#
	.cfi_def_cfa_offset 16
	movq	%rsp, %rbp	#,
	.cfi_offset 6, -16
	.cfi_def_cfa_register 6
	pushq	%r12	#
	pushq	%rbx	#
	subq	$16, %rsp	#,
	movq	%rdi, -24(%rbp)	# this, this
	movq	%rsi, -32(%rbp)	# style, style
	movq	-24(%rbp), %rax	# this, D.78737
	movq	-32(%rbp), %rdx	# style, tmp62
	movq	%rdx, %rsi	# tmp62,
	movq	%rax, %rdi	# D.78737,
.LEHB18:
	.cfi_offset 3, -32
	.cfi_offset 12, -24
	call	_ZN10wxMenuBaseC2El	#
.LEHE18:
	movq	-24(%rbp), %rax	# this, tmp63
	movq	$_ZTV6wxMenu+16, (%rax)	#, <variable>.D.78713.D.78109.D.47561._vptr.wxObject
	movq	-24(%rbp), %rax	# this, tmp64
	movq	%rax, %rdi	# tmp64,
.LEHB19:
	call	_ZN6wxMenu4InitEv	#
.LEHE19:
	jmp	.L397	#
.L396:
.L394:
	movl	%edx, %ebx	# tmp65, save_filt.3974
	movq	%rax, %r12	# tmp66, save_eptr.3973
	movq	-24(%rbp), %rax	# this, this.1156
	movq	%rax, %rdi	# this.1156,
	call	_ZN10wxMenuBaseD2Ev	#
	movq	%r12, %rax	# save_eptr.3973, tmp66
	movslq	%ebx,%rdx	# save_filt.3974, tmp65
	movq	%rax, %rdi	# tmp66,
.LEHB20:
	call	_Unwind_Resume	#
.LEHE20:
.L397:
	addq	$16, %rsp	#,
	popq	%rbx	#
	popq	%r12	#
	leave
	ret
	.cfi_endproc
.LFE6333:
	.size	_ZN6wxMenuC1El, .-_ZN6wxMenuC1El
	.section	.gcc_except_table
.LLSDA6333:
	.byte	0xff
	.byte	0xff
	.byte	0x1
	.uleb128 .LLSDACSE6333-.LLSDACSB6333
.LLSDACSB6333:
	.uleb128 .LEHB18-.LFB6333
	.uleb128 .LEHE18-.LEHB18
	.uleb128 0x0
	.uleb128 0x0
	.uleb128 .LEHB19-.LFB6333
	.uleb128 .LEHE19-.LEHB19
	.uleb128 .L396-.LFB6333
	.uleb128 0x0
	.uleb128 .LEHB20-.LFB6333
	.uleb128 .LEHE20-.LEHB20
	.uleb128 0x0
	.uleb128 0x0
.LLSDACSE6333:
	.section	.text._ZN6wxMenuC1El,"axG",@progbits,_ZN6wxMenuC1El,comdat
	.section	.text._ZN11wxTimerBaseC2EP12wxEvtHandleri,"axG",@progbits,_ZN11wxTimerBaseC2EP12wxEvtHandleri,comdat
	.align 2
	.weak	_ZN11wxTimerBaseC2EP12wxEvtHandleri
	.type	_ZN11wxTimerBaseC2EP12wxEvtHandleri, @function
_ZN11wxTimerBaseC2EP12wxEvtHandleri:
.LFB6378:
	.cfi_startproc
	.cfi_personality 0x3,__gxx_personality_v0
	pushq	%rbp	#
	.cfi_def_cfa_offset 16
	movq	%rsp, %rbp	#,
	.cfi_offset 6, -16
	.cfi_def_cfa_register 6
	subq	$32, %rsp	#,
	movq	%rdi, -8(%rbp)	# this, this
	movq	%rsi, -16(%rbp)	# owner, owner
	movl	%edx, -20(%rbp)	# timerid, timerid
	movq	-8(%rbp), %rax	# this, D.79387
	movq	%rax, %rdi	# D.79387,
	call	_ZN12wxEvtHandlerC2Ev	#
	movq	-8(%rbp), %rax	# this, tmp62
	movq	$_ZTV11wxTimerBase+16, (%rax)	#, <variable>.D.79363.D.47561._vptr.wxObject
	movq	-8(%rbp), %rax	# this, tmp63
	movq	%rax, %rdi	# tmp63,
	call	_ZN11wxTimerBase4InitEv	#
	movl	-20(%rbp), %edx	# timerid, tmp64
	movq	-16(%rbp), %rcx	# owner, tmp65
	movq	-8(%rbp), %rax	# this, tmp66
	movq	%rcx, %rsi	# tmp65,
	movq	%rax, %rdi	# tmp66,
	call	_ZN11wxTimerBase8SetOwnerEP12wxEvtHandleri	#
	leave
	ret
.L400:
	.cfi_endproc
.LFE6378:
	.size	_ZN11wxTimerBaseC2EP12wxEvtHandleri, .-_ZN11wxTimerBaseC2EP12wxEvtHandleri
	.section	.text._ZN11wxTimerBase8SetOwnerEP12wxEvtHandleri,"axG",@progbits,_ZN11wxTimerBase8SetOwnerEP12wxEvtHandleri,comdat
	.align 2
	.weak	_ZN11wxTimerBase8SetOwnerEP12wxEvtHandleri
	.type	_ZN11wxTimerBase8SetOwnerEP12wxEvtHandleri, @function
_ZN11wxTimerBase8SetOwnerEP12wxEvtHandleri:
.LFB6380:
	.cfi_startproc
	.cfi_personality 0x3,__gxx_personality_v0
	pushq	%rbp	#
	.cfi_def_cfa_offset 16
	movq	%rsp, %rbp	#,
	.cfi_offset 6, -16
	.cfi_def_cfa_register 6
	subq	$32, %rsp	#,
	movq	%rdi, -8(%rbp)	# this, this
	movq	%rsi, -16(%rbp)	# owner, owner
	movl	%edx, -20(%rbp)	# timerid, timerid
	movq	-8(%rbp), %rax	# this, tmp60
	movq	-16(%rbp), %rdx	# owner, tmp61
	movq	%rdx, 80(%rax)	# tmp61, <variable>.m_owner
	cmpl	$-1, -20(%rbp)	#, timerid
	jne	.L403	#,
	call	_ZN12wxWindowBase12NewControlIdEv	#
	jmp	.L404	#
.L403:
	movl	-20(%rbp), %eax	# timerid, iftmp.1167
.L404:
	movq	-8(%rbp), %rdx	# this, tmp62
	movl	%eax, 88(%rdx)	# iftmp.1167, <variable>.m_idTimer
	leave
	ret
	.cfi_endproc
.LFE6380:
	.size	_ZN11wxTimerBase8SetOwnerEP12wxEvtHandleri, .-_ZN11wxTimerBase8SetOwnerEP12wxEvtHandleri
	.section	.text._ZN11wxTimerBase4InitEv,"axG",@progbits,_ZN11wxTimerBase4InitEv,comdat
	.align 2
	.weak	_ZN11wxTimerBase4InitEv
	.type	_ZN11wxTimerBase4InitEv, @function
_ZN11wxTimerBase4InitEv:
.LFB6385:
	.cfi_startproc
	.cfi_personality 0x3,__gxx_personality_v0
	pushq	%rbp	#
	.cfi_def_cfa_offset 16
	movq	%rsp, %rbp	#,
	.cfi_offset 6, -16
	.cfi_def_cfa_register 6
	movq	%rdi, -8(%rbp)	# this, this
	movq	-8(%rbp), %rax	# this, tmp58
	movq	$0, 80(%rax)	#, <variable>.m_owner
	movq	-8(%rbp), %rax	# this, tmp59
	movl	$-1, 88(%rax)	#, <variable>.m_idTimer
	movq	-8(%rbp), %rax	# this, tmp60
	movl	$0, 92(%rax)	#, <variable>.m_milli
	movq	-8(%rbp), %rax	# this, tmp61
	movb	$0, 96(%rax)	#, <variable>.m_oneShot
	leave
	ret
	.cfi_endproc
.LFE6385:
	.size	_ZN11wxTimerBase4InitEv, .-_ZN11wxTimerBase4InitEv
	.section	.text._ZN7wxTimerC1EP12wxEvtHandleri,"axG",@progbits,_ZN7wxTimerC1EP12wxEvtHandleri,comdat
	.align 2
	.weak	_ZN7wxTimerC1EP12wxEvtHandleri
	.type	_ZN7wxTimerC1EP12wxEvtHandleri, @function
_ZN7wxTimerC1EP12wxEvtHandleri:
.LFB6391:
	.cfi_startproc
	.cfi_personality 0x3,__gxx_personality_v0
	.cfi_lsda 0x3,.LLSDA6391
	pushq	%rbp	#
	.cfi_def_cfa_offset 16
	movq	%rsp, %rbp	#,
	.cfi_offset 6, -16
	.cfi_def_cfa_register 6
	pushq	%r12	#
	pushq	%rbx	#
	subq	$32, %rsp	#,
	movq	%rdi, -24(%rbp)	# this, this
	movq	%rsi, -32(%rbp)	# owner, owner
	movl	%edx, -36(%rbp)	# id, id
	movq	-24(%rbp), %rax	# this, D.79474
	movl	-36(%rbp), %edx	# id, tmp62
	movq	-32(%rbp), %rcx	# owner, tmp63
	movq	%rcx, %rsi	# tmp63,
	movq	%rax, %rdi	# D.79474,
.LEHB21:
	.cfi_offset 3, -32
	.cfi_offset 12, -24
	call	_ZN11wxTimerBaseC2EP12wxEvtHandleri	#
.LEHE21:
	movq	-24(%rbp), %rax	# this, tmp64
	movq	$_ZTV7wxTimer+16, (%rax)	#, <variable>.D.79453.D.79363.D.47561._vptr.wxObject
	movq	-24(%rbp), %rax	# this, tmp65
	movq	%rax, %rdi	# tmp65,
.LEHB22:
	call	_ZN7wxTimer4InitEv	#
.LEHE22:
	jmp	.L413	#
.L412:
.L410:
	movl	%edx, %ebx	# tmp66, save_filt.4134
	movq	%rax, %r12	# tmp67, save_eptr.4133
	movq	-24(%rbp), %rax	# this, this.1169
	movq	%rax, %rdi	# this.1169,
	call	_ZN11wxTimerBaseD2Ev	#
	movq	%r12, %rax	# save_eptr.4133, tmp67
	movslq	%ebx,%rdx	# save_filt.4134, tmp66
	movq	%rax, %rdi	# tmp67,
.LEHB23:
	call	_Unwind_Resume	#
.LEHE23:
.L413:
	addq	$32, %rsp	#,
	popq	%rbx	#
	popq	%r12	#
	leave
	ret
	.cfi_endproc
.LFE6391:
	.size	_ZN7wxTimerC1EP12wxEvtHandleri, .-_ZN7wxTimerC1EP12wxEvtHandleri
	.section	.gcc_except_table
.LLSDA6391:
	.byte	0xff
	.byte	0xff
	.byte	0x1
	.uleb128 .LLSDACSE6391-.LLSDACSB6391
.LLSDACSB6391:
	.uleb128 .LEHB21-.LFB6391
	.uleb128 .LEHE21-.LEHB21
	.uleb128 0x0
	.uleb128 0x0
	.uleb128 .LEHB22-.LFB6391
	.uleb128 .LEHE22-.LEHB22
	.uleb128 .L412-.LFB6391
	.uleb128 0x0
	.uleb128 .LEHB23-.LFB6391
	.uleb128 .LEHE23-.LEHB23
	.uleb128 0x0
	.uleb128 0x0
.LLSDACSE6391:
	.section	.text._ZN7wxTimerC1EP12wxEvtHandleri,"axG",@progbits,_ZN7wxTimerC1EP12wxEvtHandleri,comdat
	.section	.text._ZN11wxPrintData14SetOrientationEi,"axG",@progbits,_ZN11wxPrintData14SetOrientationEi,comdat
	.align 2
	.weak	_ZN11wxPrintData14SetOrientationEi
	.type	_ZN11wxPrintData14SetOrientationEi, @function
_ZN11wxPrintData14SetOrientationEi:
.LFB6466:
	.cfi_startproc
	.cfi_personality 0x3,__gxx_personality_v0
	pushq	%rbp	#
	.cfi_def_cfa_offset 16
	movq	%rsp, %rbp	#,
	.cfi_offset 6, -16
	.cfi_def_cfa_register 6
	movq	%rdi, -8(%rbp)	# this, this
	movl	%esi, -12(%rbp)	# orient, orient
	movq	-8(%rbp), %rax	# this, tmp58
	movl	-12(%rbp), %edx	# orient, tmp59
	movl	%edx, 32(%rax)	# tmp59, <variable>.m_printOrientation
	leave
	ret
	.cfi_endproc
.LFE6466:
	.size	_ZN11wxPrintData14SetOrientationEi, .-_ZN11wxPrintData14SetOrientationEi
	.local	_ZStL8__ioinit
	.comm	_ZStL8__ioinit,1,1
	.section	.text._ZN12wxSliderBaseC2Ev,"axG",@progbits,_ZN12wxSliderBaseC2Ev,comdat
	.align 2
	.weak	_ZN12wxSliderBaseC2Ev
	.type	_ZN12wxSliderBaseC2Ev, @function
_ZN12wxSliderBaseC2Ev:
.LFB7674:
	.cfi_startproc
	.cfi_personality 0x3,__gxx_personality_v0
	pushq	%rbp	#
	.cfi_def_cfa_offset 16
	movq	%rsp, %rbp	#,
	.cfi_offset 6, -16
	.cfi_def_cfa_register 6
	subq	$16, %rsp	#,
	movq	%rdi, -8(%rbp)	# this, this
	movq	-8(%rbp), %rax	# this, D.98662
	movq	%rax, %rdi	# D.98662,
	call	_ZN9wxControlC2Ev	#
	movq	-8(%rbp), %rax	# this, tmp60
	movq	$_ZTV12wxSliderBase+16, (%rax)	#, <variable>.D.98654.D.74800.D.74647.D.61439.D.59436.D.47561._vptr.wxObject
	leave
	ret
	.cfi_endproc
.LFE7674:
	.size	_ZN12wxSliderBaseC2Ev, .-_ZN12wxSliderBaseC2Ev
	.section	.text._ZN12wxSliderBase11SetTickFreqEii,"axG",@progbits,_ZN12wxSliderBase11SetTickFreqEii,comdat
	.align 2
	.weak	_ZN12wxSliderBase11SetTickFreqEii
	.type	_ZN12wxSliderBase11SetTickFreqEii, @function
_ZN12wxSliderBase11SetTickFreqEii:
.LFB7678:
	.cfi_startproc
	.cfi_personality 0x3,__gxx_personality_v0
	pushq	%rbp	#
	.cfi_def_cfa_offset 16
	movq	%rsp, %rbp	#,
	.cfi_offset 6, -16
	.cfi_def_cfa_register 6
	movq	%rdi, -8(%rbp)	# this, this
	movl	%esi, -12(%rbp)	# D.98602, D.98602
	movl	%edx, -16(%rbp)	# D.98603, D.98603
	leave
	ret
	.cfi_endproc
.LFE7678:
	.size	_ZN12wxSliderBase11SetTickFreqEii, .-_ZN12wxSliderBase11SetTickFreqEii
	.section	.text._ZNK12wxSliderBase11GetTickFreqEv,"axG",@progbits,_ZNK12wxSliderBase11GetTickFreqEv,comdat
	.align 2
	.weak	_ZNK12wxSliderBase11GetTickFreqEv
	.type	_ZNK12wxSliderBase11GetTickFreqEv, @function
_ZNK12wxSliderBase11GetTickFreqEv:
.LFB7679:
	.cfi_startproc
	.cfi_personality 0x3,__gxx_personality_v0
	pushq	%rbp	#
	.cfi_def_cfa_offset 16
	movq	%rsp, %rbp	#,
	.cfi_offset 6, -16
	.cfi_def_cfa_register 6
	movq	%rdi, -8(%rbp)	# this, this
	movl	$0, %eax	#, D.98685
	leave
	ret
	.cfi_endproc
.LFE7679:
	.size	_ZNK12wxSliderBase11GetTickFreqEv, .-_ZNK12wxSliderBase11GetTickFreqEv
	.section	.text._ZN12wxSliderBase10ClearTicksEv,"axG",@progbits,_ZN12wxSliderBase10ClearTicksEv,comdat
	.align 2
	.weak	_ZN12wxSliderBase10ClearTicksEv
	.type	_ZN12wxSliderBase10ClearTicksEv, @function
_ZN12wxSliderBase10ClearTicksEv:
.LFB7680:
	.cfi_startproc
	.cfi_personality 0x3,__gxx_personality_v0
	pushq	%rbp	#
	.cfi_def_cfa_offset 16
	movq	%rsp, %rbp	#,
	.cfi_offset 6, -16
	.cfi_def_cfa_register 6
	movq	%rdi, -8(%rbp)	# this, this
	leave
	ret
	.cfi_endproc
.LFE7680:
	.size	_ZN12wxSliderBase10ClearTicksEv, .-_ZN12wxSliderBase10ClearTicksEv
	.section	.text._ZN12wxSliderBase7SetTickEi,"axG",@progbits,_ZN12wxSliderBase7SetTickEi,comdat
	.align 2
	.weak	_ZN12wxSliderBase7SetTickEi
	.type	_ZN12wxSliderBase7SetTickEi, @function
_ZN12wxSliderBase7SetTickEi:
.LFB7681:
	.cfi_startproc
	.cfi_personality 0x3,__gxx_personality_v0
	pushq	%rbp	#
	.cfi_def_cfa_offset 16
	movq	%rsp, %rbp	#,
	.cfi_offset 6, -16
	.cfi_def_cfa_register 6
	movq	%rdi, -8(%rbp)	# this, this
	movl	%esi, -12(%rbp)	# D.98610, D.98610
	leave
	ret
	.cfi_endproc
.LFE7681:
	.size	_ZN12wxSliderBase7SetTickEi, .-_ZN12wxSliderBase7SetTickEi
	.section	.text._ZN12wxSliderBase8ClearSelEv,"axG",@progbits,_ZN12wxSliderBase8ClearSelEv,comdat
	.align 2
	.weak	_ZN12wxSliderBase8ClearSelEv
	.type	_ZN12wxSliderBase8ClearSelEv, @function
_ZN12wxSliderBase8ClearSelEv:
.LFB7682:
	.cfi_startproc
	.cfi_personality 0x3,__gxx_personality_v0
	pushq	%rbp	#
	.cfi_def_cfa_offset 16
	movq	%rsp, %rbp	#,
	.cfi_offset 6, -16
	.cfi_def_cfa_register 6
	movq	%rdi, -8(%rbp)	# this, this
	leave
	ret
	.cfi_endproc
.LFE7682:
	.size	_ZN12wxSliderBase8ClearSelEv, .-_ZN12wxSliderBase8ClearSelEv
	.section	.text._ZNK12wxSliderBase9GetSelEndEv,"axG",@progbits,_ZNK12wxSliderBase9GetSelEndEv,comdat
	.align 2
	.weak	_ZNK12wxSliderBase9GetSelEndEv
	.type	_ZNK12wxSliderBase9GetSelEndEv, @function
_ZNK12wxSliderBase9GetSelEndEv:
.LFB7683:
	.cfi_startproc
	.cfi_personality 0x3,__gxx_personality_v0
	pushq	%rbp	#
	.cfi_def_cfa_offset 16
	movq	%rsp, %rbp	#,
	.cfi_offset 6, -16
	.cfi_def_cfa_register 6
	subq	$16, %rsp	#,
	movq	%rdi, -8(%rbp)	# this, this
	movq	-8(%rbp), %rax	# this, tmp64
	movq	(%rax), %rax	# <variable>.D.98654.D.74800.D.74647.D.61439.D.59436.D.47561._vptr.wxObject, D.98691
	addq	$1296, %rax	#, D.98692
	movq	(%rax), %rdx	#* D.98692, D.98693
	movq	-8(%rbp), %rax	# this, tmp65
	movq	%rax, %rdi	# tmp65,
	call	*%rdx	# D.98693
	leave
	ret
	.cfi_endproc
.LFE7683:
	.size	_ZNK12wxSliderBase9GetSelEndEv, .-_ZNK12wxSliderBase9GetSelEndEv
	.section	.text._ZNK12wxSliderBase11GetSelStartEv,"axG",@progbits,_ZNK12wxSliderBase11GetSelStartEv,comdat
	.align 2
	.weak	_ZNK12wxSliderBase11GetSelStartEv
	.type	_ZNK12wxSliderBase11GetSelStartEv, @function
_ZNK12wxSliderBase11GetSelStartEv:
.LFB7684:
	.cfi_startproc
	.cfi_personality 0x3,__gxx_personality_v0
	pushq	%rbp	#
	.cfi_def_cfa_offset 16
	movq	%rsp, %rbp	#,
	.cfi_offset 6, -16
	.cfi_def_cfa_register 6
	subq	$16, %rsp	#,
	movq	%rdi, -8(%rbp)	# this, this
	movq	-8(%rbp), %rax	# this, tmp64
	movq	(%rax), %rax	# <variable>.D.98654.D.74800.D.74647.D.61439.D.59436.D.47561._vptr.wxObject, D.98697
	addq	$1304, %rax	#, D.98698
	movq	(%rax), %rdx	#* D.98698, D.98699
	movq	-8(%rbp), %rax	# this, tmp65
	movq	%rax, %rdi	# tmp65,
	call	*%rdx	# D.98699
	leave
	ret
	.cfi_endproc
.LFE7684:
	.size	_ZNK12wxSliderBase11GetSelStartEv, .-_ZNK12wxSliderBase11GetSelStartEv
	.section	.text._ZN12wxSliderBase12SetSelectionEii,"axG",@progbits,_ZN12wxSliderBase12SetSelectionEii,comdat
	.align 2
	.weak	_ZN12wxSliderBase12SetSelectionEii
	.type	_ZN12wxSliderBase12SetSelectionEii, @function
_ZN12wxSliderBase12SetSelectionEii:
.LFB7685:
	.cfi_startproc
	.cfi_personality 0x3,__gxx_personality_v0
	pushq	%rbp	#
	.cfi_def_cfa_offset 16
	movq	%rsp, %rbp	#,
	.cfi_offset 6, -16
	.cfi_def_cfa_register 6
	movq	%rdi, -8(%rbp)	# this, this
	movl	%esi, -12(%rbp)	# D.98619, D.98619
	movl	%edx, -16(%rbp)	# D.98620, D.98620
	leave
	ret
	.cfi_endproc
.LFE7685:
	.size	_ZN12wxSliderBase12SetSelectionEii, .-_ZN12wxSliderBase12SetSelectionEii
	.section	.text._ZNK12wxSliderBase16ValueInvertOrNotEi,"axG",@progbits,_ZNK12wxSliderBase16ValueInvertOrNotEi,comdat
	.align 2
	.weak	_ZNK12wxSliderBase16ValueInvertOrNotEi
	.type	_ZNK12wxSliderBase16ValueInvertOrNotEi, @function
_ZNK12wxSliderBase16ValueInvertOrNotEi:
.LFB7686:
	.cfi_startproc
	.cfi_personality 0x3,__gxx_personality_v0
	pushq	%rbp	#
	.cfi_def_cfa_offset 16
	movq	%rsp, %rbp	#,
	.cfi_offset 6, -16
	.cfi_def_cfa_register 6
	pushq	%rbx	#
	subq	$24, %rsp	#,
	movq	%rdi, -24(%rbp)	# this, this
	movl	%esi, -28(%rbp)	# value, value
	movq	-24(%rbp), %rax	# this, D.98704
	movl	$4096, %esi	#,
	movq	%rax, %rdi	# D.98704,
	.cfi_offset 3, -24
	call	_ZNK12wxWindowBase7HasFlagEi	#
	testb	%al, %al	# retval.1381
	je	.L435	#,
	movq	-24(%rbp), %rax	# this, tmp72
	movq	(%rax), %rax	# <variable>.D.98654.D.74800.D.74647.D.61439.D.59436.D.47561._vptr.wxObject, D.98709
	addq	$1304, %rax	#, D.98710
	movq	(%rax), %rdx	#* D.98710, D.98711
	movq	-24(%rbp), %rax	# this, tmp73
	movq	%rax, %rdi	# tmp73,
	call	*%rdx	# D.98711
	movl	%eax, %ebx	#, D.98712
	movq	-24(%rbp), %rax	# this, tmp74
	movq	(%rax), %rax	# <variable>.D.98654.D.74800.D.74647.D.61439.D.59436.D.47561._vptr.wxObject, D.98713
	addq	$1296, %rax	#, D.98714
	movq	(%rax), %rdx	#* D.98714, D.98715
	movq	-24(%rbp), %rax	# this, tmp75
	movq	%rax, %rdi	# tmp75,
	call	*%rdx	# D.98715
	leal	(%rbx,%rax), %eax	#, D.98717
	subl	-28(%rbp), %eax	# value, D.98708
	jmp	.L436	#
.L435:
	movl	-28(%rbp), %eax	# value, D.98708
.L436:
	addq	$24, %rsp	#,
	popq	%rbx	#
	leave
	ret
	.cfi_endproc
.LFE7686:
	.size	_ZNK12wxSliderBase16ValueInvertOrNotEi, .-_ZNK12wxSliderBase16ValueInvertOrNotEi
	.section	.text._ZN12wxSliderBaseD2Ev,"axG",@progbits,_ZN12wxSliderBaseD2Ev,comdat
	.align 2
	.weak	_ZN12wxSliderBaseD2Ev
	.type	_ZN12wxSliderBaseD2Ev, @function
_ZN12wxSliderBaseD2Ev:
.LFB7689:
	.cfi_startproc
	.cfi_personality 0x3,__gxx_personality_v0
	pushq	%rbp	#
	.cfi_def_cfa_offset 16
	movq	%rsp, %rbp	#,
	.cfi_offset 6, -16
	.cfi_def_cfa_register 6
	subq	$16, %rsp	#,
	movq	%rdi, -8(%rbp)	# this, this
	movq	-8(%rbp), %rax	# this, tmp61
	movq	$_ZTV12wxSliderBase+16, (%rax)	#, <variable>.D.98654.D.74800.D.74647.D.61439.D.59436.D.47561._vptr.wxObject
	movq	-8(%rbp), %rax	# this, this.1382
	movq	%rax, %rdi	# this.1382,
	call	_ZN9wxControlD2Ev	#
	movl	$0, %eax	#, D.98846
	testb	%al, %al	# D.98847
	je	.L441	#,
	movq	-8(%rbp), %rax	# this, tmp62
	movq	%rax, %rdi	# tmp62,
	call	_ZdlPv	#
.L441:
	leave
	ret
	.cfi_endproc
.LFE7689:
	.size	_ZN12wxSliderBaseD2Ev, .-_ZN12wxSliderBaseD2Ev
	.section	.text._ZN12wxSliderBaseD1Ev,"axG",@progbits,_ZN12wxSliderBaseD1Ev,comdat
	.align 2
	.weak	_ZN12wxSliderBaseD1Ev
	.type	_ZN12wxSliderBaseD1Ev, @function
_ZN12wxSliderBaseD1Ev:
.LFB7690:
	.cfi_startproc
	.cfi_personality 0x3,__gxx_personality_v0
	pushq	%rbp	#
	.cfi_def_cfa_offset 16
	movq	%rsp, %rbp	#,
	.cfi_offset 6, -16
	.cfi_def_cfa_register 6
	subq	$16, %rsp	#,
	movq	%rdi, -8(%rbp)	# this, this
	movq	-8(%rbp), %rax	# this, tmp61
	movq	$_ZTV12wxSliderBase+16, (%rax)	#, <variable>.D.98654.D.74800.D.74647.D.61439.D.59436.D.47561._vptr.wxObject
	movq	-8(%rbp), %rax	# this, this.1382
	movq	%rax, %rdi	# this.1382,
	call	_ZN9wxControlD2Ev	#
	movl	$0, %eax	#, D.98855
	testb	%al, %al	# D.98856
	je	.L445	#,
	movq	-8(%rbp), %rax	# this, tmp62
	movq	%rax, %rdi	# tmp62,
	call	_ZdlPv	#
.L445:
	leave
	ret
	.cfi_endproc
.LFE7690:
	.size	_ZN12wxSliderBaseD1Ev, .-_ZN12wxSliderBaseD1Ev
	.section	.text._ZN12wxSliderBaseD0Ev,"axG",@progbits,_ZN12wxSliderBaseD0Ev,comdat
	.align 2
	.weak	_ZN12wxSliderBaseD0Ev
	.type	_ZN12wxSliderBaseD0Ev, @function
_ZN12wxSliderBaseD0Ev:
.LFB7691:
	.cfi_startproc
	.cfi_personality 0x3,__gxx_personality_v0
	pushq	%rbp	#
	.cfi_def_cfa_offset 16
	movq	%rsp, %rbp	#,
	.cfi_offset 6, -16
	.cfi_def_cfa_register 6
	subq	$16, %rsp	#,
	movq	%rdi, -8(%rbp)	# this, this
	movq	-8(%rbp), %rax	# this, tmp61
	movq	$_ZTV12wxSliderBase+16, (%rax)	#, <variable>.D.98654.D.74800.D.74647.D.61439.D.59436.D.47561._vptr.wxObject
	movq	-8(%rbp), %rax	# this, this.1382
	movq	%rax, %rdi	# this.1382,
	call	_ZN9wxControlD2Ev	#
	movl	$1, %eax	#, D.98864
	testb	%al, %al	# D.98865
	je	.L449	#,
	movq	-8(%rbp), %rax	# this, tmp62
	movq	%rax, %rdi	# tmp62,
	call	_ZdlPv	#
.L449:
	leave
	ret
	.cfi_endproc
.LFE7691:
	.size	_ZN12wxSliderBaseD0Ev, .-_ZN12wxSliderBaseD0Ev
	.section	.text._ZN8wxSliderC1EP8wxWindowiiiiRK7wxPointRK6wxSizelRK11wxValidatorRK8wxString,"axG",@progbits,_ZN8wxSliderC1EP8wxWindowiiiiRK7wxPointRK6wxSizelRK11wxValidatorRK8wxString,comdat
	.align 2
	.weak	_ZN8wxSliderC1EP8wxWindowiiiiRK7wxPointRK6wxSizelRK11wxValidatorRK8wxString
	.type	_ZN8wxSliderC1EP8wxWindowiiiiRK7wxPointRK6wxSizelRK11wxValidatorRK8wxString, @function
_ZN8wxSliderC1EP8wxWindowiiiiRK7wxPointRK6wxSizelRK11wxValidatorRK8wxString:
.LFB7693:
	.cfi_startproc
	.cfi_personality 0x3,__gxx_personality_v0
	.cfi_lsda 0x3,.LLSDA7693
	pushq	%rbp	#
	.cfi_def_cfa_offset 16
	movq	%rsp, %rbp	#,
	.cfi_offset 6, -16
	.cfi_def_cfa_register 6
	pushq	%r12	#
	pushq	%rbx	#
	subq	$80, %rsp	#,
	movq	%rdi, -24(%rbp)	# this, this
	movq	%rsi, -32(%rbp)	# parent, parent
	movl	%edx, -36(%rbp)	# id, id
	movl	%ecx, -40(%rbp)	# value, value
	movl	%r8d, -44(%rbp)	# minValue, minValue
	movl	%r9d, -48(%rbp)	# maxValue, maxValue
	movq	-24(%rbp), %rax	# this, D.98875
	movq	%rax, %rdi	# D.98875,
.LEHB24:
	.cfi_offset 3, -32
	.cfi_offset 12, -24
	call	_ZN12wxSliderBaseC2Ev	#
.LEHE24:
	movq	-24(%rbp), %rax	# this, tmp62
	movq	$_ZTV8wxSlider+16, (%rax)	#, <variable>.D.98826.D.98654.D.74800.D.74647.D.61439.D.59436.D.47561._vptr.wxObject
	movl	-48(%rbp), %r8d	# maxValue, tmp63
	movl	-44(%rbp), %edi	# minValue, tmp64
	movl	-40(%rbp), %ecx	# value, tmp65
	movl	-36(%rbp), %edx	# id, tmp66
	movq	-32(%rbp), %rbx	# parent, tmp67
	movq	-24(%rbp), %rax	# this, tmp68
	movq	48(%rbp), %rsi	# name, tmp69
	movq	%rsi, 32(%rsp)	# tmp69,
	movq	40(%rbp), %rsi	# validator, tmp70
	movq	%rsi, 24(%rsp)	# tmp70,
	movq	32(%rbp), %rsi	# style, tmp71
	movq	%rsi, 16(%rsp)	# tmp71,
	movq	24(%rbp), %rsi	# size, tmp72
	movq	%rsi, 8(%rsp)	# tmp72,
	movq	16(%rbp), %rsi	# pos, tmp73
	movq	%rsi, (%rsp)	# tmp73,
	movl	%r8d, %r9d	# tmp63,
	movl	%edi, %r8d	# tmp64,
	movq	%rbx, %rsi	# tmp67,
	movq	%rax, %rdi	# tmp68,
.LEHB25:
	call	_ZN8wxSlider6CreateEP8wxWindowiiiiRK7wxPointRK6wxSizelRK11wxValidatorRK8wxString	#
.LEHE25:
	jmp	.L455	#
.L454:
.L452:
	movl	%edx, %ebx	# tmp74, save_filt.3651
	movq	%rax, %r12	# tmp75, save_eptr.3650
	movq	-24(%rbp), %rax	# this, this.1383
	movq	%rax, %rdi	# this.1383,
	call	_ZN12wxSliderBaseD2Ev	#
	movq	%r12, %rax	# save_eptr.3650, tmp75
	movslq	%ebx,%rdx	# save_filt.3651, tmp74
	movq	%rax, %rdi	# tmp75,
.LEHB26:
	call	_Unwind_Resume	#
.LEHE26:
.L455:
	addq	$80, %rsp	#,
	popq	%rbx	#
	popq	%r12	#
	leave
	ret
	.cfi_endproc
.LFE7693:
	.size	_ZN8wxSliderC1EP8wxWindowiiiiRK7wxPointRK6wxSizelRK11wxValidatorRK8wxString, .-_ZN8wxSliderC1EP8wxWindowiiiiRK7wxPointRK6wxSizelRK11wxValidatorRK8wxString
	.section	.gcc_except_table
.LLSDA7693:
	.byte	0xff
	.byte	0xff
	.byte	0x1
	.uleb128 .LLSDACSE7693-.LLSDACSB7693
.LLSDACSB7693:
	.uleb128 .LEHB24-.LFB7693
	.uleb128 .LEHE24-.LEHB24
	.uleb128 0x0
	.uleb128 0x0
	.uleb128 .LEHB25-.LFB7693
	.uleb128 .LEHE25-.LEHB25
	.uleb128 .L454-.LFB7693
	.uleb128 0x0
	.uleb128 .LEHB26-.LFB7693
	.uleb128 .LEHE26-.LEHB26
	.uleb128 0x0
	.uleb128 0x0
.LLSDACSE7693:
	.section	.text._ZN8wxSliderC1EP8wxWindowiiiiRK7wxPointRK6wxSizelRK11wxValidatorRK8wxString,"axG",@progbits,_ZN8wxSliderC1EP8wxWindowiiiiRK7wxPointRK6wxSizelRK11wxValidatorRK8wxString,comdat
	.section	.text._ZN13wxToolBarBase7AddToolEiRK8wxStringRK8wxBitmapS5_10wxItemKindS2_S2_P8wxObject,"axG",@progbits,_ZN13wxToolBarBase7AddToolEiRK8wxStringRK8wxBitmapS5_10wxItemKindS2_S2_P8wxObject,comdat
	.align 2
	.weak	_ZN13wxToolBarBase7AddToolEiRK8wxStringRK8wxBitmapS5_10wxItemKindS2_S2_P8wxObject
	.type	_ZN13wxToolBarBase7AddToolEiRK8wxStringRK8wxBitmapS5_10wxItemKindS2_S2_P8wxObject, @function
_ZN13wxToolBarBase7AddToolEiRK8wxStringRK8wxBitmapS5_10wxItemKindS2_S2_P8wxObject:
.LFB7950:
	.cfi_startproc
	.cfi_personality 0x3,__gxx_personality_v0
	pushq	%rbp	#
	.cfi_def_cfa_offset 16
	movq	%rsp, %rbp	#,
	.cfi_offset 6, -16
	.cfi_def_cfa_register 6
	pushq	%rbx	#
	subq	$104, %rsp	#,
	movq	%rdi, -24(%rbp)	# this, this
	movl	%esi, -28(%rbp)	# toolid, toolid
	movq	%rdx, -40(%rbp)	# label, label
	movq	%rcx, -48(%rbp)	# bitmap, bitmap
	movq	%r8, -56(%rbp)	# bmpDisabled, bmpDisabled
	movl	%r9d, -60(%rbp)	# kind, kind
	movq	-24(%rbp), %rax	# this, tmp64
	movq	(%rax), %rax	# <variable>.D.102161.D.74800.D.74647.D.61439.D.59436.D.47561._vptr.wxObject, D.102176
	addq	$1584, %rax	#, D.102177
	movq	(%rax), %r10	#* D.102177, D.102178
	movl	-60(%rbp), %r8d	# kind, tmp65
	movq	-56(%rbp), %rdi	# bmpDisabled, tmp66
	movq	-48(%rbp), %rcx	# bitmap, tmp67
	movq	-40(%rbp), %rdx	# label, tmp68
	movl	-28(%rbp), %ebx	# toolid, tmp69
	.cfi_offset 3, -24
	movq	-24(%rbp), %rax	# this, tmp70
	movl	$-1, 32(%rsp)	#,
	movl	$-1, 24(%rsp)	#,
	movq	32(%rbp), %rsi	# data, tmp71
	movq	%rsi, 16(%rsp)	# tmp71,
	movq	24(%rbp), %rsi	# longHelp, tmp72
	movq	%rsi, 8(%rsp)	# tmp72,
	movq	16(%rbp), %rsi	# shortHelp, tmp73
	movq	%rsi, (%rsp)	# tmp73,
	movl	%r8d, %r9d	# tmp65,
	movq	%rdi, %r8	# tmp66,
	movl	%ebx, %esi	# tmp69,
	movq	%rax, %rdi	# tmp70,
	call	*%r10	# D.102178
	addq	$104, %rsp	#,
	popq	%rbx	#
	leave
	ret
	.cfi_endproc
.LFE7950:
	.size	_ZN13wxToolBarBase7AddToolEiRK8wxStringRK8wxBitmapS5_10wxItemKindS2_S2_P8wxObject, .-_ZN13wxToolBarBase7AddToolEiRK8wxStringRK8wxBitmapS5_10wxItemKindS2_S2_P8wxObject
	.section	.text._ZN13wxToolBarBase7AddToolEiRK8wxStringRK8wxBitmapS2_10wxItemKind,"axG",@progbits,_ZN13wxToolBarBase7AddToolEiRK8wxStringRK8wxBitmapS2_10wxItemKind,comdat
	.align 2
	.weak	_ZN13wxToolBarBase7AddToolEiRK8wxStringRK8wxBitmapS2_10wxItemKind
	.type	_ZN13wxToolBarBase7AddToolEiRK8wxStringRK8wxBitmapS2_10wxItemKind, @function
_ZN13wxToolBarBase7AddToolEiRK8wxStringRK8wxBitmapS2_10wxItemKind:
.LFB7951:
	.cfi_startproc
	.cfi_personality 0x3,__gxx_personality_v0
	.cfi_lsda 0x3,.LLSDA7951
	pushq	%rbp	#
	.cfi_def_cfa_offset 16
	movq	%rsp, %rbp	#,
	.cfi_offset 6, -16
	.cfi_def_cfa_register 6
	pushq	%r12	#
	pushq	%rbx	#
	subq	$96, %rsp	#,
	movq	%rdi, -40(%rbp)	# this, this
	movl	%esi, -44(%rbp)	# toolid, toolid
	movq	%rdx, -56(%rbp)	# label, label
	movq	%rcx, -64(%rbp)	# bitmap, bitmap
	movq	%r8, -72(%rbp)	# shortHelp, shortHelp
	movl	%r9d, -76(%rbp)	# kind, kind
	movq	wxEmptyString(%rip), %rdx	# wxEmptyString, wxEmptyString.1441
	leaq	-32(%rbp), %rax	#, tmp64
	movq	%rdx, %rsi	# wxEmptyString.1441,
	movq	%rax, %rdi	# tmp64,
.LEHB27:
	.cfi_offset 3, -32
	.cfi_offset 12, -24
	call	_ZN8wxStringC1EPKw	#
.LEHE27:
	movl	-76(%rbp), %edi	# kind, tmp65
	movq	-64(%rbp), %rcx	# bitmap, tmp66
	movq	-56(%rbp), %rdx	# label, tmp67
	movl	-44(%rbp), %ebx	# toolid, tmp68
	movq	-40(%rbp), %rax	# this, tmp69
	movq	$0, 16(%rsp)	#,
	leaq	-32(%rbp), %rsi	#, tmp70
	movq	%rsi, 8(%rsp)	# tmp70,
	movq	-72(%rbp), %rsi	# shortHelp, tmp71
	movq	%rsi, (%rsp)	# tmp71,
	movl	%edi, %r9d	# tmp65,
	movl	$wxNullBitmap, %r8d	#,
	movl	%ebx, %esi	# tmp68,
	movq	%rax, %rdi	# tmp69,
.LEHB28:
	call	_ZN13wxToolBarBase7AddToolEiRK8wxStringRK8wxBitmapS5_10wxItemKindS2_S2_P8wxObject	#
.LEHE28:
	movq	%rax, %rbx	# D.102184, D.102182
	leaq	-32(%rbp), %rax	#, tmp72
	movq	%rax, %rdi	# tmp72,
	call	_ZN8wxStringD1Ev	#
	movq	%rbx, %rax	# D.102182, <result>
	addq	$96, %rsp	#,
	popq	%rbx	#
	popq	%r12	#
	leave
	ret
.L461:
.L459:
	movl	%edx, %ebx	# tmp74, save_filt.3655
	movq	%rax, %r12	# tmp75, save_eptr.3654
	leaq	-32(%rbp), %rax	#, tmp76
	movq	%rax, %rdi	# tmp76,
	call	_ZN8wxStringD1Ev	#
	movq	%r12, %rax	# save_eptr.3654, tmp75
	movslq	%ebx,%rdx	# save_filt.3655, tmp74
	movq	%rax, %rdi	# tmp75,
.LEHB29:
	call	_Unwind_Resume	#
.LEHE29:
	.cfi_endproc
.LFE7951:
	.size	_ZN13wxToolBarBase7AddToolEiRK8wxStringRK8wxBitmapS2_10wxItemKind, .-_ZN13wxToolBarBase7AddToolEiRK8wxStringRK8wxBitmapS2_10wxItemKind
	.section	.gcc_except_table
.LLSDA7951:
	.byte	0xff
	.byte	0xff
	.byte	0x1
	.uleb128 .LLSDACSE7951-.LLSDACSB7951
.LLSDACSB7951:
	.uleb128 .LEHB27-.LFB7951
	.uleb128 .LEHE27-.LEHB27
	.uleb128 0x0
	.uleb128 0x0
	.uleb128 .LEHB28-.LFB7951
	.uleb128 .LEHE28-.LEHB28
	.uleb128 .L461-.LFB7951
	.uleb128 0x0
	.uleb128 .LEHB29-.LFB7951
	.uleb128 .LEHE29-.LEHB29
	.uleb128 0x0
	.uleb128 0x0
.LLSDACSE7951:
	.section	.text._ZN13wxToolBarBase7AddToolEiRK8wxStringRK8wxBitmapS2_10wxItemKind,"axG",@progbits,_ZN13wxToolBarBase7AddToolEiRK8wxStringRK8wxBitmapS2_10wxItemKind,comdat
	.section	.text._ZN9wxToolBarC1EP8wxWindowiRK7wxPointRK6wxSizelRK8wxString,"axG",@progbits,_ZN9wxToolBarC1EP8wxWindowiRK7wxPointRK6wxSizelRK8wxString,comdat
	.align 2
	.weak	_ZN9wxToolBarC1EP8wxWindowiRK7wxPointRK6wxSizelRK8wxString
	.type	_ZN9wxToolBarC1EP8wxWindowiRK7wxPointRK6wxSizelRK8wxString, @function
_ZN9wxToolBarC1EP8wxWindowiRK7wxPointRK6wxSizelRK8wxString:
.LFB7979:
	.cfi_startproc
	.cfi_personality 0x3,__gxx_personality_v0
	.cfi_lsda 0x3,.LLSDA7979
	pushq	%rbp	#
	.cfi_def_cfa_offset 16
	movq	%rsp, %rbp	#,
	.cfi_offset 6, -16
	.cfi_def_cfa_register 6
	pushq	%r12	#
	pushq	%rbx	#
	subq	$64, %rsp	#,
	movq	%rdi, -24(%rbp)	# this, this
	movq	%rsi, -32(%rbp)	# parent, parent
	movl	%edx, -36(%rbp)	# id, id
	movq	%rcx, -48(%rbp)	# pos, pos
	movq	%r8, -56(%rbp)	# size, size
	movq	%r9, -64(%rbp)	# style, style
	movq	-24(%rbp), %rax	# this, D.102433
	movq	%rax, %rdi	# D.102433,
.LEHB30:
	.cfi_offset 3, -32
	.cfi_offset 12, -24
	call	_ZN13wxToolBarBaseC2Ev	#
.LEHE30:
	movq	-24(%rbp), %rax	# this, tmp62
	movq	$_ZTV9wxToolBar+16, (%rax)	#, <variable>.D.102411.D.102161.D.74800.D.74647.D.61439.D.59436.D.47561._vptr.wxObject
	movq	-24(%rbp), %rax	# this, tmp63
	movq	%rax, %rdi	# tmp63,
.LEHB31:
	call	_ZN9wxToolBar4InitEv	#
	movq	-64(%rbp), %r8	# style, tmp64
	movq	-56(%rbp), %rdi	# size, tmp65
	movq	-48(%rbp), %rcx	# pos, tmp66
	movl	-36(%rbp), %edx	# id, tmp67
	movq	-32(%rbp), %rbx	# parent, tmp68
	movq	-24(%rbp), %rax	# this, tmp69
	movq	16(%rbp), %rsi	# name, tmp70
	movq	%rsi, (%rsp)	# tmp70,
	movq	%r8, %r9	# tmp64,
	movq	%rdi, %r8	# tmp65,
	movq	%rbx, %rsi	# tmp68,
	movq	%rax, %rdi	# tmp69,
	call	_ZN9wxToolBar6CreateEP8wxWindowiRK7wxPointRK6wxSizelRK8wxString	#
.LEHE31:
	jmp	.L467	#
.L466:
.L464:
	movl	%edx, %ebx	# tmp71, save_filt.4122
	movq	%rax, %r12	# tmp72, save_eptr.4121
	movq	-24(%rbp), %rax	# this, this.1450
	movq	%rax, %rdi	# this.1450,
	call	_ZN13wxToolBarBaseD2Ev	#
	movq	%r12, %rax	# save_eptr.4121, tmp72
	movslq	%ebx,%rdx	# save_filt.4122, tmp71
	movq	%rax, %rdi	# tmp72,
.LEHB32:
	call	_Unwind_Resume	#
.LEHE32:
.L467:
	addq	$64, %rsp	#,
	popq	%rbx	#
	popq	%r12	#
	leave
	ret
	.cfi_endproc
.LFE7979:
	.size	_ZN9wxToolBarC1EP8wxWindowiRK7wxPointRK6wxSizelRK8wxString, .-_ZN9wxToolBarC1EP8wxWindowiRK7wxPointRK6wxSizelRK8wxString
	.section	.gcc_except_table
.LLSDA7979:
	.byte	0xff
	.byte	0xff
	.byte	0x1
	.uleb128 .LLSDACSE7979-.LLSDACSB7979
.LLSDACSB7979:
	.uleb128 .LEHB30-.LFB7979
	.uleb128 .LEHE30-.LEHB30
	.uleb128 0x0
	.uleb128 0x0
	.uleb128 .LEHB31-.LFB7979
	.uleb128 .LEHE31-.LEHB31
	.uleb128 .L466-.LFB7979
	.uleb128 0x0
	.uleb128 .LEHB32-.LFB7979
	.uleb128 .LEHE32-.LEHB32
	.uleb128 0x0
	.uleb128 0x0
.LLSDACSE7979:
	.section	.text._ZN9wxToolBarC1EP8wxWindowiRK7wxPointRK6wxSizelRK8wxString,"axG",@progbits,_ZN9wxToolBarC1EP8wxWindowiRK7wxPointRK6wxSizelRK8wxString,comdat
	.section	.text._ZN12wxSizerFlagsC1Ei,"axG",@progbits,_ZN12wxSizerFlagsC1Ei,comdat
	.align 2
	.weak	_ZN12wxSizerFlagsC1Ei
	.type	_ZN12wxSizerFlagsC1Ei, @function
_ZN12wxSizerFlagsC1Ei:
.LFB8036:
	.cfi_startproc
	.cfi_personality 0x3,__gxx_personality_v0
	pushq	%rbp	#
	.cfi_def_cfa_offset 16
	movq	%rsp, %rbp	#,
	.cfi_offset 6, -16
	.cfi_def_cfa_register 6
	movq	%rdi, -8(%rbp)	# this, this
	movl	%esi, -12(%rbp)	# proportion, proportion
	movq	-8(%rbp), %rax	# this, tmp58
	movl	-12(%rbp), %edx	# proportion, tmp59
	movl	%edx, (%rax)	# tmp59, <variable>.m_proportion
	movq	-8(%rbp), %rax	# this, tmp60
	movl	$0, 4(%rax)	#, <variable>.m_flags
	movq	-8(%rbp), %rax	# this, tmp61
	movl	$0, 8(%rax)	#, <variable>.m_borderInPixels
	leave
	ret
	.cfi_endproc
.LFE8036:
	.size	_ZN12wxSizerFlagsC1Ei, .-_ZN12wxSizerFlagsC1Ei
	.section	.text._ZN12wxSizerFlags6ExpandEv,"axG",@progbits,_ZN12wxSizerFlags6ExpandEv,comdat
	.align 2
	.weak	_ZN12wxSizerFlags6ExpandEv
	.type	_ZN12wxSizerFlags6ExpandEv, @function
_ZN12wxSizerFlags6ExpandEv:
.LFB8039:
	.cfi_startproc
	.cfi_personality 0x3,__gxx_personality_v0
	pushq	%rbp	#
	.cfi_def_cfa_offset 16
	movq	%rsp, %rbp	#,
	.cfi_offset 6, -16
	.cfi_def_cfa_register 6
	movq	%rdi, -8(%rbp)	# this, this
	movq	-8(%rbp), %rax	# this, tmp62
	movl	4(%rax), %eax	# <variable>.m_flags, D.103535
	movl	%eax, %edx	# D.103535, D.103536
	orb	$32, %dh	#, D.103536
	movq	-8(%rbp), %rax	# this, tmp63
	movl	%edx, 4(%rax)	# D.103536, <variable>.m_flags
	movq	-8(%rbp), %rax	# this, D.103537
	leave
	ret
	.cfi_endproc
.LFE8039:
	.size	_ZN12wxSizerFlags6ExpandEv, .-_ZN12wxSizerFlags6ExpandEv
	.section	.text._ZN12wxSizerFlags6BorderEii,"axG",@progbits,_ZN12wxSizerFlags6BorderEii,comdat
	.align 2
	.weak	_ZN12wxSizerFlags6BorderEii
	.type	_ZN12wxSizerFlags6BorderEii, @function
_ZN12wxSizerFlags6BorderEii:
.LFB8047:
	.cfi_startproc
	.cfi_personality 0x3,__gxx_personality_v0
	pushq	%rbp	#
	.cfi_def_cfa_offset 16
	movq	%rsp, %rbp	#,
	.cfi_offset 6, -16
	.cfi_def_cfa_register 6
	movq	%rdi, -8(%rbp)	# this, this
	movl	%esi, -12(%rbp)	# direction, direction
	movl	%edx, -16(%rbp)	# borderInPixels, borderInPixels
	movq	-8(%rbp), %rax	# this, tmp64
	movl	4(%rax), %eax	# <variable>.m_flags, D.103559
	movl	%eax, %edx	# D.103559, D.103560
	andb	$15, %dl	#, D.103560
	movq	-8(%rbp), %rax	# this, tmp65
	movl	%edx, 4(%rax)	# D.103560, <variable>.m_flags
	movq	-8(%rbp), %rax	# this, tmp66
	movl	4(%rax), %eax	# <variable>.m_flags, D.103561
	movl	%eax, %edx	# D.103561, D.103562
	orl	-12(%rbp), %edx	# direction, D.103562
	movq	-8(%rbp), %rax	# this, tmp67
	movl	%edx, 4(%rax)	# D.103562, <variable>.m_flags
	movq	-8(%rbp), %rax	# this, tmp68
	movl	-16(%rbp), %edx	# borderInPixels, tmp69
	movl	%edx, 8(%rax)	# tmp69, <variable>.m_borderInPixels
	movq	-8(%rbp), %rax	# this, D.103563
	leave
	ret
	.cfi_endproc
.LFE8047:
	.size	_ZN12wxSizerFlags6BorderEii, .-_ZN12wxSizerFlags6BorderEii
	.section	.text._ZN11wxSizerItemC1EP8wxWindowRK12wxSizerFlags,"axG",@progbits,_ZN11wxSizerItemC1EP8wxWindowRK12wxSizerFlags,comdat
	.align 2
	.weak	_ZN11wxSizerItemC1EP8wxWindowRK12wxSizerFlags
	.type	_ZN11wxSizerItemC1EP8wxWindowRK12wxSizerFlags, @function
_ZN11wxSizerItemC1EP8wxWindowRK12wxSizerFlags:
.LFB8067:
	.cfi_startproc
	.cfi_personality 0x3,__gxx_personality_v0
	.cfi_lsda 0x3,.LLSDA8067
	pushq	%rbp	#
	.cfi_def_cfa_offset 16
	movq	%rsp, %rbp	#,
	.cfi_offset 6, -16
	.cfi_def_cfa_register 6
	pushq	%r12	#
	pushq	%rbx	#
	subq	$32, %rsp	#,
	movq	%rdi, -24(%rbp)	# this, this
	movq	%rsi, -32(%rbp)	# window, window
	movq	%rdx, -40(%rbp)	# flags, flags
	movq	-24(%rbp), %rax	# this, D.103928
	movq	%rax, %rdi	# D.103928,
	.cfi_offset 3, -32
	.cfi_offset 12, -24
	call	_ZN8wxObjectC2Ev	#
	movq	-24(%rbp), %rax	# this, tmp65
	movq	$_ZTV11wxSizerItem+16, (%rax)	#, <variable>.D.103901._vptr.wxObject
	movq	-24(%rbp), %rax	# this, tmp66
	addq	$32, %rax	#, D.103929
	movq	%rax, %rdi	# D.103929,
	call	_ZN7wxPointC1Ev	#
	movq	-24(%rbp), %rax	# this, tmp67
	addq	$40, %rax	#, D.103930
	movq	%rax, %rdi	# D.103930,
	call	_ZN6wxSizeC1Ev	#
	movq	-24(%rbp), %rax	# this, tmp68
	addq	$60, %rax	#, D.103931
	movq	%rax, %rdi	# D.103931,
	call	_ZN6wxRectC1Ev	#
	movq	-40(%rbp), %rdx	# flags, tmp69
	movq	-24(%rbp), %rax	# this, tmp70
	movq	%rdx, %rsi	# tmp69,
	movq	%rax, %rdi	# tmp70,
.LEHB33:
	call	_ZN11wxSizerItem4InitERK12wxSizerFlags	#
	movq	-32(%rbp), %rdx	# window, tmp71
	movq	-24(%rbp), %rax	# this, tmp72
	movq	%rdx, %rsi	# tmp71,
	movq	%rax, %rdi	# tmp72,
	call	_ZN11wxSizerItem9SetWindowEP8wxWindow	#
.LEHE33:
	jmp	.L479	#
.L478:
.L476:
	movl	%edx, %ebx	# tmp73, save_filt.4130
	movq	%rax, %r12	# tmp74, save_eptr.4129
	movq	-24(%rbp), %rax	# this, this.1464
	movq	%rax, %rdi	# this.1464,
	call	_ZN8wxObjectD2Ev	#
	movq	%r12, %rax	# save_eptr.4129, tmp74
	movslq	%ebx,%rdx	# save_filt.4130, tmp73
	movq	%rax, %rdi	# tmp74,
.LEHB34:
	call	_Unwind_Resume	#
.LEHE34:
.L479:
	addq	$32, %rsp	#,
	popq	%rbx	#
	popq	%r12	#
	leave
	ret
	.cfi_endproc
.LFE8067:
	.size	_ZN11wxSizerItemC1EP8wxWindowRK12wxSizerFlags, .-_ZN11wxSizerItemC1EP8wxWindowRK12wxSizerFlags
	.section	.gcc_except_table
.LLSDA8067:
	.byte	0xff
	.byte	0xff
	.byte	0x1
	.uleb128 .LLSDACSE8067-.LLSDACSB8067
.LLSDACSB8067:
	.uleb128 .LEHB33-.LFB8067
	.uleb128 .LEHE33-.LEHB33
	.uleb128 .L478-.LFB8067
	.uleb128 0x0
	.uleb128 .LEHB34-.LFB8067
	.uleb128 .LEHE34-.LEHB34
	.uleb128 0x0
	.uleb128 0x0
.LLSDACSE8067:
	.section	.text._ZN11wxSizerItemC1EP8wxWindowRK12wxSizerFlags,"axG",@progbits,_ZN11wxSizerItemC1EP8wxWindowRK12wxSizerFlags,comdat
	.section	.text._ZN11wxSizerItemC1EP7wxSizerRK12wxSizerFlags,"axG",@progbits,_ZN11wxSizerItemC1EP7wxSizerRK12wxSizerFlags,comdat
	.align 2
	.weak	_ZN11wxSizerItemC1EP7wxSizerRK12wxSizerFlags
	.type	_ZN11wxSizerItemC1EP7wxSizerRK12wxSizerFlags, @function
_ZN11wxSizerItemC1EP7wxSizerRK12wxSizerFlags:
.LFB8070:
	.cfi_startproc
	.cfi_personality 0x3,__gxx_personality_v0
	.cfi_lsda 0x3,.LLSDA8070
	pushq	%rbp	#
	.cfi_def_cfa_offset 16
	movq	%rsp, %rbp	#,
	.cfi_offset 6, -16
	.cfi_def_cfa_register 6
	pushq	%r12	#
	pushq	%rbx	#
	subq	$32, %rsp	#,
	movq	%rdi, -24(%rbp)	# this, this
	movq	%rsi, -32(%rbp)	# sizer, sizer
	movq	%rdx, -40(%rbp)	# flags, flags
	movq	-24(%rbp), %rax	# this, D.103946
	movq	%rax, %rdi	# D.103946,
	.cfi_offset 3, -32
	.cfi_offset 12, -24
	call	_ZN8wxObjectC2Ev	#
	movq	-24(%rbp), %rax	# this, tmp65
	movq	$_ZTV11wxSizerItem+16, (%rax)	#, <variable>.D.103901._vptr.wxObject
	movq	-24(%rbp), %rax	# this, tmp66
	addq	$32, %rax	#, D.103947
	movq	%rax, %rdi	# D.103947,
	call	_ZN7wxPointC1Ev	#
	movq	-24(%rbp), %rax	# this, tmp67
	addq	$40, %rax	#, D.103948
	movq	%rax, %rdi	# D.103948,
	call	_ZN6wxSizeC1Ev	#
	movq	-24(%rbp), %rax	# this, tmp68
	addq	$60, %rax	#, D.103949
	movq	%rax, %rdi	# D.103949,
	call	_ZN6wxRectC1Ev	#
	movq	-40(%rbp), %rdx	# flags, tmp69
	movq	-24(%rbp), %rax	# this, tmp70
	movq	%rdx, %rsi	# tmp69,
	movq	%rax, %rdi	# tmp70,
.LEHB35:
	call	_ZN11wxSizerItem4InitERK12wxSizerFlags	#
	movq	-32(%rbp), %rdx	# sizer, tmp71
	movq	-24(%rbp), %rax	# this, tmp72
	movq	%rdx, %rsi	# tmp71,
	movq	%rax, %rdi	# tmp72,
	call	_ZN11wxSizerItem8SetSizerEP7wxSizer	#
.LEHE35:
	jmp	.L485	#
.L484:
.L482:
	movl	%edx, %ebx	# tmp73, save_filt.4126
	movq	%rax, %r12	# tmp74, save_eptr.4125
	movq	-24(%rbp), %rax	# this, this.1465
	movq	%rax, %rdi	# this.1465,
	call	_ZN8wxObjectD2Ev	#
	movq	%r12, %rax	# save_eptr.4125, tmp74
	movslq	%ebx,%rdx	# save_filt.4126, tmp73
	movq	%rax, %rdi	# tmp74,
.LEHB36:
	call	_Unwind_Resume	#
.LEHE36:
.L485:
	addq	$32, %rsp	#,
	popq	%rbx	#
	popq	%r12	#
	leave
	ret
	.cfi_endproc
.LFE8070:
	.size	_ZN11wxSizerItemC1EP7wxSizerRK12wxSizerFlags, .-_ZN11wxSizerItemC1EP7wxSizerRK12wxSizerFlags
	.section	.gcc_except_table
.LLSDA8070:
	.byte	0xff
	.byte	0xff
	.byte	0x1
	.uleb128 .LLSDACSE8070-.LLSDACSB8070
.LLSDACSB8070:
	.uleb128 .LEHB35-.LFB8070
	.uleb128 .LEHE35-.LEHB35
	.uleb128 .L484-.LFB8070
	.uleb128 0x0
	.uleb128 .LEHB36-.LFB8070
	.uleb128 .LEHE36-.LEHB36
	.uleb128 0x0
	.uleb128 0x0
.LLSDACSE8070:
	.section	.text._ZN11wxSizerItemC1EP7wxSizerRK12wxSizerFlags,"axG",@progbits,_ZN11wxSizerItemC1EP7wxSizerRK12wxSizerFlags,comdat
	.section	.text._ZN7wxSizer3AddEP11wxSizerItem,"axG",@progbits,_ZN7wxSizer3AddEP11wxSizerItem,comdat
	.align 2
	.weak	_ZN7wxSizer3AddEP11wxSizerItem
	.type	_ZN7wxSizer3AddEP11wxSizerItem, @function
_ZN7wxSizer3AddEP11wxSizerItem:
.LFB8286:
	.cfi_startproc
	.cfi_personality 0x3,__gxx_personality_v0
	pushq	%rbp	#
	.cfi_def_cfa_offset 16
	movq	%rsp, %rbp	#,
	.cfi_offset 6, -16
	.cfi_def_cfa_register 6
	pushq	%rbx	#
	subq	$24, %rsp	#,
	movq	%rdi, -24(%rbp)	# this, this
	movq	%rsi, -32(%rbp)	# item, item
	movq	-24(%rbp), %rax	# this, tmp66
	movq	(%rax), %rax	# <variable>.D.105579._vptr.wxObject, D.106253
	addq	$40, %rax	#, D.106254
	movq	(%rax), %rbx	#* D.106254, D.106255
	.cfi_offset 3, -24
	movq	-24(%rbp), %rax	# this, tmp67
	addq	$64, %rax	#, D.106256
	movq	%rax, %rdi	# D.106256,
	call	_ZNK10wxListBase8GetCountEv	#
	movq	%rax, %rcx	#, D.106257
	movq	-32(%rbp), %rdx	# item, tmp68
	movq	-24(%rbp), %rax	# this, tmp69
	movq	%rcx, %rsi	# D.106257,
	movq	%rax, %rdi	# tmp69,
	call	*%rbx	# D.106255
	addq	$24, %rsp	#,
	popq	%rbx	#
	leave
	ret
	.cfi_endproc
.LFE8286:
	.size	_ZN7wxSizer3AddEP11wxSizerItem, .-_ZN7wxSizer3AddEP11wxSizerItem
	.section	.text._ZN7wxSizer3AddEP8wxWindowRK12wxSizerFlags,"axG",@progbits,_ZN7wxSizer3AddEP8wxWindowRK12wxSizerFlags,comdat
	.align 2
	.weak	_ZN7wxSizer3AddEP8wxWindowRK12wxSizerFlags
	.type	_ZN7wxSizer3AddEP8wxWindowRK12wxSizerFlags, @function
_ZN7wxSizer3AddEP8wxWindowRK12wxSizerFlags:
.LFB8290:
	.cfi_startproc
	.cfi_personality 0x3,__gxx_personality_v0
	.cfi_lsda 0x3,.LLSDA8290
	pushq	%rbp	#
	.cfi_def_cfa_offset 16
	movq	%rsp, %rbp	#,
	.cfi_offset 6, -16
	.cfi_def_cfa_register 6
	pushq	%r13	#
	pushq	%r12	#
	pushq	%rbx	#
	subq	$40, %rsp	#,
	movq	%rdi, -40(%rbp)	# this, this
	movq	%rsi, -48(%rbp)	# window, window
	movq	%rdx, -56(%rbp)	# flags, flags
	movl	$88, %edi	#,
.LEHB37:
	.cfi_offset 3, -40
	.cfi_offset 12, -32
	.cfi_offset 13, -24
	call	_Znwm	#
.LEHE37:
	movq	%rax, %rbx	# D.106309, D.106307
	movq	%rbx, %rax	# D.106307, D.106310
	movq	-56(%rbp), %rdx	# flags, tmp67
	movq	-48(%rbp), %rcx	# window, tmp68
	movq	%rcx, %rsi	# tmp68,
	movq	%rax, %rdi	# D.106310,
.LEHB38:
	call	_ZN11wxSizerItemC1EP8wxWindowRK12wxSizerFlags	#
.LEHE38:
	jmp	.L493	#
.L492:
.L490:
	movl	%edx, %r12d	# tmp69, save_filt.4128
	movq	%rax, %r13	# tmp70, save_eptr.4127
	movq	%rbx, %rdi	# D.106307,
	call	_ZdlPv	#
	movq	%r13, %rax	# save_eptr.4127, tmp70
	movslq	%r12d,%rdx	# save_filt.4128, tmp69
	movq	%rax, %rdi	# tmp70,
.LEHB39:
	call	_Unwind_Resume	#
.L493:
	movq	%rbx, %rdx	# D.106307, D.106311
	movq	-40(%rbp), %rax	# this, tmp71
	movq	%rdx, %rsi	# D.106311,
	movq	%rax, %rdi	# tmp71,
	call	_ZN7wxSizer3AddEP11wxSizerItem	#
.LEHE39:
	addq	$40, %rsp	#,
	popq	%rbx	#
	popq	%r12	#
	popq	%r13	#
	leave
	ret
	.cfi_endproc
.LFE8290:
	.size	_ZN7wxSizer3AddEP8wxWindowRK12wxSizerFlags, .-_ZN7wxSizer3AddEP8wxWindowRK12wxSizerFlags
	.section	.gcc_except_table
.LLSDA8290:
	.byte	0xff
	.byte	0xff
	.byte	0x1
	.uleb128 .LLSDACSE8290-.LLSDACSB8290
.LLSDACSB8290:
	.uleb128 .LEHB37-.LFB8290
	.uleb128 .LEHE37-.LEHB37
	.uleb128 0x0
	.uleb128 0x0
	.uleb128 .LEHB38-.LFB8290
	.uleb128 .LEHE38-.LEHB38
	.uleb128 .L492-.LFB8290
	.uleb128 0x0
	.uleb128 .LEHB39-.LFB8290
	.uleb128 .LEHE39-.LEHB39
	.uleb128 0x0
	.uleb128 0x0
.LLSDACSE8290:
	.section	.text._ZN7wxSizer3AddEP8wxWindowRK12wxSizerFlags,"axG",@progbits,_ZN7wxSizer3AddEP8wxWindowRK12wxSizerFlags,comdat
	.section	.text._ZN7wxSizer3AddEPS_RK12wxSizerFlags,"axG",@progbits,_ZN7wxSizer3AddEPS_RK12wxSizerFlags,comdat
	.align 2
	.weak	_ZN7wxSizer3AddEPS_RK12wxSizerFlags
	.type	_ZN7wxSizer3AddEPS_RK12wxSizerFlags, @function
_ZN7wxSizer3AddEPS_RK12wxSizerFlags:
.LFB8291:
	.cfi_startproc
	.cfi_personality 0x3,__gxx_personality_v0
	.cfi_lsda 0x3,.LLSDA8291
	pushq	%rbp	#
	.cfi_def_cfa_offset 16
	movq	%rsp, %rbp	#,
	.cfi_offset 6, -16
	.cfi_def_cfa_register 6
	pushq	%r13	#
	pushq	%r12	#
	pushq	%rbx	#
	subq	$40, %rsp	#,
	movq	%rdi, -40(%rbp)	# this, this
	movq	%rsi, -48(%rbp)	# sizer, sizer
	movq	%rdx, -56(%rbp)	# flags, flags
	movl	$88, %edi	#,
.LEHB40:
	.cfi_offset 3, -40
	.cfi_offset 12, -32
	.cfi_offset 13, -24
	call	_Znwm	#
.LEHE40:
	movq	%rax, %rbx	# D.106320, D.106318
	movq	%rbx, %rax	# D.106318, D.106321
	movq	-56(%rbp), %rdx	# flags, tmp67
	movq	-48(%rbp), %rcx	# sizer, tmp68
	movq	%rcx, %rsi	# tmp68,
	movq	%rax, %rdi	# D.106321,
.LEHB41:
	call	_ZN11wxSizerItemC1EP7wxSizerRK12wxSizerFlags	#
.LEHE41:
	jmp	.L499	#
.L498:
.L496:
	movl	%edx, %r12d	# tmp69, save_filt.4124
	movq	%rax, %r13	# tmp70, save_eptr.4123
	movq	%rbx, %rdi	# D.106318,
	call	_ZdlPv	#
	movq	%r13, %rax	# save_eptr.4123, tmp70
	movslq	%r12d,%rdx	# save_filt.4124, tmp69
	movq	%rax, %rdi	# tmp70,
.LEHB42:
	call	_Unwind_Resume	#
.L499:
	movq	%rbx, %rdx	# D.106318, D.106322
	movq	-40(%rbp), %rax	# this, tmp71
	movq	%rdx, %rsi	# D.106322,
	movq	%rax, %rdi	# tmp71,
	call	_ZN7wxSizer3AddEP11wxSizerItem	#
.LEHE42:
	addq	$40, %rsp	#,
	popq	%rbx	#
	popq	%r12	#
	popq	%r13	#
	leave
	ret
	.cfi_endproc
.LFE8291:
	.size	_ZN7wxSizer3AddEPS_RK12wxSizerFlags, .-_ZN7wxSizer3AddEPS_RK12wxSizerFlags
	.section	.gcc_except_table
.LLSDA8291:
	.byte	0xff
	.byte	0xff
	.byte	0x1
	.uleb128 .LLSDACSE8291-.LLSDACSB8291
.LLSDACSB8291:
	.uleb128 .LEHB40-.LFB8291
	.uleb128 .LEHE40-.LEHB40
	.uleb128 0x0
	.uleb128 0x0
	.uleb128 .LEHB41-.LFB8291
	.uleb128 .LEHE41-.LEHB41
	.uleb128 .L498-.LFB8291
	.uleb128 0x0
	.uleb128 .LEHB42-.LFB8291
	.uleb128 .LEHE42-.LEHB42
	.uleb128 0x0
	.uleb128 0x0
.LLSDACSE8291:
	.section	.text._ZN7wxSizer3AddEPS_RK12wxSizerFlags,"axG",@progbits,_ZN7wxSizer3AddEPS_RK12wxSizerFlags,comdat
	.section	.text._ZN12wxFileDialogD1Ev,"axG",@progbits,_ZN12wxFileDialogD1Ev,comdat
	.align 2
	.weak	_ZN12wxFileDialogD1Ev
	.type	_ZN12wxFileDialogD1Ev, @function
_ZN12wxFileDialogD1Ev:
.LFB8710:
	.cfi_startproc
	.cfi_personality 0x3,__gxx_personality_v0
	pushq	%rbp	#
	.cfi_def_cfa_offset 16
	movq	%rsp, %rbp	#,
	.cfi_offset 6, -16
	.cfi_def_cfa_register 6
	subq	$16, %rsp	#,
	movq	%rdi, -8(%rbp)	# this, this
	movq	-8(%rbp), %rax	# this, tmp61
	movq	$_ZTV12wxFileDialog+16, (%rax)	#, <variable>.D.112018.D.111449.D.109499.D.79242.D.79068.D.62641.D.62511.D.62257.D.61439.D.59436.D.47561._vptr.wxObject
	movq	-8(%rbp), %rax	# this, this.1583
	movq	%rax, %rdi	# this.1583,
	call	_ZN19wxGenericFileDialogD2Ev	#
	movl	$0, %eax	#, D.112061
	testb	%al, %al	# D.112062
	je	.L503	#,
	movq	-8(%rbp), %rax	# this, tmp62
	movq	%rax, %rdi	# tmp62,
	call	_ZdlPv	#
.L503:
	leave
	ret
	.cfi_endproc
.LFE8710:
	.size	_ZN12wxFileDialogD1Ev, .-_ZN12wxFileDialogD1Ev
	.section	.text._ZN13wxPrinterBase12GetLastErrorEv,"axG",@progbits,_ZN13wxPrinterBase12GetLastErrorEv,comdat
	.weak	_ZN13wxPrinterBase12GetLastErrorEv
	.type	_ZN13wxPrinterBase12GetLastErrorEv, @function
_ZN13wxPrinterBase12GetLastErrorEv:
.LFB8725:
	.cfi_startproc
	.cfi_personality 0x3,__gxx_personality_v0
	pushq	%rbp	#
	.cfi_def_cfa_offset 16
	movq	%rsp, %rbp	#,
	.cfi_offset 6, -16
	.cfi_def_cfa_register 6
	movl	_ZN13wxPrinterBase12sm_lastErrorE(%rip), %eax	# sm_lastError, D.112430
	leave
	ret
	.cfi_endproc
.LFE8725:
	.size	_ZN13wxPrinterBase12GetLastErrorEv, .-_ZN13wxPrinterBase12GetLastErrorEv
	.section	.text._ZNK19wxBookCtrlBaseEvent12GetSelectionEv,"axG",@progbits,_ZNK19wxBookCtrlBaseEvent12GetSelectionEv,comdat
	.align 2
	.weak	_ZNK19wxBookCtrlBaseEvent12GetSelectionEv
	.type	_ZNK19wxBookCtrlBaseEvent12GetSelectionEv, @function
_ZNK19wxBookCtrlBaseEvent12GetSelectionEv:
.LFB9420:
	.cfi_startproc
	.cfi_personality 0x3,__gxx_personality_v0
	pushq	%rbp	#
	.cfi_def_cfa_offset 16
	movq	%rsp, %rbp	#,
	.cfi_offset 6, -16
	.cfi_def_cfa_register 6
	movq	%rdi, -8(%rbp)	# this, this
	movq	-8(%rbp), %rax	# this, tmp60
	movl	108(%rax), %eax	# <variable>.m_nSel, D.121729
	leave
	ret
	.cfi_endproc
.LFE9420:
	.size	_ZNK19wxBookCtrlBaseEvent12GetSelectionEv, .-_ZNK19wxBookCtrlBaseEvent12GetSelectionEv
	.section	.text._ZNSt18_Rb_tree_node_base10_S_minimumEPS_,"axG",@progbits,_ZNSt18_Rb_tree_node_base10_S_minimumEPS_,comdat
	.weak	_ZNSt18_Rb_tree_node_base10_S_minimumEPS_
	.type	_ZNSt18_Rb_tree_node_base10_S_minimumEPS_, @function
_ZNSt18_Rb_tree_node_base10_S_minimumEPS_:
.LFB10126:
	.cfi_startproc
	.cfi_personality 0x3,__gxx_personality_v0
	pushq	%rbp	#
	.cfi_def_cfa_offset 16
	movq	%rsp, %rbp	#,
	.cfi_offset 6, -16
	.cfi_def_cfa_register 6
	movq	%rdi, -8(%rbp)	# __x, __x
	jmp	.L509	#
.L510:
	movq	-8(%rbp), %rax	# __x, tmp62
	movq	16(%rax), %rax	# <variable>._M_left, tmp63
	movq	%rax, -8(%rbp)	# tmp63, __x
.L509:
	movq	-8(%rbp), %rax	# __x, tmp64
	movq	16(%rax), %rax	# <variable>._M_left, D.132285
	testq	%rax, %rax	# D.132285
	setne	%al	#, D.132286
	testb	%al, %al	# D.132286
	jne	.L510	#,
	movq	-8(%rbp), %rax	# __x, D.132287
	leave
	ret
	.cfi_endproc
.LFE10126:
	.size	_ZNSt18_Rb_tree_node_base10_S_minimumEPS_, .-_ZNSt18_Rb_tree_node_base10_S_minimumEPS_
	.section	.text._ZNSt18_Rb_tree_node_base10_S_maximumEPS_,"axG",@progbits,_ZNSt18_Rb_tree_node_base10_S_maximumEPS_,comdat
	.weak	_ZNSt18_Rb_tree_node_base10_S_maximumEPS_
	.type	_ZNSt18_Rb_tree_node_base10_S_maximumEPS_, @function
_ZNSt18_Rb_tree_node_base10_S_maximumEPS_:
.LFB10128:
	.cfi_startproc
	.cfi_personality 0x3,__gxx_personality_v0
	pushq	%rbp	#
	.cfi_def_cfa_offset 16
	movq	%rsp, %rbp	#,
	.cfi_offset 6, -16
	.cfi_def_cfa_register 6
	movq	%rdi, -8(%rbp)	# __x, __x
	jmp	.L513	#
.L514:
	movq	-8(%rbp), %rax	# __x, tmp62
	movq	24(%rax), %rax	# <variable>._M_right, tmp63
	movq	%rax, -8(%rbp)	# tmp63, __x
.L513:
	movq	-8(%rbp), %rax	# __x, tmp64
	movq	24(%rax), %rax	# <variable>._M_right, D.132299
	testq	%rax, %rax	# D.132299
	setne	%al	#, D.132300
	testb	%al, %al	# D.132300
	jne	.L514	#,
	movq	-8(%rbp), %rax	# __x, D.132301
	leave
	ret
	.cfi_endproc
.LFE10128:
	.size	_ZNSt18_Rb_tree_node_base10_S_maximumEPS_, .-_ZNSt18_Rb_tree_node_base10_S_maximumEPS_
	.section	.text._ZSt16__deque_buf_sizem,"axG",@progbits,_ZSt16__deque_buf_sizem,comdat
	.weak	_ZSt16__deque_buf_sizem
	.type	_ZSt16__deque_buf_sizem, @function
_ZSt16__deque_buf_sizem:
.LFB10743:
	.cfi_startproc
	.cfi_personality 0x3,__gxx_personality_v0
	pushq	%rbp	#
	.cfi_def_cfa_offset 16
	movq	%rsp, %rbp	#,
	.cfi_offset 6, -16
	.cfi_def_cfa_register 6
	movq	%rdi, -8(%rbp)	# __size, __size
	cmpq	$511, -8(%rbp)	#, __size
	ja	.L517	#,
	movl	$512, %eax	#, tmp63
	movl	$0, %edx	#, tmp62
	divq	-8(%rbp)	# __size
	jmp	.L518	#
.L517:
	movl	$1, %eax	#, iftmp.1862
.L518:
	leave
	ret
	.cfi_endproc
.LFE10743:
	.size	_ZSt16__deque_buf_sizem, .-_ZSt16__deque_buf_sizem
	.section	.text._ZNSt3mapISsSsSt4lessISsESaISt4pairIKSsSsEEED1Ev,"axG",@progbits,_ZNSt3mapISsSsSt4lessISsESaISt4pairIKSsSsEEED1Ev,comdat
	.align 2
	.weak	_ZNSt3mapISsSsSt4lessISsESaISt4pairIKSsSsEEED1Ev
	.type	_ZNSt3mapISsSsSt4lessISsESaISt4pairIKSsSsEEED1Ev, @function
_ZNSt3mapISsSsSt4lessISsESaISt4pairIKSsSsEEED1Ev:
.LFB11484:
	.cfi_startproc
	.cfi_personality 0x3,__gxx_personality_v0
	pushq	%rbp	#
	.cfi_def_cfa_offset 16
	movq	%rsp, %rbp	#,
	.cfi_offset 6, -16
	.cfi_def_cfa_register 6
	subq	$16, %rsp	#,
	movq	%rdi, -8(%rbp)	# this, this
	movq	-8(%rbp), %rax	# this, D.189618
	movq	%rax, %rdi	# D.189618,
	call	_ZNSt8_Rb_treeISsSt4pairIKSsSsESt10_Select1stIS2_ESt4lessISsESaIS2_EED1Ev	#
	leave
	ret
	.cfi_endproc
.LFE11484:
	.size	_ZNSt3mapISsSsSt4lessISsESaISt4pairIKSsSsEEED1Ev, .-_ZNSt3mapISsSsSt4lessISsESaISt4pairIKSsSsEEED1Ev
	.section	.text._ZN10klsMiniMap8setListsEPN9__gnu_cxx8hash_mapImP7guiGateNS0_4hashImEESt8equal_toImESaIS3_EEEPNS1_ImP7guiWireS5_S7_SaISC_EEE,"axG",@progbits,_ZN10klsMiniMap8setListsEPN9__gnu_cxx8hash_mapImP7guiGateNS0_4hashImEESt8equal_toImESaIS3_EEEPNS1_ImP7guiWireS5_S7_SaISC_EEE,comdat
	.align 2
	.weak	_ZN10klsMiniMap8setListsEPN9__gnu_cxx8hash_mapImP7guiGateNS0_4hashImEESt8equal_toImESaIS3_EEEPNS1_ImP7guiWireS5_S7_SaISC_EEE
	.type	_ZN10klsMiniMap8setListsEPN9__gnu_cxx8hash_mapImP7guiGateNS0_4hashImEESt8equal_toImESaIS3_EEEPNS1_ImP7guiWireS5_S7_SaISC_EEE, @function
_ZN10klsMiniMap8setListsEPN9__gnu_cxx8hash_mapImP7guiGateNS0_4hashImEESt8equal_toImESaIS3_EEEPNS1_ImP7guiWireS5_S7_SaISC_EEE:
.LFB11923:
	.cfi_startproc
	.cfi_personality 0x3,__gxx_personality_v0
	pushq	%rbp	#
	.cfi_def_cfa_offset 16
	movq	%rsp, %rbp	#,
	.cfi_offset 6, -16
	.cfi_def_cfa_register 6
	movq	%rdi, -8(%rbp)	# this, this
	movq	%rsi, -16(%rbp)	# gateList, gateList
	movq	%rdx, -24(%rbp)	# wireList, wireList
	movq	-8(%rbp), %rax	# this, tmp58
	movq	-16(%rbp), %rdx	# gateList, tmp59
	movq	%rdx, 608(%rax)	# tmp59, <variable>.gateList
	movq	-8(%rbp), %rax	# this, tmp60
	movq	-24(%rbp), %rdx	# wireList, tmp61
	movq	%rdx, 616(%rax)	# tmp61, <variable>.wireList
	leave
	ret
	.cfi_endproc
.LFE11923:
	.size	_ZN10klsMiniMap8setListsEPN9__gnu_cxx8hash_mapImP7guiGateNS0_4hashImEESt8equal_toImESaIS3_EEEPNS1_ImP7guiWireS5_S7_SaISC_EEE, .-_ZN10klsMiniMap8setListsEPN9__gnu_cxx8hash_mapImP7guiGateNS0_4hashImEESt8equal_toImESaIS3_EEEPNS1_ImP7guiWireS5_S7_SaISC_EEE
	.section	.text._ZN10klsMiniMap9setCanvasEP11klsGLCanvas,"axG",@progbits,_ZN10klsMiniMap9setCanvasEP11klsGLCanvas,comdat
	.align 2
	.weak	_ZN10klsMiniMap9setCanvasEP11klsGLCanvas
	.type	_ZN10klsMiniMap9setCanvasEP11klsGLCanvas, @function
_ZN10klsMiniMap9setCanvasEP11klsGLCanvas:
.LFB11924:
	.cfi_startproc
	.cfi_personality 0x3,__gxx_personality_v0
	pushq	%rbp	#
	.cfi_def_cfa_offset 16
	movq	%rsp, %rbp	#,
	.cfi_offset 6, -16
	.cfi_def_cfa_register 6
	movq	%rdi, -8(%rbp)	# this, this
	movq	%rsi, -16(%rbp)	# kcanvas, kcanvas
	movq	-8(%rbp), %rax	# this, tmp58
	movq	-16(%rbp), %rdx	# kcanvas, tmp59
	movq	%rdx, 648(%rax)	# tmp59, <variable>.currentCanvas
	leave
	ret
	.cfi_endproc
.LFE11924:
	.size	_ZN10klsMiniMap9setCanvasEP11klsGLCanvas, .-_ZN10klsMiniMap9setCanvasEP11klsGLCanvas
	.section	.text._ZN11klsGLCanvas7getZoomEv,"axG",@progbits,_ZN11klsGLCanvas7getZoomEv,comdat
	.align 2
	.weak	_ZN11klsGLCanvas7getZoomEv
	.type	_ZN11klsGLCanvas7getZoomEv, @function
_ZN11klsGLCanvas7getZoomEv:
.LFB11948:
	.cfi_startproc
	.cfi_personality 0x3,__gxx_personality_v0
	pushq	%rbp	#
	.cfi_def_cfa_offset 16
	movq	%rsp, %rbp	#,
	.cfi_offset 6, -16
	.cfi_def_cfa_register 6
	movq	%rdi, -8(%rbp)	# this, this
	movq	-8(%rbp), %rax	# this, tmp60
	movq	760(%rax), %rax	# <variable>.viewZoom, D.196517
	movq	%rax, -16(%rbp)	# D.196517,
	movsd	-16(%rbp), %xmm0	#, <result>
	leave
	ret
	.cfi_endproc
.LFE11948:
	.size	_ZN11klsGLCanvas7getZoomEv, .-_ZN11klsGLCanvas7getZoomEv
	.section	.text._ZN18wxCommandProcessor11SetEditMenuEP6wxMenu,"axG",@progbits,_ZN18wxCommandProcessor11SetEditMenuEP6wxMenu,comdat
	.align 2
	.weak	_ZN18wxCommandProcessor11SetEditMenuEP6wxMenu
	.type	_ZN18wxCommandProcessor11SetEditMenuEP6wxMenu, @function
_ZN18wxCommandProcessor11SetEditMenuEP6wxMenu:
.LFB11976:
	.cfi_startproc
	.cfi_personality 0x3,__gxx_personality_v0
	pushq	%rbp	#
	.cfi_def_cfa_offset 16
	movq	%rsp, %rbp	#,
	.cfi_offset 6, -16
	.cfi_def_cfa_register 6
	movq	%rdi, -8(%rbp)	# this, this
	movq	%rsi, -16(%rbp)	# menu, menu
	movq	-8(%rbp), %rax	# this, tmp58
	movq	-16(%rbp), %rdx	# menu, tmp59
	movq	%rdx, 96(%rax)	# tmp59, <variable>.m_commandEditMenu
	leave
	ret
	.cfi_endproc
.LFE11976:
	.size	_ZN18wxCommandProcessor11SetEditMenuEP6wxMenu, .-_ZN18wxCommandProcessor11SetEditMenuEP6wxMenu
	.section	.text._ZN18wxCommandProcessor11MarkAsSavedEv,"axG",@progbits,_ZN18wxCommandProcessor11MarkAsSavedEv,comdat
	.align 2
	.weak	_ZN18wxCommandProcessor11MarkAsSavedEv
	.type	_ZN18wxCommandProcessor11MarkAsSavedEv, @function
_ZN18wxCommandProcessor11MarkAsSavedEv:
.LFB11983:
	.cfi_startproc
	.cfi_personality 0x3,__gxx_personality_v0
	pushq	%rbp	#
	.cfi_def_cfa_offset 16
	movq	%rsp, %rbp	#,
	.cfi_offset 6, -16
	.cfi_def_cfa_register 6
	movq	%rdi, -8(%rbp)	# this, this
	movq	-8(%rbp), %rax	# this, tmp58
	movq	-8(%rbp), %rdx	# this, tmp59
	movq	80(%rdx), %rdx	# <variable>.m_currentCommand, tmp60
	movq	%rdx, 88(%rax)	# tmp60, <variable>.m_lastSavedCommand
	leave
	ret
	.cfi_endproc
.LFE11983:
	.size	_ZN18wxCommandProcessor11MarkAsSavedEv, .-_ZN18wxCommandProcessor11MarkAsSavedEv
	.section	.text._ZN9GUICanvas10setMinimapEP10klsMiniMap,"axG",@progbits,_ZN9GUICanvas10setMinimapEP10klsMiniMap,comdat
	.align 2
	.weak	_ZN9GUICanvas10setMinimapEP10klsMiniMap
	.type	_ZN9GUICanvas10setMinimapEP10klsMiniMap, @function
_ZN9GUICanvas10setMinimapEP10klsMiniMap:
.LFB12063:
	.cfi_startproc
	.cfi_personality 0x3,__gxx_personality_v0
	pushq	%rbp	#
	.cfi_def_cfa_offset 16
	movq	%rsp, %rbp	#,
	.cfi_offset 6, -16
	.cfi_def_cfa_register 6
	subq	$16, %rsp	#,
	movq	%rdi, -8(%rbp)	# this, this
	movq	%rsi, -16(%rbp)	# minimap, minimap
	movq	-8(%rbp), %rax	# this, tmp62
	movq	-16(%rbp), %rdx	# minimap, tmp63
	movq	%rdx, 640(%rax)	# tmp63, <variable>.D.204801.minimap
	movq	-8(%rbp), %rdx	# this, D.204859
	movq	-16(%rbp), %rax	# minimap, tmp64
	movq	%rdx, %rsi	# D.204859,
	movq	%rax, %rdi	# tmp64,
	call	_ZN10klsMiniMap9setCanvasEP11klsGLCanvas	#
	movq	-8(%rbp), %rax	# this, tmp65
	leaq	1000(%rax), %rdx	#, D.204860
	movq	-8(%rbp), %rax	# this, tmp66
	leaq	960(%rax), %rcx	#, D.204861
	movq	-16(%rbp), %rax	# minimap, tmp67
	movq	%rcx, %rsi	# D.204861,
	movq	%rax, %rdi	# tmp67,
	call	_ZN10klsMiniMap8setListsEPN9__gnu_cxx8hash_mapImP7guiGateNS0_4hashImEESt8equal_toImESaIS3_EEEPNS1_ImP7guiWireS5_S7_SaISC_EEE	#
	movq	-8(%rbp), %rax	# this, D.204862
	movq	%rax, %rdi	# D.204862,
	call	_ZN11klsGLCanvas13updateMiniMapEv	#
	leave
	ret
	.cfi_endproc
.LFE12063:
	.size	_ZN9GUICanvas10setMinimapEP10klsMiniMap, .-_ZN9GUICanvas10setMinimapEP10klsMiniMap
	.section	.text._ZN9GUICanvas11zoomInOrOutEb,"axG",@progbits,_ZN9GUICanvas11zoomInOrOutEb,comdat
	.align 2
	.weak	_ZN9GUICanvas11zoomInOrOutEb
	.type	_ZN9GUICanvas11zoomInOrOutEb, @function
_ZN9GUICanvas11zoomInOrOutEb:
.LFB12064:
	.cfi_startproc
	.cfi_personality 0x3,__gxx_personality_v0
	pushq	%rbp	#
	.cfi_def_cfa_offset 16
	movq	%rsp, %rbp	#,
	.cfi_offset 6, -16
	.cfi_def_cfa_register 6
	subq	$16, %rsp	#,
	movq	%rdi, -8(%rbp)	# this, this
	movl	%esi, %eax	# in, tmp68
	movb	%al, -12(%rbp)	# tmp68, in
	cmpb	$0, -12(%rbp)	# in
	je	.L536	#,
	movq	-8(%rbp), %rax	# this, tmp69
	movl	1172(%rax), %eax	# <variable>.currentDragState, D.204866
	testl	%eax, %eax	# D.204866
	jne	.L538	#,
	movq	-8(%rbp), %rax	# this, D.204869
	movq	%rax, %rdi	# D.204869,
	call	_ZN11klsGLCanvas7getZoomEv	#
	movsd	.LC1(%rip), %xmm1	#, tmp70
	mulsd	%xmm1, %xmm0	# tmp70, D.204871
	movq	-8(%rbp), %rax	# this, D.204872
	movq	%rax, %rdi	# D.204872,
	call	_ZN11klsGLCanvas7setZoomEd	#
	jmp	.L538	#
.L536:
	movq	-8(%rbp), %rax	# this, tmp71
	movl	1172(%rax), %eax	# <variable>.currentDragState, D.204875
	testl	%eax, %eax	# D.204875
	jne	.L538	#,
	movq	-8(%rbp), %rax	# this, D.204878
	movq	%rax, %rdi	# D.204878,
	call	_ZN11klsGLCanvas7getZoomEv	#
	movsd	.LC1(%rip), %xmm1	#, tmp72
	divsd	%xmm1, %xmm0	# tmp72, D.204880
	movq	-8(%rbp), %rax	# this, D.204881
	movq	%rax, %rdi	# D.204881,
	call	_ZN11klsGLCanvas7setZoomEd	#
.L538:
	leave
	ret
	.cfi_endproc
.LFE12064:
	.size	_ZN9GUICanvas11zoomInOrOutEb, .-_ZN9GUICanvas11zoomInOrOutEb
	.text
	.type	_ZL6std2wxRKSs, @function
_ZL6std2wxRKSs:
.LFB12116:
	.cfi_startproc
	.cfi_personality 0x3,__gxx_personality_v0
	pushq	%rbp	#
	.cfi_def_cfa_offset 16
	movq	%rsp, %rbp	#,
	.cfi_offset 6, -16
	.cfi_def_cfa_register 6
	pushq	%r12	#
	pushq	%rbx	#
	subq	$16, %rsp	#,
	movq	%rdi, %rbx	# D.246157, <result>
	.cfi_offset 3, -32
	.cfi_offset 12, -24
	movq	%rsi, -24(%rbp)	# str, str
	movq	%rbx, %r12	# <result>, D.209002
	movq	-24(%rbp), %rax	# str, tmp61
	movq	%rax, %rdi	# tmp61,
	call	_ZNKSs5c_strEv	#
	movq	%rax, %rsi	# D.209003,
	movq	%r12, %rdi	# D.209002,
	call	_ZN8wxString8FromUTF8EPKc	#
	movq	%rbx, %rax	# <result>,
	movq	%rbx, %rax	# <result>,
	addq	$16, %rsp	#,
	popq	%rbx	#
	popq	%r12	#
	leave
	ret
	.cfi_endproc
.LFE12116:
	.size	_ZL6std2wxRKSs, .-_ZL6std2wxRKSs
	.type	_ZL6std2wxPKc, @function
_ZL6std2wxPKc:
.LFB12117:
	.cfi_startproc
	.cfi_personality 0x3,__gxx_personality_v0
	pushq	%rbp	#
	.cfi_def_cfa_offset 16
	movq	%rsp, %rbp	#,
	.cfi_offset 6, -16
	.cfi_def_cfa_register 6
	pushq	%rbx	#
	subq	$24, %rsp	#,
	movq	%rdi, %rbx	# D.246159, <result>
	.cfi_offset 3, -24
	movq	%rsi, -24(%rbp)	# str, str
	movq	%rbx, %rax	# <result>, D.209009
	movq	-24(%rbp), %rdx	# str, tmp60
	movq	%rdx, %rsi	# tmp60,
	movq	%rax, %rdi	# D.209009,
	call	_ZN8wxString8FromUTF8EPKc	#
	movq	%rbx, %rax	# <result>,
	movq	%rbx, %rax	# <result>,
	addq	$24, %rsp	#,
	popq	%rbx	#
	leave
	ret
	.cfi_endproc
.LFE12117:
	.size	_ZL6std2wxPKc, .-_ZL6std2wxPKc
	.type	_ZL6wx2std8wxString, @function
_ZL6wx2std8wxString:
.LFB12118:
	.cfi_startproc
	.cfi_personality 0x3,__gxx_personality_v0
	.cfi_lsda 0x3,.LLSDA12118
	pushq	%rbp	#
	.cfi_def_cfa_offset 16
	movq	%rsp, %rbp	#,
	.cfi_offset 6, -16
	.cfi_def_cfa_register 6
	pushq	%r12	#
	pushq	%rbx	#
	subq	$48, %rsp	#,
	movq	%rdi, %rbx	# D.246161, <result>
	.cfi_offset 3, -32
	.cfi_offset 12, -24
	movq	%rsi, -56(%rbp)	# str, str
	movq	%rbx, %r12	# <result>, D.209018
	leaq	-33(%rbp), %rax	#, tmp65
	movq	%rax, %rdi	# tmp65,
	call	_ZNSaIcEC1Ev	#
	leaq	-32(%rbp), %rax	#, tmp66
	movq	-56(%rbp), %rdx	# str, tmp67
	movq	%rdx, %rsi	# tmp67,
	movq	%rax, %rdi	# tmp66,
.LEHB43:
	call	_ZNK8wxString8utf8_strEv	#
.LEHE43:
	leaq	-32(%rbp), %rax	#, tmp68
	movq	%rax, %rdi	# tmp68,
	call	_ZNK12wxCharBuffercvPKcEv	#
	leaq	-33(%rbp), %rdx	#, tmp69
	movq	%rax, %rsi	# D.209019,
	movq	%r12, %rdi	# D.209018,
.LEHB44:
	call	_ZNSsC1EPKcRKSaIcE	#
.LEHE44:
	jmp	.L551	#
.L549:
.L545:
	movl	%edx, %ebx	# tmp70, save_filt.3663
	movq	%rax, %r12	# tmp71, save_eptr.3662
	leaq	-32(%rbp), %rax	#, tmp72
	movq	%rax, %rdi	# tmp72,
	call	_ZN12wxCharBufferD1Ev	#
	movq	%r12, %rax	# save_eptr.3662, tmp71
	movslq	%ebx,%rdx	# save_filt.3663, tmp70
	jmp	.L547	#
.L551:
	leaq	-32(%rbp), %rax	#, tmp73
	movq	%rax, %rdi	# tmp73,
	call	_ZN12wxCharBufferD1Ev	#
	leaq	-33(%rbp), %rax	#, tmp75
	movq	%rax, %rdi	# tmp75,
	call	_ZNSaIcED1Ev	#
	movq	%rbx, %rax	# <result>,
	movq	%rbx, %rax	# <result>,
	addq	$48, %rsp	#,
	popq	%rbx	#
	popq	%r12	#
	leave
	ret
.L550:
.L547:
	movl	%edx, %ebx	# tmp70, save_filt.3665
	movq	%rax, %r12	# tmp71, save_eptr.3664
	leaq	-33(%rbp), %rax	#, tmp74
	movq	%rax, %rdi	# tmp74,
	call	_ZNSaIcED1Ev	#
	movq	%r12, %rax	# save_eptr.3664, tmp71
	movslq	%ebx,%rdx	# save_filt.3665, tmp70
	movq	%rax, %rdi	# tmp71,
.LEHB45:
	call	_Unwind_Resume	#
.LEHE45:
	.cfi_endproc
.LFE12118:
	.size	_ZL6wx2std8wxString, .-_ZL6wx2std8wxString
	.section	.gcc_except_table
.LLSDA12118:
	.byte	0xff
	.byte	0xff
	.byte	0x1
	.uleb128 .LLSDACSE12118-.LLSDACSB12118
.LLSDACSB12118:
	.uleb128 .LEHB43-.LFB12118
	.uleb128 .LEHE43-.LEHB43
	.uleb128 .L550-.LFB12118
	.uleb128 0x0
	.uleb128 .LEHB44-.LFB12118
	.uleb128 .LEHE44-.LEHB44
	.uleb128 .L549-.LFB12118
	.uleb128 0x0
	.uleb128 .LEHB45-.LFB12118
	.uleb128 .LEHE45-.LEHB45
	.uleb128 0x0
	.uleb128 0x0
.LLSDACSE12118:
	.text
	.section	.text._ZN12CircuitPrintC1EP9GUICanvas8wxStringPKw,"axG",@progbits,_ZN12CircuitPrintC1EP9GUICanvas8wxStringPKw,comdat
	.align 2
	.weak	_ZN12CircuitPrintC1EP9GUICanvas8wxStringPKw
	.type	_ZN12CircuitPrintC1EP9GUICanvas8wxStringPKw, @function
_ZN12CircuitPrintC1EP9GUICanvas8wxStringPKw:
.LFB12137:
	.cfi_startproc
	.cfi_personality 0x3,__gxx_personality_v0
	.cfi_lsda 0x3,.LLSDA12137
	pushq	%rbp	#
	.cfi_def_cfa_offset 16
	movq	%rsp, %rbp	#,
	.cfi_offset 6, -16
	.cfi_def_cfa_register 6
	pushq	%r12	#
	pushq	%rbx	#
	subq	$48, %rsp	#,
	movq	%rdi, -40(%rbp)	# this, this
	movq	%rsi, -48(%rbp)	# can, can
	movq	%rdx, -56(%rbp)	# strFile, strFile
	movq	%rcx, -64(%rbp)	# title, title
	movq	-64(%rbp), %rdx	# title, tmp69
	leaq	-32(%rbp), %rax	#, tmp70
	movq	%rdx, %rsi	# tmp69,
	movq	%rax, %rdi	# tmp70,
.LEHB46:
	.cfi_offset 3, -32
	.cfi_offset 12, -24
	call	_ZN8wxStringC1EPKw	#
.LEHE46:
	movq	-40(%rbp), %rax	# this, D.210179
	leaq	-32(%rbp), %rdx	#, tmp71
	movq	%rdx, %rsi	# tmp71,
	movq	%rax, %rdi	# D.210179,
.LEHB47:
	call	_ZN10wxPrintoutC2ERK8wxString	#
.LEHE47:
	jmp	.L562	#
.L561:
.L554:
	movl	%edx, %ebx	# tmp72, save_filt.3510
	movq	%rax, %r12	# tmp73, save_eptr.3509
	leaq	-32(%rbp), %rax	#, tmp74
	movq	%rax, %rdi	# tmp74,
	call	_ZN8wxStringD1Ev	#
	movq	%r12, %rax	# save_eptr.3509, tmp73
	movslq	%ebx,%rdx	# save_filt.3510, tmp72
	movq	%rax, %rdi	# tmp73,
.LEHB48:
	call	_Unwind_Resume	#
.LEHE48:
.L562:
	leaq	-32(%rbp), %rax	#, tmp75
	movq	%rax, %rdi	# tmp75,
	call	_ZN8wxStringD1Ev	#
	movq	-40(%rbp), %rax	# this, tmp76
	movq	$_ZTV12CircuitPrint+16, (%rax)	#, <variable>.D.210156.D.112654._vptr.wxObject
	movq	-40(%rbp), %rax	# this, tmp77
	addq	$88, %rax	#, D.210180
	movq	%rax, %rdi	# D.210180,
	call	_ZN8wxStringC1Ev	#
	movq	-40(%rbp), %rax	# this, tmp78
	movq	-48(%rbp), %rdx	# can, tmp79
	movq	%rdx, 96(%rax)	# tmp79, <variable>.sourceCanvas
	movq	-40(%rbp), %rax	# this, tmp80
	leaq	88(%rax), %rdx	#, D.210181
	movq	-56(%rbp), %rax	# strFile, tmp81
	movq	%rax, %rsi	# tmp81,
	movq	%rdx, %rdi	# D.210181,
.LEHB49:
	call	_ZN8wxStringaSERKS_	#
.LEHE49:
	jmp	.L563	#
.L559:
.L556:
	movl	%edx, %ebx	# tmp72, save_filt.3512
	movq	%rax, %r12	# tmp73, save_eptr.3511
	movq	-40(%rbp), %rax	# this, tmp82
	addq	$88, %rax	#, D.210182
	movq	%rax, %rdi	# D.210182,
	call	_ZN8wxStringD1Ev	#
	movq	%r12, %rax	# save_eptr.3511, tmp73
	movslq	%ebx,%rdx	# save_filt.3512, tmp72
.L560:
.L557:
	movl	%edx, %ebx	# tmp72, save_filt.3514
	movq	%rax, %r12	# tmp73, save_eptr.3513
	movq	-40(%rbp), %rax	# this, this.2076
	movq	%rax, %rdi	# this.2076,
	call	_ZN10wxPrintoutD2Ev	#
	movq	%r12, %rax	# save_eptr.3513, tmp73
	movslq	%ebx,%rdx	# save_filt.3514, tmp72
	movq	%rax, %rdi	# tmp73,
.LEHB50:
	call	_Unwind_Resume	#
.LEHE50:
.L563:
	addq	$48, %rsp	#,
	popq	%rbx	#
	popq	%r12	#
	leave
	ret
	.cfi_endproc
.LFE12137:
	.size	_ZN12CircuitPrintC1EP9GUICanvas8wxStringPKw, .-_ZN12CircuitPrintC1EP9GUICanvas8wxStringPKw
	.section	.gcc_except_table
.LLSDA12137:
	.byte	0xff
	.byte	0xff
	.byte	0x1
	.uleb128 .LLSDACSE12137-.LLSDACSB12137
.LLSDACSB12137:
	.uleb128 .LEHB46-.LFB12137
	.uleb128 .LEHE46-.LEHB46
	.uleb128 0x0
	.uleb128 0x0
	.uleb128 .LEHB47-.LFB12137
	.uleb128 .LEHE47-.LEHB47
	.uleb128 .L561-.LFB12137
	.uleb128 0x0
	.uleb128 .LEHB48-.LFB12137
	.uleb128 .LEHE48-.LEHB48
	.uleb128 0x0
	.uleb128 0x0
	.uleb128 .LEHB49-.LFB12137
	.uleb128 .LEHE49-.LEHB49
	.uleb128 .L559-.LFB12137
	.uleb128 0x0
	.uleb128 .LEHB50-.LFB12137
	.uleb128 .LEHE50-.LEHB50
	.uleb128 0x0
	.uleb128 0x0
.LLSDACSE12137:
	.section	.text._ZN12CircuitPrintC1EP9GUICanvas8wxStringPKw,"axG",@progbits,_ZN12CircuitPrintC1EP9GUICanvas8wxStringPKw,comdat
	.section	.rodata
.LC2:
	.string	"15 15 31 1"
.LC3:
	.string	"  c #F0F5FC"
.LC4:
	.string	". c #487BCE"
.LC5:
	.string	"X c #E2EAF8"
.LC6:
	.string	"o c #3A70CA"
.LC7:
	.string	"O c #6992D7"
.LC8:
	.string	"+ c #89A9DF"
.LC9:
	.string	"@ c #F5F8FD"
.LC10:
	.string	"# c #3366BB"
.LC11:
	.string	"$ c #5886D2"
.LC12:
	.string	"% c #C4D5F0"
.LC13:
	.string	"& c #6B94D7"
.LC14:
	.string	"* c #9AB6E4"
.LC15:
	.string	"= c #2E5CA8"
.LC16:
	.string	"- c #4377CD"
.LC17:
	.string	"; c #DCE6F6"
.LC18:
	.string	": c #3569BF"
.LC19:
	.string	"> c Grey"
.LC20:
	.string	", c #638ED5"
.LC21:
	.string	"< c #B8CCEC"
.LC22:
	.string	"1 c #ACE95B"
.LC23:
	.string	"2 c #FAFCFE"
.LC24:
	.string	"3 c #5282D0"
.LC25:
	.string	"4 c #376EC9"
.LC26:
	.string	"5 c #D2DFF4"
.LC27:
	.string	"6 c White"
.LC28:
	.string	"7 c #A8C0E8"
.LC29:
	.string	"8 c #F7F9FD"
.LC30:
	.string	"9 c #EAF0FA"
.LC31:
	.string	"0 c #7198D9"
.LC32:
	.string	"q c #FDFEFF"
.LC33:
	.string	"w c #5584D1"
.LC34:
	.string	">>>043.-o:=0>>>"
.LC35:
	.string	">>>0%%<7*+.&w>>"
.LC36:
	.string	">>####%<7*.6*3>"
.LC37:
	.string	">>#11#%%<7.66*3"
.LC38:
	.string	"###11###%<..3-o"
.LC39:
	.string	"#111111#5%<7*+o"
.LC40:
	.string	"#111111#;5%<7*o"
.LC41:
	.string	"###11###X;5%<7-"
.LC42:
	.string	">>#11#@ 9X;5%<."
.LC43:
	.string	">>####8@ 9X;5%3"
.LC44:
	.string	">>>06q28@ 9X;5$"
.LC45:
	.string	">>>066q28@ 9X;$"
.LC46:
	.string	">>>0666q28@ 9X,"
.LC47:
	.string	">>>06666q28@ 9O"
.LC48:
	.string	">>>000000000000"
	.data
	.align 32
	.type	_ZL7new_xpm, @object
	.size	_ZL7new_xpm, 376
_ZL7new_xpm:
	.quad	.LC2
	.quad	.LC3
	.quad	.LC4
	.quad	.LC5
	.quad	.LC6
	.quad	.LC7
	.quad	.LC8
	.quad	.LC9
	.quad	.LC10
	.quad	.LC11
	.quad	.LC12
	.quad	.LC13
	.quad	.LC14
	.quad	.LC15
	.quad	.LC16
	.quad	.LC17
	.quad	.LC18
	.quad	.LC19
	.quad	.LC20
	.quad	.LC21
	.quad	.LC22
	.quad	.LC23
	.quad	.LC24
	.quad	.LC25
	.quad	.LC26
	.quad	.LC27
	.quad	.LC28
	.quad	.LC29
	.quad	.LC30
	.quad	.LC31
	.quad	.LC32
	.quad	.LC33
	.quad	.LC34
	.quad	.LC35
	.quad	.LC36
	.quad	.LC37
	.quad	.LC38
	.quad	.LC39
	.quad	.LC40
	.quad	.LC41
	.quad	.LC42
	.quad	.LC43
	.quad	.LC44
	.quad	.LC45
	.quad	.LC46
	.quad	.LC47
	.quad	.LC48
	.section	.rodata
.LC49:
	.string	"16 15 36 1"
.LC50:
	.string	". c #B3C8EB"
.LC51:
	.string	"X c #779DDB"
.LC52:
	.string	"O c #C6D6F0"
.LC53:
	.string	"+ c #A9D066"
.LC54:
	.string	"@ c #DFF0D0"
.LC55:
	.string	"# c #BED0EE"
.LC56:
	.string	"$ c #CAE2AA"
.LC57:
	.string	"% c #A2BCE6"
.LC58:
	.string	"& c #274D8B"
.LC59:
	.string	"* c #295193"
.LC60:
	.string	"= c #5D89D3"
.LC61:
	.string	"- c #ADC4E9"
.LC62:
	.string	": c #9FB9E5"
.LC63:
	.string	"> c #3569BF"
.LC64:
	.string	", c Grey"
.LC65:
	.string	"< c #638ED5"
.LC66:
	.string	"1 c #85A7DF"
.LC67:
	.string	"2 c #214279"
.LC68:
	.string	"3 c #305FAC"
.LC69:
	.string	"4 c #AAC1E8"
.LC70:
	.string	"5 c #6E96D8"
.LC71:
	.string	"6 c #90AFE2"
.LC72:
	.string	"7 c #FAFCFE"
.LC73:
	.string	"8 c #B2D58C"
.LC74:
	.string	"9 c #9AEA53"
.LC75:
	.string	"0 c #D2DFF4"
.LC76:
	.string	"q c #4A7CCE"
.LC77:
	.string	"w c #E5EDF9"
.LC78:
	.string	"e c #BFDC9B"
.LC79:
	.string	"r c #EAF0FA"
.LC80:
	.string	"t c #CEDCF2"
.LC81:
	.string	"y c #3161B1"
.LC82:
	.string	"u c #5584D1"
.LC83:
	.string	",,,,,,,,,,,,,,,,"
.LC84:
	.string	",,,,,****,,,,,,,"
.LC85:
	.string	"22222,*@@*,,,,,,"
.LC86:
	.string	"255553,*$@*,,,,,"
.LC87:
	.string	"25555<qo*et222,,"
.LC88:
	.string	"25555555*8t2%2,,"
.LC89:
	.string	"252222***+t2222y"
.LC90:
	.string	"252:4.*99999t27y"
.LC91:
	.string	"2=26:4.*999t2 %y"
.LC92:
	.string	"22<16:44*9t2wry,"
.LC93:
	.string	"225X16:44*20;wy,"
.LC94:
	.string	"2>=5X16:44#O0-y,"
.LC95:
	.string	"2ou=5X16:4.#Oy,,"
.LC96:
	.string	"&222222222222y,,"
	.data
	.align 32
	.type	_ZL8open_xpm, @object
	.size	_ZL8open_xpm, 416
_ZL8open_xpm:
	.quad	.LC49
	.quad	.LC3
	.quad	.LC50
	.quad	.LC51
	.quad	.LC6
	.quad	.LC52
	.quad	.LC53
	.quad	.LC54
	.quad	.LC55
	.quad	.LC56
	.quad	.LC57
	.quad	.LC58
	.quad	.LC59
	.quad	.LC60
	.quad	.LC61
	.quad	.LC17
	.quad	.LC62
	.quad	.LC63
	.quad	.LC64
	.quad	.LC65
	.quad	.LC66
	.quad	.LC67
	.quad	.LC68
	.quad	.LC69
	.quad	.LC70
	.quad	.LC71
	.quad	.LC72
	.quad	.LC73
	.quad	.LC74
	.quad	.LC75
	.quad	.LC76
	.quad	.LC77
	.quad	.LC78
	.quad	.LC79
	.quad	.LC80
	.quad	.LC81
	.quad	.LC82
	.quad	.LC83
	.quad	.LC84
	.quad	.LC85
	.quad	.LC86
	.quad	.LC87
	.quad	.LC88
	.quad	.LC89
	.quad	.LC90
	.quad	.LC91
	.quad	.LC92
	.quad	.LC93
	.quad	.LC94
	.quad	.LC95
	.quad	.LC96
	.quad	.LC83
	.section	.rodata
.LC97:
	.string	"16 15 21 1"
.LC98:
	.string	"  c #3A70CA"
.LC99:
	.string	". c #97B4E3"
.LC100:
	.string	"X c #B9CDED"
.LC101:
	.string	"o c #CBD9F1"
.LC102:
	.string	"O c #82A5DE"
.LC103:
	.string	"+ c #274D8B"
.LC104:
	.string	"@ c #2C58A0"
.LC105:
	.string	"# c #9FB9E5"
.LC106:
	.string	"$ c Grey"
.LC107:
	.string	"% c #2D59A3"
.LC108:
	.string	"& c #A5BEE7"
.LC109:
	.string	"* c #AAC1E8"
.LC110:
	.string	"= c #DAE5F6"
.LC111:
	.string	"- c #1C3866"
.LC112:
	.string	"; c #B0C6EA"
.LC113:
	.string	": c #D2DFF4"
.LC114:
	.string	"> c #3467BC"
.LC115:
	.string	", c White"
.LC116:
	.string	"< c #C3D4EF"
.LC117:
	.string	"1 c #5584D1"
.LC118:
	.string	"2 c #C0D1EE"
.LC119:
	.string	"@@@@@@@@@@@@@@@$"
.LC120:
	.string	"@- ,,,,,,,,,>-@$"
.LC121:
	.string	"@1 ,.......,>1@$"
.LC122:
	.string	"@1 ,,,,,,,,,>1@$"
.LC123:
	.string	"@11>>>>>>>>>11@$"
.LC124:
	.string	"@1111111111111@$"
.LC125:
	.string	"@111++++++++11@$"
.LC126:
	.string	"@11+OOO#;<=,+1@$"
.LC127:
	.string	"@11+O-%%;<=,+1@$"
.LC128:
	.string	"@11+O-%%*2:,+1@$"
.LC129:
	.string	"@11+O-%%&Xo,+1@$"
.LC130:
	.string	"@11+&&o,,,,,+1@$"
.LC131:
	.string	"$@@@@@@@@@@@@@$$"
	.data
	.align 32
	.type	_ZL8save_xpm, @object
	.size	_ZL8save_xpm, 296
_ZL8save_xpm:
	.quad	.LC97
	.quad	.LC98
	.quad	.LC99
	.quad	.LC100
	.quad	.LC101
	.quad	.LC102
	.quad	.LC103
	.quad	.LC104
	.quad	.LC105
	.quad	.LC106
	.quad	.LC107
	.quad	.LC108
	.quad	.LC109
	.quad	.LC110
	.quad	.LC111
	.quad	.LC112
	.quad	.LC113
	.quad	.LC114
	.quad	.LC115
	.quad	.LC116
	.quad	.LC117
	.quad	.LC118
	.quad	.LC119
	.quad	.LC120
	.quad	.LC121
	.quad	.LC122
	.quad	.LC121
	.quad	.LC122
	.quad	.LC123
	.quad	.LC124
	.quad	.LC125
	.quad	.LC126
	.quad	.LC127
	.quad	.LC128
	.quad	.LC129
	.quad	.LC130
	.quad	.LC131
	.section	.rodata
.LC132:
	.string	"16 14 15 1"
.LC133:
	.string	"  c Black"
.LC134:
	.string	". c #8060C0"
.LC135:
	.string	"X c #406080"
.LC136:
	.string	"o c #404080"
.LC137:
	.string	"O c #6060C0"
.LC138:
	.string	"+ c #6040C0"
.LC139:
	.string	"@ c #A6CAF0"
.LC140:
	.string	"# c Grey"
.LC141:
	.string	"$ c #4040C0"
.LC142:
	.string	"% c Gray"
.LC143:
	.string	"& c Gray25"
.LC144:
	.string	"* c #608080"
.LC145:
	.string	"= c #606080"
.LC146:
	.string	"- c #A0A0A4"
.LC147:
	.string	"; c #8080C0"
.LC148:
	.string	"################"
.LC149:
	.string	"####;@&#########"
.LC150:
	.string	"####@.&#########"
.LC151:
	.string	"##;@.OX====-####"
.LC152:
	.string	"#;@.OO;@@@@@;###"
.LC153:
	.string	"X;.OOO....OOOO-#"
.LC154:
	.string	"#=;OOOOOOOOOO$o#"
.LC155:
	.string	"##=;OOooX==OOOo*"
.LC156:
	.string	"###=;O&####=.OO%"
.LC157:
	.string	"####=.=####=O+o#"
.LC158:
	.string	"#####=-####=O+=#"
.LC159:
	.string	"###########=O+ #"
	.data
	.align 32
	.type	_ZL8undo_xpm, @object
	.size	_ZL8undo_xpm, 240
_ZL8undo_xpm:
	.quad	.LC132
	.quad	.LC133
	.quad	.LC134
	.quad	.LC135
	.quad	.LC136
	.quad	.LC137
	.quad	.LC138
	.quad	.LC139
	.quad	.LC140
	.quad	.LC141
	.quad	.LC142
	.quad	.LC143
	.quad	.LC144
	.quad	.LC145
	.quad	.LC146
	.quad	.LC147
	.quad	.LC148
	.quad	.LC149
	.quad	.LC150
	.quad	.LC151
	.quad	.LC152
	.quad	.LC153
	.quad	.LC154
	.quad	.LC155
	.quad	.LC156
	.quad	.LC157
	.quad	.LC158
	.quad	.LC159
	.quad	.LC159
	.quad	.LC159
	.section	.rodata
.LC160:
	.string	"#########&@;####"
.LC161:
	.string	"#########&.@####"
.LC162:
	.string	"####-====XO.@;##"
.LC163:
	.string	"###;@@@@@;OO.@;#"
.LC164:
	.string	"#-OOOO....OOO.;X"
.LC165:
	.string	"#o$OOOOOOOOOO;=#"
.LC166:
	.string	"*oOOO==XooOO;=##"
.LC167:
	.string	"%OO.=####&O;=###"
.LC168:
	.string	"#o+O=####=.=####"
.LC169:
	.string	"#=+O=####-=#####"
.LC170:
	.string	"# +O=###########"
	.data
	.align 32
	.type	_ZL8redo_xpm, @object
	.size	_ZL8redo_xpm, 240
_ZL8redo_xpm:
	.quad	.LC132
	.quad	.LC133
	.quad	.LC134
	.quad	.LC135
	.quad	.LC136
	.quad	.LC137
	.quad	.LC138
	.quad	.LC139
	.quad	.LC140
	.quad	.LC141
	.quad	.LC142
	.quad	.LC143
	.quad	.LC144
	.quad	.LC145
	.quad	.LC146
	.quad	.LC147
	.quad	.LC148
	.quad	.LC160
	.quad	.LC161
	.quad	.LC162
	.quad	.LC163
	.quad	.LC164
	.quad	.LC165
	.quad	.LC166
	.quad	.LC167
	.quad	.LC168
	.quad	.LC169
	.quad	.LC170
	.quad	.LC170
	.quad	.LC170
	.section	.rodata
.LC171:
	.string	"16 15 23 1"
.LC172:
	.string	". c #E2EAF8"
.LC173:
	.string	"X c #6992D7"
.LC174:
	.string	"o c #89A9DF"
.LC175:
	.string	"O c #F5F8FD"
.LC176:
	.string	"+ c #B1C7EB"
.LC177:
	.string	"@ c #C4D5F0"
.LC178:
	.string	"# c #9AB6E4"
.LC179:
	.string	"$ c #3365B7"
.LC180:
	.string	"% c #DCE6F6"
.LC181:
	.string	"& c Grey"
.LC182:
	.string	"* c #769CDA"
.LC183:
	.string	"= c #B8CCEC"
.LC184:
	.string	"- c #FAFCFE"
.LC185:
	.string	"; c #DFE8F7"
.LC186:
	.string	"> c White"
.LC187:
	.string	", c #E5EDF9"
.LC188:
	.string	"< c #A8C0E8"
.LC189:
	.string	"1 c #F7F9FD"
.LC190:
	.string	"2 c #EAF0FA"
.LC191:
	.string	"3 c #648FD6"
.LC192:
	.string	"4 c #FDFEFF"
.LC193:
	.string	"&XXXXX$$&&&&&&&&"
.LC194:
	.string	"&X#o*3$+$&&&&&&&"
.LC195:
	.string	"&X<#o*$++$&&&&&&"
.LC196:
	.string	"&X=<#XXXXXXXX&&&"
.LC197:
	.string	"&X@=<X>:@+#X4X&&"
.LC198:
	.string	"&X:@=X>;:@+X44X&"
.LC199:
	.string	"&X%:@X>,;:@XXXX&"
.LC200:
	.string	"&X,%:X> ,;:@+#X&"
.LC201:
	.string	"&X2.%X>O ,%:@+X&"
.LC202:
	.string	"&XO2.X>1O ,%:@X&"
.LC203:
	.string	"&X1O2X>-1O ,%:X&"
.LC204:
	.string	"&X1O2X>4-1O ,%X&"
.LC205:
	.string	"&XXXXX>>4-1O ,X&"
.LC206:
	.string	"&&&&&X>>>4-1O X&"
.LC207:
	.string	"&&&&&XXXXXXXXXX&"
	.data
	.align 32
	.type	_ZL8copy_xpm, @object
	.size	_ZL8copy_xpm, 312
_ZL8copy_xpm:
	.quad	.LC171
	.quad	.LC3
	.quad	.LC172
	.quad	.LC173
	.quad	.LC174
	.quad	.LC175
	.quad	.LC176
	.quad	.LC177
	.quad	.LC178
	.quad	.LC179
	.quad	.LC180
	.quad	.LC181
	.quad	.LC182
	.quad	.LC183
	.quad	.LC184
	.quad	.LC185
	.quad	.LC113
	.quad	.LC186
	.quad	.LC187
	.quad	.LC188
	.quad	.LC189
	.quad	.LC190
	.quad	.LC191
	.quad	.LC192
	.quad	.LC193
	.quad	.LC194
	.quad	.LC195
	.quad	.LC196
	.quad	.LC197
	.quad	.LC198
	.quad	.LC199
	.quad	.LC200
	.quad	.LC201
	.quad	.LC202
	.quad	.LC203
	.quad	.LC204
	.quad	.LC205
	.quad	.LC206
	.quad	.LC207
	.section	.rodata
.LC208:
	.string	"16 15 25 1"
.LC209:
	.string	"  c #E42234"
.LC210:
	.string	". c #979BA0"
.LC211:
	.string	"X c #CDC0C1"
.LC212:
	.string	"o c #CFCFD0"
.LC213:
	.string	"O c #939495"
.LC214:
	.string	"+ c #C3C3C4"
.LC215:
	.string	"@ c #B7B7B8"
.LC216:
	.string	"# c #AD3A45"
.LC217:
	.string	"$ c #DFE0E2"
.LC218:
	.string	"% c Grey"
.LC219:
	.string	"& c #D8BDC0"
.LC220:
	.string	"* c #826F72"
.LC221:
	.string	"= c #6C6D70"
.LC222:
	.string	"- c #D2D3D4"
.LC223:
	.string	"; c #9B8687"
.LC224:
	.string	": c #BCBDBE"
.LC225:
	.string	"> c #C3C5C8"
.LC226:
	.string	", c #9C2A35"
.LC227:
	.string	"< c White"
.LC228:
	.string	"1 c #AB5C64"
.LC229:
	.string	"2 c #C6C8CA"
.LC230:
	.string	"3 c #B69596"
.LC231:
	.string	"4 c Gray86"
.LC232:
	.string	"5 c #9FA0A0"
.LC233:
	.string	"6 c #C6CCD3"
.LC234:
	.string	"%%%=.%%%%%=4%%%%"
.LC235:
	.string	"%%%*=-%%%2=%%%%%"
.LC236:
	.string	"%%%%*=%%%==%%%%%"
.LC237:
	.string	"%%%%*O:%@=>%%%%%"
.LC238:
	.string	"%%%%%*=$==%%%%%%"
.LC239:
	.string	"%%%%%O@O==%%%%%%"
.LC240:
	.string	"%%%%%*5<==%%%%%%"
.LC241:
	.string	"%%%%%O@O6=%%%%%%"
.LC242:
	.string	"%%%%%**+5*%%%%%%"
.LC243:
	.string	"%%X11 1%1 11o%%%"
.LC244:
	.string	"%X #, o%o ,# o%%"
.LC245:
	.string	"%1#%; %%% 3%#1%%"
.LC246:
	.string	"% 1%1#%%%#1%1 %%"
.LC247:
	.string	"%#,1 3%%%3 1,#%%"
.LC248:
	.string	"%&##3%%%%%3##X%%"
	.data
	.align 32
	.type	_ZL7cut_xpm, @object
	.size	_ZL7cut_xpm, 328
_ZL7cut_xpm:
	.quad	.LC208
	.quad	.LC209
	.quad	.LC210
	.quad	.LC211
	.quad	.LC212
	.quad	.LC213
	.quad	.LC214
	.quad	.LC215
	.quad	.LC216
	.quad	.LC217
	.quad	.LC218
	.quad	.LC219
	.quad	.LC220
	.quad	.LC221
	.quad	.LC222
	.quad	.LC223
	.quad	.LC224
	.quad	.LC225
	.quad	.LC226
	.quad	.LC227
	.quad	.LC228
	.quad	.LC229
	.quad	.LC230
	.quad	.LC231
	.quad	.LC232
	.quad	.LC233
	.quad	.LC234
	.quad	.LC235
	.quad	.LC236
	.quad	.LC237
	.quad	.LC238
	.quad	.LC239
	.quad	.LC240
	.quad	.LC241
	.quad	.LC242
	.quad	.LC243
	.quad	.LC244
	.quad	.LC245
	.quad	.LC246
	.quad	.LC247
	.quad	.LC248
	.section	.rodata
.LC249:
	.string	"  c #FCCBB8"
.LC250:
	.string	". c #FDD8C9"
.LC251:
	.string	"X c #FEE3D7"
.LC252:
	.string	"o c #CAE1F3"
.LC253:
	.string	"O c #FEECE4"
.LC254:
	.string	"+ c #7B767D"
.LC255:
	.string	"@ c #F08B62"
.LC256:
	.string	"# c #FFF8F4"
.LC257:
	.string	"% c #F79586"
.LC258:
	.string	"& c #DAEAF7"
.LC259:
	.string	"* c #B6D5EE"
.LC260:
	.string	"= c #FFF1ED"
.LC261:
	.string	"- c #FFF5F0"
.LC262:
	.string	": c #FAFCFE"
.LC263:
	.string	"> c #F8AA8F"
.LC264:
	.string	", c #3C78A6"
.LC265:
	.string	"< c #E9F3FA"
.LC266:
	.string	"1 c White"
.LC267:
	.string	"2 c #FFFAF8"
.LC268:
	.string	"3 c #EFF6FC"
.LC269:
	.string	"4 c #F7FBFD"
.LC270:
	.string	"5 c #F4F9FD"
.LC271:
	.string	"6 c #FBBCA4"
.LC272:
	.string	"$$$,,,,,,$$$$$$$"
.LC273:
	.string	"$,;+1111++,$$$$$"
.LC274:
	.string	",6;111111;@,$$$$"
.LC275:
	.string	",6;;;;;;;;@,$$$$"
.LC276:
	.string	", 66>>%@,,,,,$$$"
.LC277:
	.string	",  66>>%,o*,5,$$"
.LC278:
	.string	",.  66>>,&o,55,$"
.LC279:
	.string	",..  66>,<&,,,,$"
.LC280:
	.string	",X..  66,3<&o*,$"
.LC281:
	.string	",OX..  6,43<&o,$"
.LC282:
	.string	",OOX..  ,:43<&,$"
.LC283:
	.string	",=OOX.. ,1:45<,$"
.LC284:
	.string	",#-OOX..,,,,,,,$"
.LC285:
	.string	",2#-=OX....,$$$$"
.LC286:
	.string	",,,,,,,,,,,,$$$$"
	.data
	.align 32
	.type	_ZL9paste_xpm, @object
	.size	_ZL9paste_xpm, 328
_ZL9paste_xpm:
	.quad	.LC208
	.quad	.LC249
	.quad	.LC250
	.quad	.LC251
	.quad	.LC252
	.quad	.LC253
	.quad	.LC254
	.quad	.LC255
	.quad	.LC256
	.quad	.LC106
	.quad	.LC257
	.quad	.LC258
	.quad	.LC259
	.quad	.LC260
	.quad	.LC261
	.quad	.LC223
	.quad	.LC262
	.quad	.LC263
	.quad	.LC264
	.quad	.LC265
	.quad	.LC266
	.quad	.LC267
	.quad	.LC268
	.quad	.LC269
	.quad	.LC270
	.quad	.LC271
	.quad	.LC272
	.quad	.LC273
	.quad	.LC274
	.quad	.LC275
	.quad	.LC276
	.quad	.LC277
	.quad	.LC278
	.quad	.LC279
	.quad	.LC280
	.quad	.LC281
	.quad	.LC282
	.quad	.LC283
	.quad	.LC284
	.quad	.LC285
	.quad	.LC286
	.section	.rodata
.LC287:
	.string	"16 15 35 1"
.LC288:
	.string	"  c #487BCE"
.LC289:
	.string	". c #779DDB"
.LC290:
	.string	"X c #3A70CA"
.LC291:
	.string	"o c #6992D7"
.LC292:
	.string	"O c #97B4E3"
.LC293:
	.string	"+ c #B9CDED"
.LC294:
	.string	"@ c #7CA0DC"
.LC295:
	.string	"# c #4075CC"
.LC296:
	.string	"$ c #D9E4F5"
.LC297:
	.string	"% c #CBD9F1"
.LC298:
	.string	"& c #EDF2FB"
.LC299:
	.string	"* c #A2BCE6"
.LC300:
	.string	"= c #2C58A0"
.LC301:
	.string	"- c #D6E1F4"
.LC302:
	.string	"; c #3365B7"
.LC303:
	.string	": c #7FA2DD"
.LC304:
	.string	"> c #4377CD"
.LC305:
	.string	"1 c #CFDDF3"
.LC306:
	.string	"2 c #5685D2"
.LC307:
	.string	"4 c #4E7FD0"
.LC308:
	.string	"6 c #356AC1"
.LC309:
	.string	"7 c #3263B4"
.LC310:
	.string	"8 c #2D5AA5"
.LC311:
	.string	"9 c #ECF1FA"
.LC312:
	.string	"0 c #376EC9"
.LC313:
	.string	"q c #3467BC"
.LC314:
	.string	"w c White"
.LC315:
	.string	"e c #B5C9EB"
.LC316:
	.string	"r c #2F5DA9"
.LC317:
	.string	"t c #3161B1"
.LC318:
	.string	"y c #5584D1"
.LC319:
	.string	",,,y........,,,,"
.LC320:
	.string	",,,y9999999.,,,,"
.LC321:
	.string	",,,y1111111.,,,,"
.LC322:
	.string	",,,y*******.,,,,"
.LC323:
	.string	",00;8rrrrr8r00,,"
.LC324:
	.string	";%$o>oO-+@2;$%;,"
.LC325:
	.string	"yeey3q <yXq;eey,"
.LC326:
	.string	" OOOOOOOOOOOOO ,"
.LC327:
	.string	"X::<=======4::X,"
.LC328:
	.string	"655X6######t556,"
.LC329:
	.string	"q<<qwwwwwww8<<q,"
.LC330:
	.string	"q227&wwwwww822q,"
.LC331:
	.string	"...rwwwwwww8...,"
.LC332:
	.string	",,,qwwwwwww8,,,,"
.LC333:
	.string	",,,;.......0,,,,"
	.data
	.align 32
	.type	_ZL9print_xpm, @object
	.size	_ZL9print_xpm, 408
_ZL9print_xpm:
	.quad	.LC287
	.quad	.LC288
	.quad	.LC289
	.quad	.LC290
	.quad	.LC291
	.quad	.LC292
	.quad	.LC293
	.quad	.LC294
	.quad	.LC295
	.quad	.LC296
	.quad	.LC297
	.quad	.LC298
	.quad	.LC299
	.quad	.LC300
	.quad	.LC301
	.quad	.LC302
	.quad	.LC303
	.quad	.LC304
	.quad	.LC64
	.quad	.LC65
	.quad	.LC305
	.quad	.LC306
	.quad	.LC68
	.quad	.LC307
	.quad	.LC70
	.quad	.LC308
	.quad	.LC309
	.quad	.LC310
	.quad	.LC311
	.quad	.LC312
	.quad	.LC313
	.quad	.LC314
	.quad	.LC315
	.quad	.LC316
	.quad	.LC317
	.quad	.LC318
	.quad	.LC319
	.quad	.LC320
	.quad	.LC321
	.quad	.LC322
	.quad	.LC323
	.quad	.LC324
	.quad	.LC325
	.quad	.LC326
	.quad	.LC327
	.quad	.LC328
	.quad	.LC329
	.quad	.LC330
	.quad	.LC331
	.quad	.LC332
	.quad	.LC333
	.section	.rodata
.LC334:
	.string	"16 15 50 1"
.LC335:
	.string	"o c #A6BFE8"
.LC336:
	.string	"+ c #254A87"
.LC337:
	.string	"@ c #89A9DF"
.LC338:
	.string	"# c #F5F8FD"
.LC339:
	.string	"$ c #7CA0DC"
.LC340:
	.string	"% c #D9E4F5"
.LC341:
	.string	"& c #366BC2"
.LC342:
	.string	"* c #CBD9F1"
.LC343:
	.string	"= c #BED0EE"
.LC344:
	.string	"- c #EDF2FB"
.LC345:
	.string	"; c #B1C7EB"
.LC346:
	.string	": c #3366BB"
.LC347:
	.string	"> c #C4D5F0"
.LC348:
	.string	", c #9AB6E4"
.LC349:
	.string	"< c #2E5CA8"
.LC350:
	.string	"1 c #4377CD"
.LC351:
	.string	"2 c #2B559B"
.LC352:
	.string	"3 c #ADC4E9"
.LC353:
	.string	"4 c #DCE6F6"
.LC354:
	.string	"5 c Grey"
.LC355:
	.string	"6 c #638ED5"
.LC356:
	.string	"7 c #2D59A3"
.LC357:
	.string	"8 c #4E7FD0"
.LC358:
	.string	"9 c #B8CCEC"
.LC359:
	.string	"0 c #356AC1"
.LC360:
	.string	"q c #CCDAF2"
.LC361:
	.string	"w c #FAFCFE"
.LC362:
	.string	"e c #5282D0"
.LC363:
	.string	"r c #2D5AA5"
.LC364:
	.string	"t c #2A5398"
.LC365:
	.string	"y c #DFE8F7"
.LC366:
	.string	"u c #376EC9"
.LC367:
	.string	"i c #D2DFF4"
.LC368:
	.string	"p c #95B2E3"
.LC369:
	.string	"a c White"
.LC370:
	.string	"s c #799EDB"
.LC371:
	.string	"d c #A8C0E8"
.LC372:
	.string	"f c #285092"
.LC373:
	.string	"g c #9BB7E5"
.LC374:
	.string	"h c #8CACE0"
.LC375:
	.string	"j c #F7F9FD"
.LC376:
	.string	"k c #EAF0FA"
.LC377:
	.string	"l c #2A549A"
.LC378:
	.string	"z c #7198D9"
.LC379:
	.string	"x c #274D8D"
.LC380:
	.string	"c c #FDFEFF"
.LC381:
	.string	"555:::::::t15555"
.LC382:
	.string	"555:q=;d,$:@1555"
.LC383:
	.string	"555:iq=;d,:j@e55"
.LC384:
	.string	"55o<<<Od;d:jj@<5"
.LC385:
	.string	"5z+7s6l+O;::::<5"
.LC386:
	.string	"p+tg*-g2+@9d,@:5"
.LC387:
	.string	"r22xx4o2t0>9d,:5"
.LC388:
	.string	"+22t@a&22fq>9d:5"
.LC389:
	.string	"+22xa.222+%q>9:5"
.LC390:
	.string	"+22t+&22tuy%q>:5"
.LC391:
	.string	"zx2+ao22+3kX%q:5"
.LC392:
	.string	"58+t+tt+h# kX%:5"
.LC393:
	.string	"55p<<<8*wj# kX:5"
.LC394:
	.string	"555:aaaccwj# k:5"
.LC395:
	.string	"555::::::::::::5"
	.data
	.align 32
	.type	_ZL8help_xpm, @object
	.size	_ZL8help_xpm, 528
_ZL8help_xpm:
	.quad	.LC334
	.quad	.LC3
	.quad	.LC4
	.quad	.LC5
	.quad	.LC335
	.quad	.LC7
	.quad	.LC336
	.quad	.LC337
	.quad	.LC338
	.quad	.LC339
	.quad	.LC340
	.quad	.LC341
	.quad	.LC342
	.quad	.LC343
	.quad	.LC344
	.quad	.LC345
	.quad	.LC346
	.quad	.LC347
	.quad	.LC348
	.quad	.LC349
	.quad	.LC350
	.quad	.LC351
	.quad	.LC352
	.quad	.LC353
	.quad	.LC354
	.quad	.LC355
	.quad	.LC356
	.quad	.LC357
	.quad	.LC358
	.quad	.LC359
	.quad	.LC360
	.quad	.LC361
	.quad	.LC362
	.quad	.LC363
	.quad	.LC364
	.quad	.LC365
	.quad	.LC366
	.quad	.LC367
	.quad	.LC368
	.quad	.LC369
	.quad	.LC370
	.quad	.LC371
	.quad	.LC372
	.quad	.LC373
	.quad	.LC374
	.quad	.LC375
	.quad	.LC376
	.quad	.LC377
	.quad	.LC378
	.quad	.LC379
	.quad	.LC380
	.quad	.LC381
	.quad	.LC382
	.quad	.LC383
	.quad	.LC384
	.quad	.LC385
	.quad	.LC386
	.quad	.LC387
	.quad	.LC388
	.quad	.LC389
	.quad	.LC390
	.quad	.LC391
	.quad	.LC392
	.quad	.LC393
	.quad	.LC394
	.quad	.LC395
	.section	.rodata
.LC396:
	.string	"16 15 4 1"
.LC397:
	.string	". c Grey"
.LC398:
	.string	"X c Gray"
.LC399:
	.string	"o c White"
.LC400:
	.string	"................"
.LC401:
	.string	"..ooooX..ooooX.."
.LC402:
	.string	"..o   X..o   X.."
.LC403:
	.string	"..XXXXX..XXXXX.."
	.data
	.align 32
	.type	_ZL9pause_xpm, @object
	.size	_ZL9pause_xpm, 160
_ZL9pause_xpm:
	.quad	.LC396
	.quad	.LC133
	.quad	.LC397
	.quad	.LC398
	.quad	.LC399
	.quad	.LC400
	.quad	.LC401
	.quad	.LC402
	.quad	.LC402
	.quad	.LC402
	.quad	.LC402
	.quad	.LC402
	.quad	.LC402
	.quad	.LC402
	.quad	.LC402
	.quad	.LC402
	.quad	.LC402
	.quad	.LC402
	.quad	.LC403
	.quad	.LC400
	.section	.rodata
.LC404:
	.string	"...oo...ooo....."
.LC405:
	.string	"...o o..o X....."
.LC406:
	.string	"...o  o.o X....."
.LC407:
	.string	"...o   oo X....."
.LC408:
	.string	"...o    o X....."
.LC409:
	.string	"...o      X....."
.LC410:
	.string	"...o    X X....."
.LC411:
	.string	"...o   X. X....."
.LC412:
	.string	"...o  X.. X....."
.LC413:
	.string	"...o X... X....."
.LC414:
	.string	"...XX....XX....."
	.data
	.align 32
	.type	_ZL8step_xpm, @object
	.size	_ZL8step_xpm, 160
_ZL8step_xpm:
	.quad	.LC396
	.quad	.LC133
	.quad	.LC397
	.quad	.LC398
	.quad	.LC399
	.quad	.LC400
	.quad	.LC404
	.quad	.LC405
	.quad	.LC406
	.quad	.LC407
	.quad	.LC408
	.quad	.LC409
	.quad	.LC409
	.quad	.LC409
	.quad	.LC410
	.quad	.LC411
	.quad	.LC412
	.quad	.LC413
	.quad	.LC414
	.quad	.LC400
	.section	.rodata
.LC415:
	.string	".....oooooo....."
.LC416:
	.string	"....o      o...."
.LC417:
	.string	"...  XXXXXX  ..."
.LC418:
	.string	".. X..oXX...o .."
.LC419:
	.string	".o ...o X.... X."
.LC420:
	.string	"o X...o X....o X"
.LC421:
	.string	"o Xoooo XoooXo X"
.LC422:
	.string	"o Xo        Xo X"
.LC423:
	.string	"o XXXXX XXXXXo X"
.LC424:
	.string	"...  oooooo  ..."
.LC425:
	.string	"....X      X...."
.LC426:
	.string	".....XXXXXX....."
	.data
	.align 32
	.type	_ZL10zoomin_xpm, @object
	.size	_ZL10zoomin_xpm, 160
_ZL10zoomin_xpm:
	.quad	.LC396
	.quad	.LC133
	.quad	.LC397
	.quad	.LC398
	.quad	.LC399
	.quad	.LC415
	.quad	.LC416
	.quad	.LC417
	.quad	.LC418
	.quad	.LC419
	.quad	.LC420
	.quad	.LC421
	.quad	.LC422
	.quad	.LC423
	.quad	.LC420
	.quad	.LC419
	.quad	.LC418
	.quad	.LC424
	.quad	.LC425
	.quad	.LC426
	.section	.rodata
.LC427:
	.string	".. X........o .."
.LC428:
	.string	".o .......... X."
.LC429:
	.string	"o X..........o X"
.LC430:
	.string	"o XoooooooooXo X"
.LC431:
	.string	"o XXXXXXXXXXXo X"
	.data
	.align 32
	.type	_ZL11zoomout_xpm, @object
	.size	_ZL11zoomout_xpm, 160
_ZL11zoomout_xpm:
	.quad	.LC396
	.quad	.LC133
	.quad	.LC397
	.quad	.LC398
	.quad	.LC399
	.quad	.LC415
	.quad	.LC416
	.quad	.LC417
	.quad	.LC427
	.quad	.LC428
	.quad	.LC429
	.quad	.LC430
	.quad	.LC422
	.quad	.LC431
	.quad	.LC429
	.quad	.LC428
	.quad	.LC427
	.quad	.LC424
	.quad	.LC425
	.quad	.LC426
.globl _ZN9MainFrame13sm_eventTableE
	.section	.rodata
	.align 16
	.type	_ZN9MainFrame13sm_eventTableE, @object
	.size	_ZN9MainFrame13sm_eventTableE, 16
_ZN9MainFrame13sm_eventTableE:
# baseTable:
	.quad	_ZN11wxFrameBase13sm_eventTableE
# entries:
	.quad	_ZN9MainFrame20sm_eventTableEntriesE
	.text
	.align 2
.globl _ZNK9MainFrame13GetEventTableEv
	.type	_ZNK9MainFrame13GetEventTableEv, @function
_ZNK9MainFrame13GetEventTableEv:
.LFB12138:
	.cfi_startproc
	.cfi_personality 0x3,__gxx_personality_v0
	pushq	%rbp	#
	.cfi_def_cfa_offset 16
	movq	%rsp, %rbp	#,
	.cfi_offset 6, -16
	.cfi_def_cfa_register 6
	movq	%rdi, -8(%rbp)	# this, this
	movl	$_ZN9MainFrame13sm_eventTableE, %eax	#, D.210218
	leave
	ret
	.cfi_endproc
.LFE12138:
	.size	_ZNK9MainFrame13GetEventTableEv, .-_ZNK9MainFrame13GetEventTableEv
.globl _ZN9MainFrame17sm_eventHashTableE
	.bss
	.align 32
	.type	_ZN9MainFrame17sm_eventHashTableE, @object
	.size	_ZN9MainFrame17sm_eventHashTableE, 48
_ZN9MainFrame17sm_eventHashTableE:
	.zero	48
	.text
	.align 2
.globl _ZNK9MainFrame17GetEventHashTableEv
	.type	_ZNK9MainFrame17GetEventHashTableEv, @function
_ZNK9MainFrame17GetEventHashTableEv:
.LFB12139:
	.cfi_startproc
	.cfi_personality 0x3,__gxx_personality_v0
	pushq	%rbp	#
	.cfi_def_cfa_offset 16
	movq	%rsp, %rbp	#,
	.cfi_offset 6, -16
	.cfi_def_cfa_register 6
	movq	%rdi, -8(%rbp)	# this, this
	movl	$_ZN9MainFrame17sm_eventHashTableE, %eax	#, D.210223
	leave
	ret
	.cfi_endproc
.LFE12139:
	.size	_ZNK9MainFrame17GetEventHashTableEv, .-_ZNK9MainFrame17GetEventHashTableEv
.globl _ZN9MainFrame20sm_eventTableEntriesE
	.bss
	.align 32
	.type	_ZN9MainFrame20sm_eventTableEntriesE, @object
	.size	_ZN9MainFrame20sm_eventTableEntriesE, 1320
_ZN9MainFrame20sm_eventTableEntriesE:
	.zero	1320
.globl g_printData
	.align 8
	.type	g_printData, @object
	.size	g_printData, 8
g_printData:
	.zero	8
	.section	.text._ZN12LibraryParseaSERKS_,"axG",@progbits,_ZN12LibraryParseaSERKS_,comdat
	.align 2
	.weak	_ZN12LibraryParseaSERKS_
	.type	_ZN12LibraryParseaSERKS_, @function
_ZN12LibraryParseaSERKS_:
.LFB12141:
	.cfi_startproc
	.cfi_personality 0x3,__gxx_personality_v0
	pushq	%rbp	#
	.cfi_def_cfa_offset 16
	movq	%rsp, %rbp	#,
	.cfi_offset 6, -16
	.cfi_def_cfa_register 6
	subq	$16, %rsp	#,
	movq	%rdi, -8(%rbp)	# this, this
	movq	%rsi, -16(%rbp)	# D.210384, D.210384
	movq	-16(%rbp), %rdx	# D.210384, D.210387
	movq	-8(%rbp), %rax	# this, D.210388
	movq	%rdx, %rsi	# D.210387,
	movq	%rax, %rdi	# D.210388,
	call	_ZNSsaSERKSs	#
	movq	-16(%rbp), %rax	# D.210384, tmp66
	leaq	8(%rax), %rdx	#, D.210389
	movq	-8(%rbp), %rax	# this, tmp67
	addq	$8, %rax	#, D.210390
	movq	%rdx, %rsi	# D.210389,
	movq	%rax, %rdi	# D.210390,
	call	_ZNSsaSERKSs	#
	movq	-16(%rbp), %rax	# D.210384, tmp68
	leaq	16(%rax), %rdx	#, D.210391
	movq	-8(%rbp), %rax	# this, tmp69
	addq	$16, %rax	#, D.210392
	movq	%rdx, %rsi	# D.210391,
	movq	%rax, %rdi	# D.210392,
	call	_ZNSt3mapISsS_ISs11LibraryGateSt4lessISsESaISt4pairIKSsS0_EEES2_SaIS3_IS4_S7_EEEaSERKSA_	#
	movq	-8(%rbp), %rax	# this, D.210393
	leave
	ret
	.cfi_endproc
.LFE12141:
	.size	_ZN12LibraryParseaSERKS_, .-_ZN12LibraryParseaSERKS_
	.section	.rodata
.LC432:
	.string	""
.LC433:
	.string	"/My Documents"
.LC434:
	.string	"Create new circuit"
.LC435:
	.string	"&New\tCtrl+N"
.LC436:
	.string	"Open circuit"
.LC437:
	.string	"&Open\tCtrl+O"
.LC438:
	.string	"Save circuit"
.LC439:
	.string	"&Save\tCtrl+S"
.LC440:
	.string	"Save &As"
.LC441:
	.string	"Print circuit"
.LC442:
	.string	"&Print\tCtrl+P"
.LC443:
	.string	"Preview circuit printout"
.LC444:
	.string	"P&rint Preview"
.LC445:
	.string	"Quit this program"
.LC446:
	.string	"E&xit\tAlt+X"
.LC447:
	.string	"Show the Oscope"
.LC448:
	.string	"&Oscope\tCtrl+G"
.LC449:
	.string	"Show Help system"
.LC450:
	.string	"&Contents...\tF1"
.LC451:
	.string	"Show about dialog"
.LC452:
	.string	"&About..."
.LC453:
	.string	"Undo last operation"
.LC454:
	.string	"Undo\tCtrl+Z"
.LC455:
	.string	"Redo last operation"
.LC456:
	.string	"Redo"
.LC457:
	.string	"Copy selection to clipboard"
.LC458:
	.string	"Copy\tCtrl+C"
	.align 8
.LC459:
	.string	"Paste selection from clipboard"
.LC460:
	.string	"Paste\tCtrl+V"
	.align 8
.LC461:
	.string	"Export circuit bitmap to clipboard"
.LC462:
	.string	"Export bitmap"
.LC463:
	.string	"&File"
.LC464:
	.string	"&Edit"
.LC465:
	.string	"&View"
.LC466:
	.string	"&Help"
.LC467:
	.string	"./TestGates.lib"
	.align 8
.LC468:
	.string	"k"
	.string	""
	.string	""
	.string	"l"
	.string	""
	.string	""
	.string	"s"
	.string	""
	.string	""
	.string	"M"
	.string	""
	.string	""
	.string	"i"
	.string	""
	.string	""
	.string	"n"
	.string	""
	.string	""
	.string	"i"
	.string	""
	.string	""
	.string	"M"
	.string	""
	.string	""
	.string	"a"
	.string	""
	.string	""
	.string	"p"
	.string	""
	.string	""
	.string	""
	.string	""
	.string	""
	.string	""
	.align 8
.LC469:
	.string	"G"
	.string	""
	.string	""
	.string	"U"
	.string	""
	.string	""
	.string	"I"
	.string	""
	.string	""
	.string	"C"
	.string	""
	.string	""
	.string	"a"
	.string	""
	.string	""
	.string	"n"
	.string	""
	.string	""
	.string	"v"
	.string	""
	.string	""
	.string	"a"
	.string	""
	.string	""
	.string	"s"
	.string	""
	.string	""
	.string	""
	.string	""
	.string	""
	.string	""
.LC470:
	.string	"Page "
.LC471:
	.string	"Can't start thread!"
.LC472:
	.string	"O-Scope"
	.text
	.align 2
.globl _ZN9MainFrameC2ERK8wxStringS0_
	.type	_ZN9MainFrameC2ERK8wxStringS0_, @function
_ZN9MainFrameC2ERK8wxStringS0_:
.LFB12142:
	.cfi_startproc
	.cfi_personality 0x3,__gxx_personality_v0
	.cfi_lsda 0x3,.LLSDA12142
	pushq	%rbp	#
	.cfi_def_cfa_offset 16
	movq	%rsp, %rbp	#,
	.cfi_offset 6, -16
	.cfi_def_cfa_register 6
	pushq	%r14	#
	pushq	%r13	#
	pushq	%r12	#
	pushq	%rbx	#
	subq	$1504, %rsp	#,
	movq	%rdi, -1496(%rbp)	# this, this
	movq	%rsi, -1504(%rbp)	# title, title
	movq	%rdx, -1512(%rbp)	# cmdFilename, cmdFilename
	leaq	-1040(%rbp), %rax	#, tmp515
	movl	$wxFrameNameStr, %esi	#,
	movq	%rax, %rdi	# tmp515,
.LEHB51:
	.cfi_offset 3, -48
	.cfi_offset 12, -40
	.cfi_offset 13, -32
	.cfi_offset 14, -24
	call	_ZN8wxStringC1EPKw	#
.LEHE51:
	leaq	-1024(%rbp), %rax	#, tmp516
	movl	$600, %edx	#,
	movl	$600, %esi	#,
	movq	%rax, %rdi	# tmp516,
	call	_ZN6wxSizeC1Eii	#
	movq	-1496(%rbp), %rax	# this, D.210890
	leaq	-1024(%rbp), %rbx	#, tmp517
	movq	-1504(%rbp), %rdx	# title, tmp518
	leaq	-1040(%rbp), %rcx	#, tmp519
	movq	%rcx, 8(%rsp)	# tmp519,
	movq	$541072960, (%rsp)	#,
	movq	%rbx, %r9	# tmp517,
	movl	$wxDefaultPosition, %r8d	#,
	movq	%rdx, %rcx	# tmp518,
	movl	$-1, %edx	#,
	movl	$0, %esi	#,
	movq	%rax, %rdi	# D.210890,
.LEHB52:
	call	_ZN7wxFrameC2EP8wxWindowiRK8wxStringRK7wxPointRK6wxSizelS4_	#
.LEHE52:
	jmp	.L810	#
.L809:
.L572:
	movl	%edx, %ebx	# tmp520, save_filt.4138
	movq	%rax, %r12	# tmp521, save_eptr.4137
	leaq	-1040(%rbp), %rax	#, tmp522
	movq	%rax, %rdi	# tmp522,
	call	_ZN8wxStringD1Ev	#
	movq	%r12, %rax	# save_eptr.4137, tmp521
	movslq	%ebx,%rdx	# save_filt.4138, tmp520
	movq	%rax, %rdi	# tmp521,
.LEHB53:
	call	_Unwind_Resume	#
.LEHE53:
.L810:
	leaq	-1040(%rbp), %rax	#, tmp523
	movq	%rax, %rdi	# tmp523,
	call	_ZN8wxStringD1Ev	#
	movq	-1496(%rbp), %rax	# this, tmp524
	movq	$_ZTV9MainFrame+16, (%rax)	#, <variable>.D.209701.D.62971.D.62844.D.62641.D.62511.D.62257.D.61439.D.59436.D.47561._vptr.wxObject
	movq	-1496(%rbp), %rax	# this, tmp525
	addq	$768, %rax	#, D.210891
	movq	%rax, %rdi	# D.210891,
.LEHB54:
	call	_ZNSt6vectorIP9GUICanvasSaIS1_EEC1Ev	#
.LEHE54:
	movq	-1496(%rbp), %rax	# this, tmp526
	addq	$872, %rax	#, D.210892
	movq	%rax, %rdi	# D.210892,
	call	_ZN8wxStringC1Ev	#
	movq	-1496(%rbp), %rax	# this, tmp527
	addq	$880, %rax	#, D.210893
	movq	%rax, %rdi	# D.210893,
	call	_ZN8wxStringC1Ev	#
.LEHB55:
	call	_Z8wxGetAppv	#
	addq	$608, %rax	#, D.210895
	movl	$.LC432, %esi	#,
	movq	%rax, %rdi	# D.210895,
	call	_ZSteqIcSt11char_traitsIcESaIcEEbRKSbIT_T0_T1_EPKS3_	#
	testb	%al, %al	# retval.2077
	je	.L573	#,
	leaq	-992(%rbp), %rax	#, tmp528
	movl	$.LC433, %esi	#,
	movq	%rax, %rdi	# tmp528,
	call	_ZL6std2wxPKc	#
.LEHE55:
	leaq	-976(%rbp), %rax	#, tmp529
	movq	%rax, %rdi	# tmp529,
.LEHB56:
	call	_Z12wxGetHomeDirv	#
.LEHE56:
	leaq	-1008(%rbp), %rax	#, tmp530
	leaq	-992(%rbp), %rdx	#, tmp531
	leaq	-976(%rbp), %rcx	#, tmp532
	movq	%rcx, %rsi	# tmp532,
	movq	%rax, %rdi	# tmp530,
.LEHB57:
	call	_ZplRK8wxStringS1_	#
.LEHE57:
	movq	-1496(%rbp), %rax	# this, tmp533
	leaq	872(%rax), %rdx	#, D.210903
	leaq	-1008(%rbp), %rax	#, tmp534
	movq	%rax, %rsi	# tmp534,
	movq	%rdx, %rdi	# D.210903,
.LEHB58:
	call	_ZN8wxStringaSERKS_	#
.LEHE58:
	jmp	.L811	#
.L802:
.L575:
	movl	%edx, %ebx	# tmp520, save_filt.4140
	movq	%rax, %r12	# tmp521, save_eptr.4139
	leaq	-1008(%rbp), %rax	#, tmp535
	movq	%rax, %rdi	# tmp535,
	call	_ZN8wxStringD1Ev	#
	movq	%r12, %rax	# save_eptr.4139, tmp521
	movslq	%ebx,%rdx	# save_filt.4140, tmp520
	jmp	.L577	#
.L811:
	leaq	-1008(%rbp), %rax	#, tmp536
	movq	%rax, %rdi	# tmp536,
	call	_ZN8wxStringD1Ev	#
	leaq	-976(%rbp), %rax	#, tmp538
	movq	%rax, %rdi	# tmp538,
	call	_ZN8wxStringD1Ev	#
	leaq	-992(%rbp), %rax	#, tmp540
	movq	%rax, %rdi	# tmp540,
	call	_ZN8wxStringD1Ev	#
	jmp	.L580	#
.L803:
.L577:
	movl	%edx, %ebx	# tmp520, save_filt.4142
	movq	%rax, %r12	# tmp521, save_eptr.4141
	leaq	-976(%rbp), %rax	#, tmp537
	movq	%rax, %rdi	# tmp537,
	call	_ZN8wxStringD1Ev	#
	movq	%r12, %rax	# save_eptr.4141, tmp521
	movslq	%ebx,%rdx	# save_filt.4142, tmp520
	jmp	.L579	#
.L804:
.L579:
	movl	%edx, %ebx	# tmp520, save_filt.4144
	movq	%rax, %r12	# tmp521, save_eptr.4143
	leaq	-992(%rbp), %rax	#, tmp539
	movq	%rax, %rdi	# tmp539,
	call	_ZN8wxStringD1Ev	#
	movq	%r12, %rax	# save_eptr.4143, tmp521
	movslq	%ebx,%rdx	# save_filt.4144, tmp520
	jmp	.L726	#
.L573:
.LEHB59:
	call	_Z8wxGetAppv	#
	leaq	608(%rax), %rdx	#, D.210906
	leaq	-960(%rbp), %rax	#, tmp541
	movq	%rdx, %rsi	# D.210906,
	movq	%rax, %rdi	# tmp541,
	call	_ZL6std2wxRKSs	#
.LEHE59:
	movq	-1496(%rbp), %rax	# this, tmp542
	leaq	872(%rax), %rdx	#, D.210908
	leaq	-960(%rbp), %rax	#, tmp543
	movq	%rax, %rsi	# tmp543,
	movq	%rdx, %rdi	# D.210908,
.LEHB60:
	call	_ZN8wxStringaSERKS_	#
.LEHE60:
	jmp	.L812	#
.L801:
.L582:
	movl	%edx, %ebx	# tmp520, save_filt.4146
	movq	%rax, %r12	# tmp521, save_eptr.4145
	leaq	-960(%rbp), %rax	#, tmp544
	movq	%rax, %rdi	# tmp544,
	call	_ZN8wxStringD1Ev	#
	movq	%r12, %rax	# save_eptr.4145, tmp521
	movslq	%ebx,%rdx	# save_filt.4146, tmp520
	jmp	.L726	#
.L812:
	leaq	-960(%rbp), %rax	#, tmp545
	movq	%rax, %rdi	# tmp545,
	call	_ZN8wxStringD1Ev	#
.L580:
	movl	$216, %edi	#,
.LEHB61:
	call	_Znwm	#
.LEHE61:
	movq	%rax, %rbx	# D.210909, D.210910
	movq	%rbx, %rax	# D.210910, D.210911
	movl	$0, %esi	#,
	movq	%rax, %rdi	# D.210911,
.LEHB62:
	call	_ZN6wxMenuC1El	#
.LEHE62:
	jmp	.L813	#
.L800:
.L584:
	movl	%edx, %r12d	# tmp520, save_filt.4148
	movq	%rax, %r13	# tmp521, save_eptr.4147
	movq	%rbx, %rdi	# D.210910,
	call	_ZdlPv	#
	movq	%r13, %rax	# save_eptr.4147, tmp521
	movslq	%r12d,%rdx	# save_filt.4148, tmp520
	jmp	.L726	#
.L813:
	movq	%rbx, -96(%rbp)	# D.210910, fileMenu
	leaq	-944(%rbp), %rax	#, tmp546
	movl	$.LC434, %esi	#,
	movq	%rax, %rdi	# tmp546,
.LEHB63:
	call	_ZL6std2wxPKc	#
.LEHE63:
	leaq	-928(%rbp), %rax	#, tmp547
	movl	$.LC435, %esi	#,
	movq	%rax, %rdi	# tmp547,
.LEHB64:
	call	_ZL6std2wxPKc	#
.LEHE64:
	movq	-96(%rbp), %rax	# fileMenu, D.210915
	leaq	-944(%rbp), %rcx	#, tmp548
	leaq	-928(%rbp), %rdx	#, tmp549
	movl	$0, %r8d	#,
	movl	$5002, %esi	#,
	movq	%rax, %rdi	# D.210915,
.LEHB65:
	call	_ZN10wxMenuBase6AppendEiRK8wxStringS2_10wxItemKind	#
.LEHE65:
	jmp	.L814	#
.L798:
.L586:
	movl	%edx, %ebx	# tmp520, save_filt.4150
	movq	%rax, %r12	# tmp521, save_eptr.4149
	leaq	-928(%rbp), %rax	#, tmp550
	movq	%rax, %rdi	# tmp550,
	call	_ZN8wxStringD1Ev	#
	movq	%r12, %rax	# save_eptr.4149, tmp521
	movslq	%ebx,%rdx	# save_filt.4150, tmp520
	jmp	.L588	#
.L814:
	leaq	-928(%rbp), %rax	#, tmp551
	movq	%rax, %rdi	# tmp551,
	call	_ZN8wxStringD1Ev	#
	leaq	-944(%rbp), %rax	#, tmp553
	movq	%rax, %rdi	# tmp553,
	call	_ZN8wxStringD1Ev	#
	leaq	-912(%rbp), %rax	#, tmp554
	movl	$.LC436, %esi	#,
	movq	%rax, %rdi	# tmp554,
.LEHB66:
	call	_ZL6std2wxPKc	#
.LEHE66:
	jmp	.L815	#
.L799:
.L588:
	movl	%edx, %ebx	# tmp520, save_filt.4152
	movq	%rax, %r12	# tmp521, save_eptr.4151
	leaq	-944(%rbp), %rax	#, tmp552
	movq	%rax, %rdi	# tmp552,
	call	_ZN8wxStringD1Ev	#
	movq	%r12, %rax	# save_eptr.4151, tmp521
	movslq	%ebx,%rdx	# save_filt.4152, tmp520
	jmp	.L726	#
.L815:
	leaq	-896(%rbp), %rax	#, tmp555
	movl	$.LC437, %esi	#,
	movq	%rax, %rdi	# tmp555,
.LEHB67:
	call	_ZL6std2wxPKc	#
.LEHE67:
	movq	-96(%rbp), %rax	# fileMenu, D.210918
	leaq	-912(%rbp), %rcx	#, tmp556
	leaq	-896(%rbp), %rdx	#, tmp557
	movl	$0, %r8d	#,
	movl	$5000, %esi	#,
	movq	%rax, %rdi	# D.210918,
.LEHB68:
	call	_ZN10wxMenuBase6AppendEiRK8wxStringS2_10wxItemKind	#
.LEHE68:
	jmp	.L816	#
.L796:
.L590:
	movl	%edx, %ebx	# tmp520, save_filt.4154
	movq	%rax, %r12	# tmp521, save_eptr.4153
	leaq	-896(%rbp), %rax	#, tmp558
	movq	%rax, %rdi	# tmp558,
	call	_ZN8wxStringD1Ev	#
	movq	%r12, %rax	# save_eptr.4153, tmp521
	movslq	%ebx,%rdx	# save_filt.4154, tmp520
	jmp	.L592	#
.L816:
	leaq	-896(%rbp), %rax	#, tmp559
	movq	%rax, %rdi	# tmp559,
	call	_ZN8wxStringD1Ev	#
	leaq	-912(%rbp), %rax	#, tmp561
	movq	%rax, %rdi	# tmp561,
	call	_ZN8wxStringD1Ev	#
	leaq	-880(%rbp), %rax	#, tmp562
	movl	$.LC438, %esi	#,
	movq	%rax, %rdi	# tmp562,
.LEHB69:
	call	_ZL6std2wxPKc	#
.LEHE69:
	jmp	.L817	#
.L797:
.L592:
	movl	%edx, %ebx	# tmp520, save_filt.4156
	movq	%rax, %r12	# tmp521, save_eptr.4155
	leaq	-912(%rbp), %rax	#, tmp560
	movq	%rax, %rdi	# tmp560,
	call	_ZN8wxStringD1Ev	#
	movq	%r12, %rax	# save_eptr.4155, tmp521
	movslq	%ebx,%rdx	# save_filt.4156, tmp520
	jmp	.L726	#
.L817:
	leaq	-864(%rbp), %rax	#, tmp563
	movl	$.LC439, %esi	#,
	movq	%rax, %rdi	# tmp563,
.LEHB70:
	call	_ZL6std2wxPKc	#
.LEHE70:
	movq	-96(%rbp), %rax	# fileMenu, D.210921
	leaq	-880(%rbp), %rcx	#, tmp564
	leaq	-864(%rbp), %rdx	#, tmp565
	movl	$0, %r8d	#,
	movl	$5003, %esi	#,
	movq	%rax, %rdi	# D.210921,
.LEHB71:
	call	_ZN10wxMenuBase6AppendEiRK8wxStringS2_10wxItemKind	#
.LEHE71:
	jmp	.L818	#
.L794:
.L594:
	movl	%edx, %ebx	# tmp520, save_filt.4158
	movq	%rax, %r12	# tmp521, save_eptr.4157
	leaq	-864(%rbp), %rax	#, tmp566
	movq	%rax, %rdi	# tmp566,
	call	_ZN8wxStringD1Ev	#
	movq	%r12, %rax	# save_eptr.4157, tmp521
	movslq	%ebx,%rdx	# save_filt.4158, tmp520
	jmp	.L596	#
.L818:
	leaq	-864(%rbp), %rax	#, tmp567
	movq	%rax, %rdi	# tmp567,
	call	_ZN8wxStringD1Ev	#
	leaq	-880(%rbp), %rax	#, tmp569
	movq	%rax, %rdi	# tmp569,
	call	_ZN8wxStringD1Ev	#
	leaq	-848(%rbp), %rax	#, tmp570
	movl	$.LC438, %esi	#,
	movq	%rax, %rdi	# tmp570,
.LEHB72:
	call	_ZL6std2wxPKc	#
.LEHE72:
	jmp	.L819	#
.L795:
.L596:
	movl	%edx, %ebx	# tmp520, save_filt.4160
	movq	%rax, %r12	# tmp521, save_eptr.4159
	leaq	-880(%rbp), %rax	#, tmp568
	movq	%rax, %rdi	# tmp568,
	call	_ZN8wxStringD1Ev	#
	movq	%r12, %rax	# save_eptr.4159, tmp521
	movslq	%ebx,%rdx	# save_filt.4160, tmp520
	jmp	.L726	#
.L819:
	leaq	-832(%rbp), %rax	#, tmp571
	movl	$.LC440, %esi	#,
	movq	%rax, %rdi	# tmp571,
.LEHB73:
	call	_ZL6std2wxPKc	#
.LEHE73:
	movq	-96(%rbp), %rax	# fileMenu, D.210924
	leaq	-848(%rbp), %rcx	#, tmp572
	leaq	-832(%rbp), %rdx	#, tmp573
	movl	$0, %r8d	#,
	movl	$5004, %esi	#,
	movq	%rax, %rdi	# D.210924,
.LEHB74:
	call	_ZN10wxMenuBase6AppendEiRK8wxStringS2_10wxItemKind	#
.LEHE74:
	jmp	.L820	#
.L792:
.L598:
	movl	%edx, %ebx	# tmp520, save_filt.4162
	movq	%rax, %r12	# tmp521, save_eptr.4161
	leaq	-832(%rbp), %rax	#, tmp574
	movq	%rax, %rdi	# tmp574,
	call	_ZN8wxStringD1Ev	#
	movq	%r12, %rax	# save_eptr.4161, tmp521
	movslq	%ebx,%rdx	# save_filt.4162, tmp520
	jmp	.L600	#
.L820:
	leaq	-832(%rbp), %rax	#, tmp575
	movq	%rax, %rdi	# tmp575,
	call	_ZN8wxStringD1Ev	#
	leaq	-848(%rbp), %rax	#, tmp577
	movq	%rax, %rdi	# tmp577,
	call	_ZN8wxStringD1Ev	#
	movq	-96(%rbp), %rax	# fileMenu, D.210925
	movq	%rax, %rdi	# D.210925,
.LEHB75:
	call	_ZN10wxMenuBase15AppendSeparatorEv	#
	jmp	.L821	#
.L793:
.L600:
	movl	%edx, %ebx	# tmp520, save_filt.4164
	movq	%rax, %r12	# tmp521, save_eptr.4163
	leaq	-848(%rbp), %rax	#, tmp576
	movq	%rax, %rdi	# tmp576,
	call	_ZN8wxStringD1Ev	#
	movq	%r12, %rax	# save_eptr.4163, tmp521
	movslq	%ebx,%rdx	# save_filt.4164, tmp520
	jmp	.L726	#
.L821:
	leaq	-816(%rbp), %rax	#, tmp578
	movl	$.LC441, %esi	#,
	movq	%rax, %rdi	# tmp578,
	call	_ZL6std2wxPKc	#
.LEHE75:
	leaq	-800(%rbp), %rax	#, tmp579
	movl	$.LC442, %esi	#,
	movq	%rax, %rdi	# tmp579,
.LEHB76:
	call	_ZL6std2wxPKc	#
.LEHE76:
	movq	-96(%rbp), %rax	# fileMenu, D.210928
	leaq	-816(%rbp), %rcx	#, tmp580
	leaq	-800(%rbp), %rdx	#, tmp581
	movl	$0, %r8d	#,
	movl	$5010, %esi	#,
	movq	%rax, %rdi	# D.210928,
.LEHB77:
	call	_ZN10wxMenuBase6AppendEiRK8wxStringS2_10wxItemKind	#
.LEHE77:
	jmp	.L822	#
.L790:
.L602:
	movl	%edx, %ebx	# tmp520, save_filt.4166
	movq	%rax, %r12	# tmp521, save_eptr.4165
	leaq	-800(%rbp), %rax	#, tmp582
	movq	%rax, %rdi	# tmp582,
	call	_ZN8wxStringD1Ev	#
	movq	%r12, %rax	# save_eptr.4165, tmp521
	movslq	%ebx,%rdx	# save_filt.4166, tmp520
	jmp	.L604	#
.L822:
	leaq	-800(%rbp), %rax	#, tmp583
	movq	%rax, %rdi	# tmp583,
	call	_ZN8wxStringD1Ev	#
	leaq	-816(%rbp), %rax	#, tmp585
	movq	%rax, %rdi	# tmp585,
	call	_ZN8wxStringD1Ev	#
	leaq	-784(%rbp), %rax	#, tmp586
	movl	$.LC443, %esi	#,
	movq	%rax, %rdi	# tmp586,
.LEHB78:
	call	_ZL6std2wxPKc	#
.LEHE78:
	jmp	.L823	#
.L791:
.L604:
	movl	%edx, %ebx	# tmp520, save_filt.4168
	movq	%rax, %r12	# tmp521, save_eptr.4167
	leaq	-816(%rbp), %rax	#, tmp584
	movq	%rax, %rdi	# tmp584,
	call	_ZN8wxStringD1Ev	#
	movq	%r12, %rax	# save_eptr.4167, tmp521
	movslq	%ebx,%rdx	# save_filt.4168, tmp520
	jmp	.L726	#
.L823:
	leaq	-768(%rbp), %rax	#, tmp587
	movl	$.LC444, %esi	#,
	movq	%rax, %rdi	# tmp587,
.LEHB79:
	call	_ZL6std2wxPKc	#
.LEHE79:
	movq	-96(%rbp), %rax	# fileMenu, D.210931
	leaq	-784(%rbp), %rcx	#, tmp588
	leaq	-768(%rbp), %rdx	#, tmp589
	movl	$0, %r8d	#,
	movl	$5013, %esi	#,
	movq	%rax, %rdi	# D.210931,
.LEHB80:
	call	_ZN10wxMenuBase6AppendEiRK8wxStringS2_10wxItemKind	#
.LEHE80:
	jmp	.L824	#
.L788:
.L606:
	movl	%edx, %ebx	# tmp520, save_filt.4170
	movq	%rax, %r12	# tmp521, save_eptr.4169
	leaq	-768(%rbp), %rax	#, tmp590
	movq	%rax, %rdi	# tmp590,
	call	_ZN8wxStringD1Ev	#
	movq	%r12, %rax	# save_eptr.4169, tmp521
	movslq	%ebx,%rdx	# save_filt.4170, tmp520
	jmp	.L608	#
.L824:
	leaq	-768(%rbp), %rax	#, tmp591
	movq	%rax, %rdi	# tmp591,
	call	_ZN8wxStringD1Ev	#
	leaq	-784(%rbp), %rax	#, tmp593
	movq	%rax, %rdi	# tmp593,
	call	_ZN8wxStringD1Ev	#
	movq	-96(%rbp), %rax	# fileMenu, D.210932
	movq	%rax, %rdi	# D.210932,
.LEHB81:
	call	_ZN10wxMenuBase15AppendSeparatorEv	#
	jmp	.L825	#
.L789:
.L608:
	movl	%edx, %ebx	# tmp520, save_filt.4172
	movq	%rax, %r12	# tmp521, save_eptr.4171
	leaq	-784(%rbp), %rax	#, tmp592
	movq	%rax, %rdi	# tmp592,
	call	_ZN8wxStringD1Ev	#
	movq	%r12, %rax	# save_eptr.4171, tmp521
	movslq	%ebx,%rdx	# save_filt.4172, tmp520
	jmp	.L726	#
.L825:
	leaq	-752(%rbp), %rax	#, tmp594
	movl	$.LC445, %esi	#,
	movq	%rax, %rdi	# tmp594,
	call	_ZL6std2wxPKc	#
.LEHE81:
	leaq	-736(%rbp), %rax	#, tmp595
	movl	$.LC446, %esi	#,
	movq	%rax, %rdi	# tmp595,
.LEHB82:
	call	_ZL6std2wxPKc	#
.LEHE82:
	movq	-96(%rbp), %rax	# fileMenu, D.210935
	leaq	-752(%rbp), %rcx	#, tmp596
	leaq	-736(%rbp), %rdx	#, tmp597
	movl	$0, %r8d	#,
	movl	$5006, %esi	#,
	movq	%rax, %rdi	# D.210935,
.LEHB83:
	call	_ZN10wxMenuBase6AppendEiRK8wxStringS2_10wxItemKind	#
.LEHE83:
	jmp	.L826	#
.L786:
.L610:
	movl	%edx, %ebx	# tmp520, save_filt.4174
	movq	%rax, %r12	# tmp521, save_eptr.4173
	leaq	-736(%rbp), %rax	#, tmp598
	movq	%rax, %rdi	# tmp598,
	call	_ZN8wxStringD1Ev	#
	movq	%r12, %rax	# save_eptr.4173, tmp521
	movslq	%ebx,%rdx	# save_filt.4174, tmp520
	jmp	.L612	#
.L826:
	leaq	-736(%rbp), %rax	#, tmp599
	movq	%rax, %rdi	# tmp599,
	call	_ZN8wxStringD1Ev	#
	leaq	-752(%rbp), %rax	#, tmp601
	movq	%rax, %rdi	# tmp601,
	call	_ZN8wxStringD1Ev	#
	movl	$216, %edi	#,
.LEHB84:
	call	_Znwm	#
.LEHE84:
	jmp	.L827	#
.L787:
.L612:
	movl	%edx, %ebx	# tmp520, save_filt.4176
	movq	%rax, %r12	# tmp521, save_eptr.4175
	leaq	-752(%rbp), %rax	#, tmp600
	movq	%rax, %rdi	# tmp600,
	call	_ZN8wxStringD1Ev	#
	movq	%r12, %rax	# save_eptr.4175, tmp521
	movslq	%ebx,%rdx	# save_filt.4176, tmp520
	jmp	.L726	#
.L827:
	movq	%rax, %rbx	# D.210936, D.210937
	movq	%rbx, %rax	# D.210937, D.210938
	movl	$0, %esi	#,
	movq	%rax, %rdi	# D.210938,
.LEHB85:
	call	_ZN6wxMenuC1El	#
.LEHE85:
	jmp	.L828	#
.L785:
.L614:
	movl	%edx, %r12d	# tmp520, save_filt.4178
	movq	%rax, %r13	# tmp521, save_eptr.4177
	movq	%rbx, %rdi	# D.210937,
	call	_ZdlPv	#
	movq	%r13, %rax	# save_eptr.4177, tmp521
	movslq	%r12d,%rdx	# save_filt.4178, tmp520
	jmp	.L726	#
.L828:
	movq	%rbx, -88(%rbp)	# D.210937, viewMenu
	leaq	-720(%rbp), %rax	#, tmp602
	movl	$.LC447, %esi	#,
	movq	%rax, %rdi	# tmp602,
.LEHB86:
	call	_ZL6std2wxPKc	#
.LEHE86:
	leaq	-704(%rbp), %rax	#, tmp603
	movl	$.LC448, %esi	#,
	movq	%rax, %rdi	# tmp603,
.LEHB87:
	call	_ZL6std2wxPKc	#
.LEHE87:
	movq	-88(%rbp), %rax	# viewMenu, D.210942
	leaq	-720(%rbp), %rcx	#, tmp604
	leaq	-704(%rbp), %rdx	#, tmp605
	movl	$0, %r8d	#,
	movl	$5902, %esi	#,
	movq	%rax, %rdi	# D.210942,
.LEHB88:
	call	_ZN10wxMenuBase6AppendEiRK8wxStringS2_10wxItemKind	#
.LEHE88:
	jmp	.L829	#
.L783:
.L616:
	movl	%edx, %ebx	# tmp520, save_filt.4180
	movq	%rax, %r12	# tmp521, save_eptr.4179
	leaq	-704(%rbp), %rax	#, tmp606
	movq	%rax, %rdi	# tmp606,
	call	_ZN8wxStringD1Ev	#
	movq	%r12, %rax	# save_eptr.4179, tmp521
	movslq	%ebx,%rdx	# save_filt.4180, tmp520
